TN:
SF:/home/nemesis/Рабочий стол/lab3-sem3/lab3-sem3/cplus/array.cpp
FN:8,_ZN12DynamicArrayC2Ev
FN:13,_ZN12DynamicArrayD2Ev
FN:18,_ZN12DynamicArray17increase_capacityEv
FN:33,_ZN12DynamicArray9push_backERKNSt7__cxx1112basic_stringIcSt11char_traitsIcESaIcEEE
FN:43,_ZN12DynamicArray6insertERKNSt7__cxx1112basic_stringIcSt11char_traitsIcESaIcEEEi
FN:61,_ZN12DynamicArray8pop_backEv
FN:70,_ZN12DynamicArray9remove_atEi
FN:82,_ZNK12DynamicArray6searchERKNSt7__cxx1112basic_stringIcSt11char_traitsIcESaIcEEE
FN:92,_ZNK12DynamicArray3getB5cxx11Ei
FN:100,_ZN12DynamicArray3setEiRKNSt7__cxx1112basic_stringIcSt11char_traitsIcESaIcEEE
FN:108,_ZNK12DynamicArray5printEv
FN:116,_ZN12DynamicArray14load_from_fileERKNSt7__cxx1112basic_stringIcSt11char_traitsIcESaIcEEE
FN:137,_ZNK12DynamicArray12save_to_fileERKNSt7__cxx1112basic_stringIcSt11char_traitsIcESaIcEEE
FNDA:13,_ZNK12DynamicArray3getB5cxx11Ei
FNDA:1,_ZNK12DynamicArray12save_to_fileERKNSt7__cxx1112basic_stringIcSt11char_traitsIcESaIcEEE
FNDA:14,_ZN12DynamicArrayC2Ev
FNDA:35,_ZN12DynamicArray9push_backERKNSt7__cxx1112basic_stringIcSt11char_traitsIcESaIcEEE
FNDA:1,_ZN12DynamicArray6insertERKNSt7__cxx1112basic_stringIcSt11char_traitsIcESaIcEEEi
FNDA:2,_ZN12DynamicArray8pop_backEv
FNDA:3,_ZN12DynamicArray9remove_atEi
FNDA:1,_ZN12DynamicArray14load_from_fileERKNSt7__cxx1112basic_stringIcSt11char_traitsIcESaIcEEE
FNDA:3,_ZN12DynamicArray3setEiRKNSt7__cxx1112basic_stringIcSt11char_traitsIcESaIcEEE
FNDA:14,_ZN12DynamicArrayD2Ev
FNDA:1,_ZNK12DynamicArray5printEv
FNDA:4,_ZNK12DynamicArray6searchERKNSt7__cxx1112basic_stringIcSt11char_traitsIcESaIcEEE
FNDA:15,_ZN12DynamicArray17increase_capacityEv
FNF:13
FNH:13
DA:8,14
DA:9,28
DA:10,14
DA:13,14
DA:14,67
DA:15,14
DA:18,15
DA:19,15
DA:20,75
DA:22,45
DA:23,30
DA:26,45
DA:28,15
DA:29,15
DA:30,15
DA:33,35
DA:34,35
DA:35,14
DA:38,35
DA:39,35
DA:40,35
DA:43,1
DA:44,1
DA:45,0
DA:46,0
DA:49,1
DA:50,1
DA:53,2
DA:54,1
DA:56,1
DA:57,1
DA:61,2
DA:62,2
DA:63,1
DA:65,1
DA:67,1
DA:70,3
DA:71,3
DA:72,2
DA:75,2
DA:76,1
DA:78,1
DA:79,1
DA:82,4
DA:83,10
DA:84,8
DA:85,2
DA:88,2
DA:92,13
DA:93,13
DA:94,2
DA:96,11
DA:100,3
DA:101,3
DA:102,2
DA:104,1
DA:105,1
DA:108,1
DA:109,4
DA:110,3
DA:112,1
DA:113,1
DA:116,1
DA:117,2
DA:118,1
DA:119,1
DA:120,11
DA:122,1
DA:123,1
DA:124,0
DA:125,0
DA:128,1
DA:129,4
DA:130,3
DA:133,1
DA:134,1
DA:137,1
DA:138,1
DA:139,1
DA:140,0
DA:141,0
DA:144,4
DA:145,3
DA:148,1
DA:149,1
LF:85
LH:79
end_of_record
TN:
SF:/home/nemesis/Рабочий стол/lab3-sem3/lab3-sem3/cplus/dlist.cpp
FN:7,_ZN16DoublyLinkedListC2Ev
FN:9,_ZN16DoublyLinkedListD2Ev
FN:13,_ZN16DoublyLinkedList11add_to_headERKNSt7__cxx1112basic_stringIcSt11char_traitsIcESaIcEEE
FN:27,_ZN16DoublyLinkedList11add_to_tailERKNSt7__cxx1112basic_stringIcSt11char_traitsIcESaIcEEE
FN:43,_ZN16DoublyLinkedList16remove_from_headEv
FN:59,_ZN16DoublyLinkedList16remove_from_tailEv
FN:78,_ZN16DoublyLinkedList15remove_by_valueERKNSt7__cxx1112basic_stringIcSt11char_traitsIcESaIcEEE
FN:112,_ZNK16DoublyLinkedList6searchERKNSt7__cxx1112basic_stringIcSt11char_traitsIcESaIcEEERi
FN:125,_ZNK16DoublyLinkedList5printEv
FN:134,_ZN16DoublyLinkedList4freeEv
FN:140,_ZN16DoublyLinkedList14load_from_fileERKNSt7__cxx1112basic_stringIcSt11char_traitsIcESaIcEEE
FN:156,_ZNK16DoublyLinkedList14upload_to_fileERKNSt7__cxx1112basic_stringIcSt11char_traitsIcESaIcEEE
FNDA:18,_ZN16DoublyLinkedList14load_from_fileERKNSt7__cxx1112basic_stringIcSt11char_traitsIcESaIcEEE
FNDA:36,_ZNK16DoublyLinkedList6searchERKNSt7__cxx1112basic_stringIcSt11char_traitsIcESaIcEEERi
FNDA:162,_ZN16DoublyLinkedListD2Ev
FNDA:18,_ZN16DoublyLinkedList16remove_from_tailEv
FNDA:18,_ZNK16DoublyLinkedList14upload_to_fileERKNSt7__cxx1112basic_stringIcSt11char_traitsIcESaIcEEE
FNDA:162,_ZN16DoublyLinkedListC2Ev
FNDA:396,_ZN16DoublyLinkedList16remove_from_headEv
FNDA:342,_ZN16DoublyLinkedList11add_to_headERKNSt7__cxx1112basic_stringIcSt11char_traitsIcESaIcEEE
FNDA:126,_ZNK16DoublyLinkedList5printEv
FNDA:18,_ZN16DoublyLinkedList15remove_by_valueERKNSt7__cxx1112basic_stringIcSt11char_traitsIcESaIcEEE
FNDA:198,_ZN16DoublyLinkedList4freeEv
FNDA:90,_ZN16DoublyLinkedList11add_to_tailERKNSt7__cxx1112basic_stringIcSt11char_traitsIcESaIcEEE
FNF:12
FNH:12
DA:7,162
DA:9,162
DA:10,162
DA:11,162
DA:13,342
DA:14,342
DA:15,342
DA:16,342
DA:17,342
DA:19,342
DA:20,216
DA:22,126
DA:24,342
DA:25,342
DA:27,90
DA:28,90
DA:29,90
DA:30,90
DA:32,90
DA:33,18
DA:34,18
DA:35,18
DA:37,72
DA:38,72
DA:39,72
DA:41,90
DA:43,396
DA:44,396
DA:45,0
DA:47,396
DA:48,396
DA:50,396
DA:51,252
DA:53,144
DA:56,396
DA:59,18
DA:60,18
DA:61,0
DA:64,18
DA:65,0
DA:66,0
DA:67,0
DA:68,0
DA:71,18
DA:72,18
DA:73,18
DA:75,18
DA:78,18
DA:79,18
DA:80,0
DA:84,18
DA:85,0
DA:86,0
DA:89,18
DA:92,36
DA:93,18
DA:97,18
DA:98,18
DA:99,0
DA:101,18
DA:104,18
DA:105,18
DA:108,18
DA:112,36
DA:113,36
DA:114,36
DA:115,108
DA:116,90
DA:117,18
DA:119,72
DA:120,72
DA:122,18
DA:125,126
DA:126,126
DA:127,342
DA:128,216
DA:129,216
DA:131,126
DA:132,126
DA:134,198
DA:135,576
DA:136,378
DA:138,198
DA:140,18
DA:141,18
DA:142,18
DA:143,18
DA:144,18
DA:145,18
DA:148,0
DA:149,0
DA:150,0
DA:153,0
DA:154,18
DA:156,18
DA:157,18
DA:158,18
DA:159,0
DA:160,0
DA:163,18
DA:164,72
DA:165,54
DA:166,54
DA:169,18
DA:170,18
LF:105
LH:89
end_of_record
TN:
SF:/home/nemesis/Рабочий стол/lab3-sem3/lab3-sem3/cplus/hashtable.cpp
FN:8,_ZN9HashTableC2Ev
FN:15,_ZN9HashTableD2Ev
FN:20,_ZNK9HashTable13hash_functionERKNSt7__cxx1112basic_stringIcSt11char_traitsIcESaIcEEE
FN:28,_ZN9HashTable6insertERKNSt7__cxx1112basic_stringIcSt11char_traitsIcESaIcEEES7_
FN:57,_ZNK9HashTable6searchERKNSt7__cxx1112basic_stringIcSt11char_traitsIcESaIcEEE
FN:72,_ZN9HashTable6removeERKNSt7__cxx1112basic_stringIcSt11char_traitsIcESaIcEEE
FN:94,_ZNK9HashTable5printEv
FN:107,_ZN9HashTable5clearEv
FN:120,_ZN9HashTable14load_from_fileERKNSt7__cxx1112basic_stringIcSt11char_traitsIcESaIcEEE
FN:138,_ZNK9HashTable12save_to_fileERKNSt7__cxx1112basic_stringIcSt11char_traitsIcESaIcEEE
FNDA:612,_ZNK9HashTable13hash_functionERKNSt7__cxx1112basic_stringIcSt11char_traitsIcESaIcEEE
FNDA:270,_ZNK9HashTable6searchERKNSt7__cxx1112basic_stringIcSt11char_traitsIcESaIcEEE
FNDA:18,_ZNK9HashTable12save_to_fileERKNSt7__cxx1112basic_stringIcSt11char_traitsIcESaIcEEE
FNDA:0,_ZNK9HashTable5printEv
FNDA:18,_ZN9HashTable14load_from_fileERKNSt7__cxx1112basic_stringIcSt11char_traitsIcESaIcEEE
FNDA:162,_ZN9HashTable5clearEv
FNDA:126,_ZN9HashTableD2Ev
FNDA:36,_ZN9HashTable6removeERKNSt7__cxx1112basic_stringIcSt11char_traitsIcESaIcEEE
FNDA:306,_ZN9HashTable6insertERKNSt7__cxx1112basic_stringIcSt11char_traitsIcESaIcEEES7_
FNDA:126,_ZN9HashTableC2Ev
FNF:10
FNH:9
DA:8,126
DA:9,32382
DA:10,32256
DA:12,126
DA:15,126
DA:16,126
DA:17,126
DA:20,612
DA:21,612
DA:22,3420
DA:23,2808
DA:25,612
DA:28,306
DA:29,306
DA:30,306
DA:33,306
DA:34,288
DA:35,288
DA:39,18
DA:40,18
DA:41,18
DA:43,18
DA:44,18
DA:45,18
DA:47,0
DA:51,0
DA:52,0
DA:53,0
DA:57,270
DA:58,270
DA:59,270
DA:61,270
DA:62,180
DA:63,180
DA:65,0
DA:68,90
DA:72,36
DA:73,36
DA:74,36
DA:75,36
DA:77,36
DA:78,36
DA:79,36
DA:80,36
DA:82,0
DA:84,36
DA:85,36
DA:87,0
DA:88,0
DA:90,0
DA:94,0
DA:95,0
DA:96,0
DA:97,0
DA:98,0
DA:99,0
DA:100,0
DA:102,0
DA:104,0
DA:107,162
DA:108,41634
DA:109,41472
DA:110,41724
DA:111,252
DA:112,252
DA:113,252
DA:115,41472
DA:117,162
DA:120,18
DA:121,18
DA:122,18
DA:123,0
DA:124,0
DA:127,18
DA:129,18
DA:130,72
DA:131,54
DA:134,18
DA:135,18
DA:138,18
DA:139,18
DA:140,18
DA:141,0
DA:142,0
DA:145,4626
DA:146,4608
DA:147,4662
DA:148,54
DA:149,54
DA:153,18
DA:154,18
LF:91
LH:69
end_of_record
TN:
SF:/home/nemesis/Рабочий стол/lab3-sem3/lab3-sem3/cplus/header.h
FN:156,_ZN5Stack4NodeC2ERKNSt7__cxx1112basic_stringIcSt11char_traitsIcESaIcEEE
FN:172,_ZNK5Stack8is_emptyEv
FN:185,_ZN8treeNodeC2Ei
FN:219,_ZN10BinaryTreeC2Ev
FNDA:180,_ZNK5Stack8is_emptyEv
FNDA:342,_ZN5Stack4NodeC2ERKNSt7__cxx1112basic_stringIcSt11char_traitsIcESaIcEEE
FNDA:108,_ZN10BinaryTreeC2Ev
FNDA:396,_ZN8treeNodeC2Ei
FNF:4
FNH:4
DA:156,342
DA:172,180
DA:173,180
DA:185,396
DA:219,108
LF:5
LH:5
end_of_record
TN:
SF:/home/nemesis/Рабочий стол/lab3-sem3/lab3-sem3/cplus/list.cpp
FN:7,_ZN10LinkedListC2Ev
FN:9,_ZN10LinkedListD2Ev
FN:13,_ZN10LinkedList11add_to_headERKNSt7__cxx1112basic_stringIcSt11char_traitsIcESaIcEEE
FN:20,_ZN10LinkedList11add_to_tailERKNSt7__cxx1112basic_stringIcSt11char_traitsIcESaIcEEE
FN:36,_ZN10LinkedList16remove_from_headEv
FN:45,_ZN10LinkedList16remove_from_tailEv
FN:64,_ZN10LinkedList15remove_by_valueERKNSt7__cxx1112basic_stringIcSt11char_traitsIcESaIcEEE
FN:86,_ZNK10LinkedList6searchERKNSt7__cxx1112basic_stringIcSt11char_traitsIcESaIcEEERi
FN:99,_ZNK10LinkedList5printEv
FN:108,_ZN10LinkedList4freeEv
FN:114,_ZN10LinkedList14load_from_fileERKNSt7__cxx1112basic_stringIcSt11char_traitsIcESaIcEEE
FN:130,_ZNK10LinkedList14upload_to_fileERKNSt7__cxx1112basic_stringIcSt11char_traitsIcESaIcEEE
FNDA:26,_ZNK10LinkedList6searchERKNSt7__cxx1112basic_stringIcSt11char_traitsIcESaIcEEERi
FNDA:13,_ZN10LinkedList15remove_by_valueERKNSt7__cxx1112basic_stringIcSt11char_traitsIcESaIcEEE
FNDA:117,_ZN10LinkedListC2Ev
FNDA:117,_ZN10LinkedListD2Ev
FNDA:13,_ZNK10LinkedList14upload_to_fileERKNSt7__cxx1112basic_stringIcSt11char_traitsIcESaIcEEE
FNDA:13,_ZN10LinkedList16remove_from_tailEv
FNDA:286,_ZN10LinkedList16remove_from_headEv
FNDA:65,_ZN10LinkedList11add_to_tailERKNSt7__cxx1112basic_stringIcSt11char_traitsIcESaIcEEE
FNDA:143,_ZN10LinkedList4freeEv
FNDA:13,_ZN10LinkedList14load_from_fileERKNSt7__cxx1112basic_stringIcSt11char_traitsIcESaIcEEE
FNDA:247,_ZN10LinkedList11add_to_headERKNSt7__cxx1112basic_stringIcSt11char_traitsIcESaIcEEE
FNDA:91,_ZNK10LinkedList5printEv
FNF:12
FNH:12
DA:7,117
DA:9,117
DA:10,117
DA:11,117
DA:13,247
DA:14,247
DA:15,247
DA:16,247
DA:17,247
DA:18,247
DA:20,65
DA:21,65
DA:22,65
DA:23,65
DA:25,65
DA:26,13
DA:27,13
DA:29,52
DA:30,78
DA:31,26
DA:33,52
DA:36,286
DA:37,286
DA:38,0
DA:40,286
DA:41,286
DA:42,286
DA:45,13
DA:46,13
DA:47,0
DA:50,13
DA:51,0
DA:52,0
DA:53,0
DA:56,13
DA:57,26
DA:58,13
DA:60,13
DA:61,13
DA:64,13
DA:65,13
DA:66,0
DA:69,13
DA:70,0
DA:71,0
DA:74,13
DA:75,13
DA:76,0
DA:79,13
DA:80,13
DA:81,13
DA:82,13
DA:86,26
DA:87,26
DA:88,26
DA:89,78
DA:90,65
DA:91,13
DA:93,52
DA:94,52
DA:96,13
DA:99,91
DA:100,91
DA:101,247
DA:102,156
DA:103,156
DA:105,91
DA:106,91
DA:108,143
DA:109,416
DA:110,273
DA:112,143
DA:114,13
DA:115,13
DA:116,13
DA:117,13
DA:118,13
DA:119,13
DA:122,0
DA:123,0
DA:124,0
DA:127,0
DA:128,13
DA:130,13
DA:131,13
DA:132,13
DA:133,0
DA:134,0
DA:137,13
DA:138,52
DA:139,39
DA:140,39
DA:143,13
DA:144,13
LF:94
LH:79
end_of_record
TN:
SF:/home/nemesis/Рабочий стол/lab3-sem3/lab3-sem3/cplus/queue.cpp
FN:7,_ZN5QueueC2Ev
FN:9,_ZN5QueueD2Ev
FN:13,_ZNK5Queue8is_emptyEv
FN:17,_ZN5Queue4pushERKNSt7__cxx1112basic_stringIcSt11char_traitsIcESaIcEEE
FN:29,_ZN5Queue3popB5cxx11Ev
FN:47,_ZNK5Queue5printEv
FN:61,_ZN5Queue5clearEv
FN:67,_ZN5Queue14load_from_fileERKNSt7__cxx1112basic_stringIcSt11char_traitsIcESaIcEEE
FN:84,_ZNK5Queue12save_to_fileERKNSt7__cxx1112basic_stringIcSt11char_traitsIcESaIcEEE
FNDA:18,_ZNK5Queue12save_to_fileERKNSt7__cxx1112basic_stringIcSt11char_traitsIcESaIcEEE
FNDA:180,_ZN5Queue5clearEv
FNDA:36,_ZNK5Queue5printEv
FNDA:414,_ZNK5Queue8is_emptyEv
FNDA:252,_ZN5Queue4pushERKNSt7__cxx1112basic_stringIcSt11char_traitsIcESaIcEEE
FNDA:18,_ZN5Queue14load_from_fileERKNSt7__cxx1112basic_stringIcSt11char_traitsIcESaIcEEE
FNDA:288,_ZN5Queue3popB5cxx11Ev
FNDA:144,_ZN5QueueC2Ev
FNDA:144,_ZN5QueueD2Ev
FNF:9
FNH:9
DA:7,144
DA:9,144
DA:10,144
DA:11,144
DA:13,414
DA:14,414
DA:17,252
DA:18,252
DA:20,252
DA:21,108
DA:22,108
DA:24,144
DA:25,144
DA:27,252
DA:29,288
DA:30,288
DA:31,36
DA:32,36
DA:35,252
DA:36,252
DA:37,252
DA:39,252
DA:40,108
DA:43,252
DA:44,252
DA:45,252
DA:47,36
DA:48,36
DA:49,18
DA:50,18
DA:53,18
DA:54,54
DA:55,36
DA:56,36
DA:58,18
DA:61,180
DA:62,324
DA:63,144
DA:65,180
DA:67,18
DA:68,18
DA:70,18
DA:71,18
DA:72,0
DA:73,0
DA:76,18
DA:77,72
DA:78,54
DA:81,18
DA:82,18
DA:84,18
DA:85,18
DA:86,18
DA:87,0
DA:88,0
DA:91,18
DA:92,72
DA:93,54
DA:94,54
DA:97,18
DA:98,18
LF:61
LH:57
end_of_record
TN:
SF:/home/nemesis/Рабочий стол/lab3-sem3/lab3-sem3/cplus/stack.cpp
FN:7,_ZN5StackC2Ev
FN:9,_ZN5StackD2Ev
FN:13,_ZN5Stack4pushERKNSt7__cxx1112basic_stringIcSt11char_traitsIcESaIcEEE
FN:19,_ZN5Stack3popB5cxx11Ev
FN:33,_ZNK5Stack5printEv
FN:47,_ZN5Stack5clearEv
FN:53,_ZN5Stack14load_from_fileERKNSt7__cxx1112basic_stringIcSt11char_traitsIcESaIcEEE
FN:77,_ZNK5Stack12save_to_fileERKNSt7__cxx1112basic_stringIcSt11char_traitsIcESaIcEEE
FNDA:252,_ZN5Stack5clearEv
FNDA:36,_ZNK5Stack12save_to_fileERKNSt7__cxx1112basic_stringIcSt11char_traitsIcESaIcEEE
FNDA:378,_ZN5Stack3popB5cxx11Ev
FNDA:36,_ZNK5Stack5printEv
FNDA:180,_ZN5StackC2Ev
FNDA:180,_ZN5StackD2Ev
FNDA:342,_ZN5Stack4pushERKNSt7__cxx1112basic_stringIcSt11char_traitsIcESaIcEEE
FNDA:36,_ZN5Stack14load_from_fileERKNSt7__cxx1112basic_stringIcSt11char_traitsIcESaIcEEE
FNF:8
FNH:8
DA:7,180
DA:9,180
DA:10,180
DA:11,180
DA:13,342
DA:14,342
DA:15,342
DA:16,342
DA:17,342
DA:19,378
DA:20,378
DA:21,36
DA:22,36
DA:25,342
DA:26,342
DA:27,342
DA:28,342
DA:30,342
DA:31,342
DA:33,36
DA:34,36
DA:35,18
DA:36,18
DA:39,18
DA:40,72
DA:41,54
DA:42,54
DA:44,18
DA:47,252
DA:48,432
DA:49,180
DA:51,252
DA:53,36
DA:54,36
DA:56,36
DA:57,36
DA:58,18
DA:59,18
DA:62,18
DA:63,18
DA:66,72
DA:67,54
DA:69,18
DA:72,72
DA:73,54
DA:75,36
DA:77,36
DA:78,36
DA:79,36
DA:80,18
DA:81,18
DA:84,18
DA:85,72
DA:86,54
DA:87,54
DA:90,18
DA:91,36
LF:57
LH:57
end_of_record
TN:
SF:/home/nemesis/Рабочий стол/lab3-sem3/lab3-sem3/cplus/tree.cpp
FN:8,_ZN6QueueTC2Ev
FN:10,_ZN6QueueTD2Ev
FN:18,_ZNK6QueueT8is_emptyEv
FN:22,_ZN6QueueT4pushEP8treeNode
FN:41,_ZN6QueueT3popEv
FN:59,_ZN10BinaryTreeD2Ev
FN:63,_ZNK10BinaryTree19count_of_nodes_treeEP8treeNode
FN:69,_ZNK10BinaryTree11height_treeEP8treeNode
FN:76,_ZNK10BinaryTree11is_completeEv
FN:103,_ZNK10BinaryTree7is_fullEv
FN:109,_ZNK10BinaryTree9print_lvlEP8treeNodei
FN:127,_ZNK10BinaryTree5printEv
FN:135,_ZNK10BinaryTree11search_treeEP8treeNodei
FN:145,_ZNK10BinaryTree6searchEi
FN:149,_ZN10BinaryTree9push_treeERP8treeNodei
FN:177,_ZN10BinaryTree4pushEi
FN:181,_ZN10BinaryTree10clear_treeERP8treeNode
FN:191,_ZN10BinaryTree5clearEv
FN:195,_ZN10BinaryTree14load_from_fileERKNSt7__cxx1112basic_stringIcSt11char_traitsIcESaIcEEE
FN:210,_ZNK10BinaryTree14upload_to_fileERKNSt7__cxx1112basic_stringIcSt11char_traitsIcESaIcEEE
FNDA:306,_ZN10BinaryTree4pushEi
FNDA:396,_ZN10BinaryTree9push_treeERP8treeNodei
FNDA:684,_ZNK6QueueT8is_emptyEv
FNDA:612,_ZN6QueueT3popEv
FNDA:810,_ZN6QueueT4pushEP8treeNode
FNDA:360,_ZN6QueueTD2Ev
FNDA:936,_ZN10BinaryTree10clear_treeERP8treeNode
FNDA:450,_ZNK10BinaryTree19count_of_nodes_treeEP8treeNode
FNDA:0,_ZNK10BinaryTree9print_lvlEP8treeNodei
FNDA:18,_ZNK10BinaryTree14upload_to_fileERKNSt7__cxx1112basic_stringIcSt11char_traitsIcESaIcEEE
FNDA:360,_ZN6QueueTC2Ev
FNDA:216,_ZNK10BinaryTree6searchEi
FNDA:450,_ZNK10BinaryTree11height_treeEP8treeNode
FNDA:54,_ZNK10BinaryTree11is_completeEv
FNDA:18,_ZN10BinaryTree14load_from_fileERKNSt7__cxx1112basic_stringIcSt11char_traitsIcESaIcEEE
FNDA:54,_ZNK10BinaryTree7is_fullEv
FNDA:702,_ZNK10BinaryTree11search_treeEP8treeNodei
FNDA:0,_ZNK10BinaryTree5printEv
FNDA:108,_ZN10BinaryTreeD2Ev
FNDA:144,_ZN10BinaryTree5clearEv
FNF:20
FNH:18
DA:8,360
DA:10,360
DA:11,558
DA:12,198
DA:13,198
DA:14,198
DA:16,360
DA:18,684
DA:19,684
DA:22,810
DA:23,810
DA:24,810
DA:25,0
DA:26,0
DA:29,810
DA:30,810
DA:32,810
DA:33,612
DA:34,612
DA:36,198
DA:37,198
DA:41,612
DA:42,612
DA:43,0
DA:44,0
DA:47,612
DA:48,612
DA:49,612
DA:51,612
DA:52,432
DA:55,612
DA:56,612
DA:59,108
DA:60,108
DA:61,108
DA:63,450
DA:64,450
DA:65,252
DA:66,198
DA:69,450
DA:70,450
DA:71,252
DA:73,198
DA:76,54
DA:77,54
DA:79,54
DA:80,54
DA:81,54
DA:83,252
DA:84,198
DA:86,198
DA:87,90
DA:88,90
DA:90,108
DA:93,198
DA:94,54
DA:95,54
DA:97,144
DA:100,54
DA:101,54
DA:103,54
DA:104,54
DA:105,54
DA:106,54
DA:109,0
DA:110,0
DA:111,0
DA:114,0
DA:115,0
DA:116,0
DA:117,0
DA:119,0
DA:120,0
DA:122,0
DA:123,0
DA:125,0
DA:127,0
DA:128,0
DA:129,0
DA:130,0
DA:131,0
DA:133,0
DA:135,702
DA:136,702
DA:137,270
DA:139,432
DA:140,144
DA:142,288
DA:145,216
DA:146,216
DA:149,396
DA:150,396
DA:151,108
DA:152,396
DA:155,288
DA:156,288
DA:158,360
DA:159,360
DA:161,360
DA:162,162
DA:163,162
DA:165,198
DA:168,198
DA:169,126
DA:170,126
DA:172,72
DA:175,288
DA:177,306
DA:178,306
DA:179,306
DA:181,936
DA:182,936
DA:184,396
DA:185,396
DA:187,396
DA:188,396
DA:191,144
DA:192,144
DA:193,144
DA:195,18
DA:196,18
DA:197,18
DA:198,18
DA:199,0
DA:200,0
DA:204,108
DA:205,90
DA:207,18
DA:208,18
DA:210,18
DA:211,18
DA:212,18
DA:213,0
DA:214,0
DA:217,18
DA:218,0
DA:220,18
DA:221,18
DA:223,72
DA:224,54
DA:225,54
DA:227,54
DA:228,18
DA:230,54
DA:231,18
DA:234,18
DA:235,18
DA:236,18
LF:148
LH:121
end_of_record
TN:
SF:/home/nemesis/Рабочий стол/lab3-sem3/lab3-sem3/tests_cplus/test_array.cpp
FN:7,_ZN19dynamic_array_testsL30test_increase_capacity_invokerEv
FN:7,_ZN19dynamic_array_tests22test_increase_capacity11test_methodEv
FN:19,_ZN19dynamic_array_testsL22test_push_back_invokerEv
FN:19,_ZN19dynamic_array_tests14test_push_back11test_methodEv
FN:28,_ZN19dynamic_array_tests11test_insert11test_methodEv
FN:28,_ZN19dynamic_array_testsL19test_insert_invokerEv
FN:37,_ZN19dynamic_array_testsL21test_pop_back_invokerEv
FN:37,_ZN19dynamic_array_tests13test_pop_back11test_methodEv
FN:45,_ZN19dynamic_array_tests10test_print11test_methodEv
FN:45,_ZN19dynamic_array_testsL18test_print_invokerEv
FN:66,_ZN19dynamic_array_tests14test_remove_at11test_methodEv
FN:66,_ZN19dynamic_array_testsL22test_remove_at_invokerEv
FN:76,_ZN19dynamic_array_testsL19test_search_invokerEv
FN:76,_ZN19dynamic_array_tests11test_search11test_methodEv
FN:84,_ZN19dynamic_array_tests12test_get_set11test_methodEv
FN:84,_ZN19dynamic_array_testsL20test_get_set_invokerEv
FN:91,_ZN19dynamic_array_tests19test_load_from_file11test_methodEv
FN:91,_ZN19dynamic_array_testsL27test_load_from_file_invokerEv
FN:103,_ZN19dynamic_array_tests17test_save_to_file11test_methodEv
FN:103,_ZN19dynamic_array_testsL25test_save_to_file_invokerEv
FN:120,_ZN19dynamic_array_tests23test_pop_back_exception11test_methodEv
FN:120,_ZN19dynamic_array_testsL31test_pop_back_exception_invokerEv
FN:126,_ZN19dynamic_array_tests24test_remove_at_exception11test_methodEv
FN:126,_ZN19dynamic_array_testsL32test_remove_at_exception_invokerEv
FN:134,_ZN19dynamic_array_testsL26test_get_exception_invokerEv
FN:134,_ZN19dynamic_array_tests18test_get_exception11test_methodEv
FN:143,_ZN19dynamic_array_tests18test_set_exception11test_methodEv
FN:143,_ZN19dynamic_array_testsL26test_set_exception_invokerEv
FNDA:1,_ZN19dynamic_array_tests23test_pop_back_exception11test_methodEv
FNDA:1,_ZN19dynamic_array_tests24test_remove_at_exception11test_methodEv
FNDA:1,_ZN19dynamic_array_tests14test_push_back11test_methodEv
FNDA:1,_ZN19dynamic_array_testsL22test_push_back_invokerEv
FNDA:1,_ZN19dynamic_array_testsL21test_pop_back_invokerEv
FNDA:1,_ZN19dynamic_array_tests14test_remove_at11test_methodEv
FNDA:1,_ZN19dynamic_array_tests10test_print11test_methodEv
FNDA:1,_ZN19dynamic_array_tests11test_insert11test_methodEv
FNDA:1,_ZN19dynamic_array_testsL30test_increase_capacity_invokerEv
FNDA:1,_ZN19dynamic_array_tests18test_get_exception11test_methodEv
FNDA:1,_ZN19dynamic_array_testsL19test_search_invokerEv
FNDA:1,_ZN19dynamic_array_testsL26test_get_exception_invokerEv
FNDA:1,_ZN19dynamic_array_testsL31test_pop_back_exception_invokerEv
FNDA:1,_ZN19dynamic_array_tests17test_save_to_file11test_methodEv
FNDA:1,_ZN19dynamic_array_testsL20test_get_set_invokerEv
FNDA:1,_ZN19dynamic_array_testsL32test_remove_at_exception_invokerEv
FNDA:1,_ZN19dynamic_array_testsL19test_insert_invokerEv
FNDA:1,_ZN19dynamic_array_tests18test_set_exception11test_methodEv
FNDA:1,_ZN19dynamic_array_tests12test_get_set11test_methodEv
FNDA:1,_ZN19dynamic_array_testsL22test_remove_at_invokerEv
FNDA:1,_ZN19dynamic_array_testsL18test_print_invokerEv
FNDA:1,_ZN19dynamic_array_testsL27test_load_from_file_invokerEv
FNDA:1,_ZN19dynamic_array_tests13test_pop_back11test_methodEv
FNDA:1,_ZN19dynamic_array_testsL26test_set_exception_invokerEv
FNDA:1,_ZN19dynamic_array_tests19test_load_from_file11test_methodEv
FNDA:1,_ZN19dynamic_array_tests22test_increase_capacity11test_methodEv
FNDA:1,_ZN19dynamic_array_tests11test_search11test_methodEv
FNDA:1,_ZN19dynamic_array_testsL25test_save_to_file_invokerEv
FNF:28
FNH:28
DA:7,2
DA:8,1
DA:10,11
DA:11,10
DA:15,1
DA:16,1
DA:17,1
DA:19,2
DA:20,1
DA:21,1
DA:22,1
DA:23,1
DA:24,1
DA:25,1
DA:26,1
DA:28,2
DA:29,1
DA:30,1
DA:31,1
DA:32,1
DA:33,1
DA:34,1
DA:35,1
DA:37,2
DA:38,1
DA:39,1
DA:40,1
DA:41,1
DA:42,1
DA:43,1
DA:45,2
DA:46,1
DA:47,1
DA:48,1
DA:49,1
DA:51,1
DA:52,1
DA:55,1
DA:56,0
DA:57,0
DA:58,0
DA:59,0
DA:61,1
DA:63,1
DA:64,1
DA:66,2
DA:67,1
DA:68,1
DA:69,1
DA:70,1
DA:71,1
DA:72,1
DA:73,1
DA:74,1
DA:76,2
DA:77,1
DA:78,1
DA:79,1
DA:80,1
DA:81,1
DA:82,1
DA:84,2
DA:85,1
DA:86,1
DA:87,1
DA:88,1
DA:89,1
DA:91,2
DA:92,1
DA:93,1
DA:94,1
DA:95,1
DA:97,1
DA:98,1
DA:99,1
DA:100,1
DA:101,1
DA:103,2
DA:104,1
DA:105,1
DA:106,1
DA:107,1
DA:108,1
DA:110,1
DA:111,1
DA:112,5
DA:113,1
DA:114,4
DA:115,3
DA:117,1
DA:118,5
DA:120,2
DA:121,1
DA:123,2
DA:124,1
DA:126,2
DA:127,1
DA:128,1
DA:130,2
DA:131,2
DA:132,1
DA:134,2
DA:135,1
DA:136,1
DA:139,2
DA:140,2
DA:141,1
DA:143,2
DA:144,1
DA:145,1
DA:148,4
DA:149,4
DA:150,1
LF:113
LH:109
end_of_record
TN:
SF:/home/nemesis/Рабочий стол/lab3-sem3/lab3-sem3/tests_cplus/test_dlist.cpp
FN:10,_ZN24doubly_linked_list_testsL24test_add_to_head_invokerEv
FN:10,_ZN24doubly_linked_list_tests16test_add_to_head11test_methodEv
FN:24,_ZN24doubly_linked_list_testsL24test_add_to_tail_invokerEv
FN:24,_ZN24doubly_linked_list_tests16test_add_to_tail11test_methodEv
FN:38,_ZN24doubly_linked_list_tests21test_remove_from_head11test_methodEv
FN:38,_ZN24doubly_linked_list_testsL29test_remove_from_head_invokerEv
FN:54,_ZN24doubly_linked_list_tests21test_remove_from_tail11test_methodEv
FN:54,_ZN24doubly_linked_list_testsL29test_remove_from_tail_invokerEv
FN:70,_ZN24doubly_linked_list_tests20test_remove_by_value11test_methodEv
FN:70,_ZN24doubly_linked_list_testsL28test_remove_by_value_invokerEv
FN:86,_ZN24doubly_linked_list_testsL19test_search_invokerEv
FN:86,_ZN24doubly_linked_list_tests11test_search11test_methodEv
FN:102,_ZN24doubly_linked_list_testsL27test_load_from_file_invokerEv
FN:102,_ZN24doubly_linked_list_tests19test_load_from_file11test_methodEv
FN:114,_ZN24doubly_linked_list_tests19test_upload_to_file11test_methodEv
FN:114,_ZN24doubly_linked_list_testsL27test_upload_to_file_invokerEv
FN:133,_ZN24doubly_linked_list_tests9test_free11test_methodEv
FN:133,_ZN24doubly_linked_list_testsL17test_free_invokerEv
FNDA:8,_ZN24doubly_linked_list_testsL27test_load_from_file_invokerEv
FNDA:8,_ZN24doubly_linked_list_tests9test_free11test_methodEv
FNDA:8,_ZN24doubly_linked_list_tests16test_add_to_head11test_methodEv
FNDA:8,_ZN24doubly_linked_list_testsL24test_add_to_head_invokerEv
FNDA:8,_ZN24doubly_linked_list_tests16test_add_to_tail11test_methodEv
FNDA:8,_ZN24doubly_linked_list_tests21test_remove_from_head11test_methodEv
FNDA:8,_ZN24doubly_linked_list_tests20test_remove_by_value11test_methodEv
FNDA:8,_ZN24doubly_linked_list_testsL24test_add_to_tail_invokerEv
FNDA:8,_ZN24doubly_linked_list_tests19test_load_from_file11test_methodEv
FNDA:8,_ZN24doubly_linked_list_testsL27test_upload_to_file_invokerEv
FNDA:8,_ZN24doubly_linked_list_testsL29test_remove_from_head_invokerEv
FNDA:8,_ZN24doubly_linked_list_tests11test_search11test_methodEv
FNDA:8,_ZN24doubly_linked_list_testsL19test_search_invokerEv
FNDA:8,_ZN24doubly_linked_list_testsL17test_free_invokerEv
FNDA:8,_ZN24doubly_linked_list_testsL29test_remove_from_tail_invokerEv
FNDA:8,_ZN24doubly_linked_list_testsL28test_remove_by_value_invokerEv
FNDA:8,_ZN24doubly_linked_list_tests19test_upload_to_file11test_methodEv
FNDA:8,_ZN24doubly_linked_list_tests21test_remove_from_tail11test_methodEv
FNF:18
FNH:18
DA:10,16
DA:11,8
DA:12,8
DA:13,8
DA:14,8
DA:16,8
DA:17,8
DA:18,8
DA:19,8
DA:20,8
DA:21,8
DA:24,16
DA:25,8
DA:26,8
DA:27,8
DA:28,8
DA:30,8
DA:31,8
DA:32,8
DA:33,8
DA:34,8
DA:35,8
DA:38,16
DA:39,8
DA:40,8
DA:41,8
DA:42,8
DA:44,8
DA:46,8
DA:47,8
DA:48,8
DA:49,8
DA:50,8
DA:51,8
DA:54,16
DA:55,8
DA:56,8
DA:57,8
DA:58,8
DA:60,8
DA:62,8
DA:63,8
DA:64,8
DA:65,8
DA:66,8
DA:67,8
DA:70,16
DA:71,8
DA:72,8
DA:73,8
DA:74,8
DA:76,8
DA:78,8
DA:79,8
DA:80,8
DA:81,8
DA:82,8
DA:83,8
DA:86,16
DA:87,8
DA:88,8
DA:89,8
DA:90,8
DA:92,8
DA:93,8
DA:94,8
DA:95,8
DA:97,8
DA:98,8
DA:99,8
DA:102,16
DA:103,8
DA:104,8
DA:106,8
DA:107,8
DA:108,8
DA:109,8
DA:110,8
DA:111,8
DA:114,16
DA:115,8
DA:116,8
DA:117,8
DA:118,8
DA:120,8
DA:122,8
DA:123,8
DA:124,8
DA:125,8
DA:126,8
DA:127,8
DA:128,8
DA:129,8
DA:130,8
DA:133,16
DA:134,8
DA:135,8
DA:136,8
DA:137,8
DA:139,8
DA:141,8
DA:142,8
DA:143,8
DA:144,8
DA:145,8
DA:146,8
LF:106
LH:106
end_of_record
TN:
SF:/home/nemesis/Рабочий стол/lab3-sem3/lab3-sem3/tests_cplus/test_hashtable.cpp
FN:7,_ZN16hash_table_testsL30test_insert_and_search_invokerEv
FN:7,_ZN16hash_table_tests22test_insert_and_search11test_methodEv
FN:19,_ZN16hash_table_tests17test_update_value11test_methodEv
FN:19,_ZN16hash_table_testsL25test_update_value_invokerEv
FN:27,_ZN16hash_table_testsL19test_remove_invokerEv
FN:27,_ZN16hash_table_tests11test_remove11test_methodEv
FN:40,_ZN16hash_table_testsL18test_clear_invokerEv
FN:40,_ZN16hash_table_tests10test_clear11test_methodEv
FN:50,_ZN16hash_table_tests19test_load_from_file11test_methodEv
FN:50,_ZN16hash_table_testsL27test_load_from_file_invokerEv
FN:63,_ZN16hash_table_tests17test_save_to_file11test_methodEv
FN:63,_ZN16hash_table_testsL25test_save_to_file_invokerEv
FN:84,_ZN16hash_table_testsL31test_collision_handling_invokerEv
FN:84,_ZN16hash_table_tests23test_collision_handling11test_methodEv
FNDA:18,_ZN16hash_table_testsL27test_load_from_file_invokerEv
FNDA:18,_ZN16hash_table_testsL25test_save_to_file_invokerEv
FNDA:18,_ZN16hash_table_tests11test_remove11test_methodEv
FNDA:18,_ZN16hash_table_tests22test_insert_and_search11test_methodEv
FNDA:18,_ZN16hash_table_testsL25test_update_value_invokerEv
FNDA:18,_ZN16hash_table_tests17test_update_value11test_methodEv
FNDA:18,_ZN16hash_table_tests23test_collision_handling11test_methodEv
FNDA:18,_ZN16hash_table_testsL30test_insert_and_search_invokerEv
FNDA:18,_ZN16hash_table_tests10test_clear11test_methodEv
FNDA:18,_ZN16hash_table_testsL18test_clear_invokerEv
FNDA:18,_ZN16hash_table_tests17test_save_to_file11test_methodEv
FNDA:18,_ZN16hash_table_testsL19test_remove_invokerEv
FNDA:18,_ZN16hash_table_testsL31test_collision_handling_invokerEv
FNDA:18,_ZN16hash_table_tests19test_load_from_file11test_methodEv
FNF:14
FNH:14
DA:7,36
DA:8,18
DA:9,18
DA:10,18
DA:11,18
DA:13,18
DA:14,18
DA:15,18
DA:16,18
DA:17,18
DA:19,36
DA:20,18
DA:21,18
DA:22,18
DA:24,18
DA:25,18
DA:27,36
DA:28,18
DA:29,18
DA:30,18
DA:32,18
DA:33,18
DA:34,18
DA:36,18
DA:37,18
DA:38,18
DA:40,36
DA:41,18
DA:42,18
DA:43,18
DA:44,18
DA:46,18
DA:47,18
DA:48,18
DA:50,36
DA:51,18
DA:52,18
DA:53,18
DA:54,18
DA:56,18
DA:58,18
DA:59,18
DA:60,18
DA:61,18
DA:63,36
DA:64,18
DA:65,18
DA:66,18
DA:67,18
DA:68,18
DA:70,18
DA:71,18
DA:72,18
DA:74,72
DA:75,54
DA:77,18
DA:79,18
DA:80,18
DA:81,18
DA:82,18
DA:84,36
DA:85,18
DA:86,18
DA:87,18
DA:89,18
DA:90,18
DA:91,18
LF:67
LH:67
end_of_record
TN:
SF:/home/nemesis/Рабочий стол/lab3-sem3/lab3-sem3/tests_cplus/test_list.cpp
FN:8,_ZN15LinkedListTests16test_add_to_head11test_methodEv
FN:8,_ZN15LinkedListTestsL24test_add_to_head_invokerEv
FN:23,_ZN15LinkedListTests16test_add_to_tail11test_methodEv
FN:23,_ZN15LinkedListTestsL24test_add_to_tail_invokerEv
FN:37,_ZN15LinkedListTests21test_remove_from_head11test_methodEv
FN:37,_ZN15LinkedListTestsL29test_remove_from_head_invokerEv
FN:53,_ZN15LinkedListTestsL29test_remove_from_tail_invokerEv
FN:53,_ZN15LinkedListTests21test_remove_from_tail11test_methodEv
FN:69,_ZN15LinkedListTestsL28test_remove_by_value_invokerEv
FN:69,_ZN15LinkedListTests20test_remove_by_value11test_methodEv
FN:85,_ZN15LinkedListTests11test_search11test_methodEv
FN:85,_ZN15LinkedListTestsL19test_search_invokerEv
FN:101,_ZN15LinkedListTests19test_load_from_file11test_methodEv
FN:101,_ZN15LinkedListTestsL27test_load_from_file_invokerEv
FN:113,_ZN15LinkedListTests19test_upload_to_file11test_methodEv
FN:113,_ZN15LinkedListTestsL27test_upload_to_file_invokerEv
FN:132,_ZN15LinkedListTests9test_free11test_methodEv
FN:132,_ZN15LinkedListTestsL17test_free_invokerEv
FNDA:9,_ZN15LinkedListTestsL27test_load_from_file_invokerEv
FNDA:9,_ZN15LinkedListTestsL24test_add_to_head_invokerEv
FNDA:9,_ZN15LinkedListTestsL27test_upload_to_file_invokerEv
FNDA:9,_ZN15LinkedListTests21test_remove_from_tail11test_methodEv
FNDA:9,_ZN15LinkedListTestsL29test_remove_from_head_invokerEv
FNDA:9,_ZN15LinkedListTestsL29test_remove_from_tail_invokerEv
FNDA:9,_ZN15LinkedListTests11test_search11test_methodEv
FNDA:9,_ZN15LinkedListTestsL19test_search_invokerEv
FNDA:9,_ZN15LinkedListTests20test_remove_by_value11test_methodEv
FNDA:9,_ZN15LinkedListTestsL17test_free_invokerEv
FNDA:9,_ZN15LinkedListTestsL24test_add_to_tail_invokerEv
FNDA:9,_ZN15LinkedListTests16test_add_to_tail11test_methodEv
FNDA:9,_ZN15LinkedListTestsL28test_remove_by_value_invokerEv
FNDA:9,_ZN15LinkedListTests19test_upload_to_file11test_methodEv
FNDA:9,_ZN15LinkedListTests16test_add_to_head11test_methodEv
FNDA:9,_ZN15LinkedListTests19test_load_from_file11test_methodEv
FNDA:9,_ZN15LinkedListTests9test_free11test_methodEv
FNDA:9,_ZN15LinkedListTests21test_remove_from_head11test_methodEv
FNF:18
FNH:18
DA:8,18
DA:9,9
DA:10,9
DA:11,9
DA:12,9
DA:14,9
DA:15,9
DA:16,9
DA:17,9
DA:19,9
DA:20,9
DA:23,18
DA:24,9
DA:25,9
DA:26,9
DA:27,9
DA:29,9
DA:30,9
DA:31,9
DA:32,9
DA:33,9
DA:34,9
DA:37,18
DA:38,9
DA:39,9
DA:40,9
DA:41,9
DA:43,9
DA:45,9
DA:46,9
DA:47,9
DA:48,9
DA:49,9
DA:50,9
DA:53,18
DA:54,9
DA:55,9
DA:56,9
DA:57,9
DA:59,9
DA:61,9
DA:62,9
DA:63,9
DA:64,9
DA:65,9
DA:66,9
DA:69,18
DA:70,9
DA:71,9
DA:72,9
DA:73,9
DA:75,9
DA:77,9
DA:78,9
DA:79,9
DA:80,9
DA:81,9
DA:82,9
DA:85,18
DA:86,9
DA:87,9
DA:88,9
DA:89,9
DA:91,9
DA:92,9
DA:93,9
DA:94,9
DA:96,9
DA:97,9
DA:98,9
DA:101,18
DA:102,9
DA:103,9
DA:105,9
DA:106,9
DA:107,9
DA:108,9
DA:109,9
DA:110,9
DA:113,18
DA:114,9
DA:115,9
DA:116,9
DA:117,9
DA:119,9
DA:121,9
DA:122,9
DA:123,9
DA:124,9
DA:125,9
DA:126,9
DA:127,9
DA:128,9
DA:129,9
DA:132,18
DA:133,9
DA:134,9
DA:135,9
DA:136,9
DA:138,9
DA:140,9
DA:141,9
DA:142,9
DA:143,9
DA:144,9
DA:145,9
LF:106
LH:106
end_of_record
TN:
SF:/home/nemesis/Рабочий стол/lab3-sem3/lab3-sem3/tests_cplus/test_queue.cpp
FN:7,_ZN11queue_testsL21test_is_empty_invokerEv
FN:7,_ZN11queue_tests13test_is_empty11test_methodEv
FN:15,_ZN11queue_testsL21test_push_pop_invokerEv
FN:15,_ZN11queue_tests13test_push_pop11test_methodEv
FN:28,_ZN11queue_testsL22test_pop_empty_invokerEv
FN:28,_ZN11queue_tests14test_pop_empty11test_methodEv
FN:33,_ZN11queue_tests16test_print_empty11test_methodEv
FN:33,_ZN11queue_testsL24test_print_empty_invokerEv
FN:44,_ZN11queue_tests20test_print_non_empty11test_methodEv
FN:44,_ZN11queue_testsL28test_print_non_empty_invokerEv
FN:58,_ZN11queue_tests10test_clear11test_methodEv
FN:58,_ZN11queue_testsL18test_clear_invokerEv
FN:68,_ZN11queue_testsL27test_load_from_file_invokerEv
FN:68,_ZN11queue_tests19test_load_from_file11test_methodEv
FN:84,_ZN11queue_testsL25test_save_to_file_invokerEv
FN:84,_ZN11queue_tests17test_save_to_file11test_methodEv
FNDA:18,_ZN11queue_tests19test_load_from_file11test_methodEv
FNDA:18,_ZN11queue_tests14test_pop_empty11test_methodEv
FNDA:18,_ZN11queue_testsL24test_print_empty_invokerEv
FNDA:18,_ZN11queue_testsL18test_clear_invokerEv
FNDA:18,_ZN11queue_tests10test_clear11test_methodEv
FNDA:18,_ZN11queue_tests17test_save_to_file11test_methodEv
FNDA:18,_ZN11queue_testsL27test_load_from_file_invokerEv
FNDA:18,_ZN11queue_testsL22test_pop_empty_invokerEv
FNDA:18,_ZN11queue_tests13test_push_pop11test_methodEv
FNDA:18,_ZN11queue_testsL25test_save_to_file_invokerEv
FNDA:18,_ZN11queue_testsL28test_print_non_empty_invokerEv
FNDA:18,_ZN11queue_tests16test_print_empty11test_methodEv
FNDA:18,_ZN11queue_testsL21test_push_pop_invokerEv
FNDA:18,_ZN11queue_tests20test_print_non_empty11test_methodEv
FNDA:18,_ZN11queue_testsL21test_is_empty_invokerEv
FNDA:18,_ZN11queue_tests13test_is_empty11test_methodEv
FNF:16
FNH:16
DA:7,36
DA:8,18
DA:9,18
DA:11,18
DA:12,18
DA:13,18
DA:15,36
DA:16,18
DA:17,18
DA:18,18
DA:19,18
DA:21,18
DA:22,18
DA:23,18
DA:25,18
DA:26,18
DA:28,36
DA:29,18
DA:30,18
DA:31,18
DA:33,36
DA:34,18
DA:35,18
DA:36,18
DA:38,18
DA:40,18
DA:41,18
DA:42,18
DA:44,36
DA:45,18
DA:46,18
DA:47,18
DA:49,18
DA:50,18
DA:52,18
DA:54,18
DA:55,18
DA:56,18
DA:58,36
DA:59,18
DA:60,18
DA:61,18
DA:62,18
DA:64,18
DA:65,18
DA:66,18
DA:68,36
DA:69,18
DA:72,18
DA:73,18
DA:74,18
DA:76,18
DA:78,18
DA:79,18
DA:80,18
DA:81,18
DA:82,18
DA:84,36
DA:85,18
DA:86,18
DA:87,18
DA:88,18
DA:90,18
DA:93,18
DA:94,18
DA:95,18
DA:96,18
DA:97,18
DA:98,18
DA:99,18
LF:70
LH:70
end_of_record
TN:
SF:/home/nemesis/Рабочий стол/lab3-sem3/lab3-sem3/tests_cplus/test_stack.cpp
FN:8,_ZN11stack_tests13test_push_pop11test_methodEv
FN:8,_ZN11stack_testsL21test_push_pop_invokerEv
FN:21,_ZN11stack_testsL33test_is_empty_after_clear_invokerEv
FN:21,_ZN11stack_tests25test_is_empty_after_clear11test_methodEv
FN:30,_ZN11stack_tests22test_print_empty_stack11test_methodEv
FN:30,_ZN11stack_testsL30test_print_empty_stack_invokerEv
FN:43,_ZN11stack_tests26test_print_non_empty_stack11test_methodEv
FN:43,_ZN11stack_testsL34test_print_non_empty_stack_invokerEv
FN:60,_ZN11stack_tests19test_load_from_file11test_methodEv
FN:60,_ZN11stack_testsL27test_load_from_file_invokerEv
FN:78,_ZN11stack_tests17test_save_to_file11test_methodEv
FN:78,_ZN11stack_testsL25test_save_to_file_invokerEv
FN:105,_ZN11stack_tests10test_clear11test_methodEv
FN:105,_ZN11stack_testsL18test_clear_invokerEv
FN:116,_ZN11stack_tests26test_load_nonexistent_file11test_methodEv
FN:116,_ZN11stack_testsL34test_load_nonexistent_file_invokerEv
FN:129,_ZN11stack_tests25test_save_to_invalid_path11test_methodEv
FN:129,_ZN11stack_testsL33test_save_to_invalid_path_invokerEv
FNDA:18,_ZN11stack_testsL30test_print_empty_stack_invokerEv
FNDA:18,_ZN11stack_testsL33test_is_empty_after_clear_invokerEv
FNDA:18,_ZN11stack_tests25test_is_empty_after_clear11test_methodEv
FNDA:18,_ZN11stack_testsL21test_push_pop_invokerEv
FNDA:18,_ZN11stack_testsL33test_save_to_invalid_path_invokerEv
FNDA:18,_ZN11stack_testsL34test_print_non_empty_stack_invokerEv
FNDA:18,_ZN11stack_testsL25test_save_to_file_invokerEv
FNDA:18,_ZN11stack_tests25test_save_to_invalid_path11test_methodEv
FNDA:18,_ZN11stack_testsL34test_load_nonexistent_file_invokerEv
FNDA:18,_ZN11stack_tests19test_load_from_file11test_methodEv
FNDA:18,_ZN11stack_testsL27test_load_from_file_invokerEv
FNDA:18,_ZN11stack_tests26test_load_nonexistent_file11test_methodEv
FNDA:18,_ZN11stack_testsL18test_clear_invokerEv
FNDA:18,_ZN11stack_tests26test_print_non_empty_stack11test_methodEv
FNDA:18,_ZN11stack_tests13test_push_pop11test_methodEv
FNDA:18,_ZN11stack_tests17test_save_to_file11test_methodEv
FNDA:18,_ZN11stack_tests10test_clear11test_methodEv
FNDA:18,_ZN11stack_tests22test_print_empty_stack11test_methodEv
FNF:18
FNH:18
DA:8,36
DA:9,18
DA:11,18
DA:12,18
DA:13,18
DA:15,18
DA:16,18
DA:17,18
DA:18,18
DA:19,18
DA:21,36
DA:22,18
DA:24,18
DA:25,18
DA:26,18
DA:27,18
DA:28,18
DA:30,36
DA:31,18
DA:33,18
DA:34,18
DA:35,18
DA:37,18
DA:38,18
DA:40,18
DA:41,18
DA:43,36
DA:44,18
DA:46,18
DA:47,18
DA:48,18
DA:50,18
DA:51,18
DA:52,18
DA:54,18
DA:55,18
DA:57,18
DA:58,18
DA:60,36
DA:61,18
DA:63,18
DA:64,18
DA:65,18
DA:66,18
DA:68,18
DA:69,18
DA:70,18
DA:71,18
DA:72,18
DA:73,18
DA:75,18
DA:76,18
DA:78,36
DA:79,18
DA:80,18
DA:81,18
DA:82,18
DA:84,18
DA:85,18
DA:87,18
DA:88,18
DA:90,18
DA:91,18
DA:92,72
DA:93,54
DA:95,18
DA:97,18
DA:98,18
DA:99,18
DA:100,18
DA:102,18
DA:103,18
DA:105,36
DA:106,18
DA:108,18
DA:109,18
DA:110,18
DA:111,18
DA:112,18
DA:113,18
DA:114,18
DA:116,36
DA:117,18
DA:119,18
DA:120,18
DA:121,18
DA:123,18
DA:124,18
DA:126,18
DA:127,18
DA:129,36
DA:130,18
DA:131,18
DA:133,18
DA:134,18
DA:135,18
DA:137,18
DA:138,18
DA:140,18
DA:141,18
LF:100
LH:100
end_of_record
TN:
SF:/home/nemesis/Рабочий стол/lab3-sem3/lab3-sem3/tests_cplus/test_tree.cpp
FN:7,_ZN17binary_tree_testsL28test_push_and_search_invokerEv
FN:7,_ZN17binary_tree_tests20test_push_and_search11test_methodEv
FN:19,_ZN17binary_tree_testsL27test_tree_structure_invokerEv
FN:19,_ZN17binary_tree_tests19test_tree_structure11test_methodEv
FN:30,_ZN17binary_tree_testsL18test_clear_invokerEv
FN:30,_ZN17binary_tree_tests10test_clear11test_methodEv
FN:43,_ZN17binary_tree_tests19test_load_from_file11test_methodEv
FN:43,_ZN17binary_tree_testsL27test_load_from_file_invokerEv
FN:59,_ZN17binary_tree_tests19test_upload_to_file11test_methodEv
FN:59,_ZN17binary_tree_testsL27test_upload_to_file_invokerEv
FN:79,_ZN17binary_tree_tests28test_is_complete_and_is_full11test_methodEv
FN:79,_ZN17binary_tree_testsL36test_is_complete_and_is_full_invokerEv
FNDA:18,_ZN17binary_tree_tests20test_push_and_search11test_methodEv
FNDA:18,_ZN17binary_tree_tests10test_clear11test_methodEv
FNDA:18,_ZN17binary_tree_testsL27test_load_from_file_invokerEv
FNDA:18,_ZN17binary_tree_tests19test_tree_structure11test_methodEv
FNDA:18,_ZN17binary_tree_testsL27test_tree_structure_invokerEv
FNDA:18,_ZN17binary_tree_tests19test_load_from_file11test_methodEv
FNDA:18,_ZN17binary_tree_testsL18test_clear_invokerEv
FNDA:18,_ZN17binary_tree_testsL27test_upload_to_file_invokerEv
FNDA:18,_ZN17binary_tree_tests28test_is_complete_and_is_full11test_methodEv
FNDA:18,_ZN17binary_tree_testsL28test_push_and_search_invokerEv
FNDA:18,_ZN17binary_tree_testsL36test_is_complete_and_is_full_invokerEv
FNDA:18,_ZN17binary_tree_tests19test_upload_to_file11test_methodEv
FNF:12
FNH:12
DA:7,36
DA:8,18
DA:9,18
DA:10,18
DA:11,18
DA:13,18
DA:14,18
DA:15,18
DA:16,18
DA:17,18
DA:19,36
DA:20,18
DA:21,18
DA:22,18
DA:23,18
DA:24,18
DA:26,18
DA:27,18
DA:28,18
DA:30,36
DA:31,18
DA:32,18
DA:33,18
DA:34,18
DA:36,18
DA:38,18
DA:39,18
DA:40,18
DA:41,18
DA:43,36
DA:44,18
DA:46,18
DA:47,18
DA:48,18
DA:50,18
DA:52,18
DA:53,18
DA:54,18
DA:55,18
DA:56,18
DA:57,18
DA:59,36
DA:60,18
DA:61,18
DA:62,18
DA:63,18
DA:65,18
DA:67,18
DA:68,18
DA:70,72
DA:71,54
DA:73,18
DA:75,36
DA:76,18
DA:77,18
DA:79,36
DA:80,18
DA:81,18
DA:82,18
DA:83,18
DA:85,18
DA:86,18
DA:88,18
DA:89,18
DA:90,18
DA:91,18
LF:66
LH:66
end_of_record
