TN:
SF:/home/nemesis/Рабочий стол/lab3-sem3/lab3-sem3/cplus/dlist.cpp
FN:7,_ZN16DoublyLinkedListC2Ev
FNDA:22,_ZN16DoublyLinkedListC2Ev
FN:9,_ZN16DoublyLinkedListD2Ev
FNDA:22,_ZN16DoublyLinkedListD2Ev
FN:13,_ZN16DoublyLinkedList11add_to_headERKNSt7__cxx1112basic_stringIcSt11char_traitsIcESaIcEEE
FNDA:40,_ZN16DoublyLinkedList11add_to_headERKNSt7__cxx1112basic_stringIcSt11char_traitsIcESaIcEEE
FN:27,_ZN16DoublyLinkedList11add_to_tailERKNSt7__cxx1112basic_stringIcSt11char_traitsIcESaIcEEE
FNDA:16,_ZN16DoublyLinkedList11add_to_tailERKNSt7__cxx1112basic_stringIcSt11char_traitsIcESaIcEEE
FN:43,_ZN16DoublyLinkedList16remove_from_headEv
FNDA:50,_ZN16DoublyLinkedList16remove_from_headEv
FN:59,_ZN16DoublyLinkedList16remove_from_tailEv
FNDA:4,_ZN16DoublyLinkedList16remove_from_tailEv
FN:78,_ZN16DoublyLinkedList15remove_by_valueERKNSt7__cxx1112basic_stringIcSt11char_traitsIcESaIcEEE
FNDA:2,_ZN16DoublyLinkedList15remove_by_valueERKNSt7__cxx1112basic_stringIcSt11char_traitsIcESaIcEEE
FN:112,_ZNK16DoublyLinkedList6searchERKNSt7__cxx1112basic_stringIcSt11char_traitsIcESaIcEEERi
FNDA:4,_ZNK16DoublyLinkedList6searchERKNSt7__cxx1112basic_stringIcSt11char_traitsIcESaIcEEERi
FN:125,_ZNK16DoublyLinkedList5printEv
FNDA:14,_ZNK16DoublyLinkedList5printEv
FN:134,_ZN16DoublyLinkedList4freeEv
FNDA:28,_ZN16DoublyLinkedList4freeEv
FN:140,_ZN16DoublyLinkedList14load_from_fileERKNSt7__cxx1112basic_stringIcSt11char_traitsIcESaIcEEE
FNDA:4,_ZN16DoublyLinkedList14load_from_fileERKNSt7__cxx1112basic_stringIcSt11char_traitsIcESaIcEEE
FN:156,_ZNK16DoublyLinkedList14upload_to_fileERKNSt7__cxx1112basic_stringIcSt11char_traitsIcESaIcEEE
FNDA:2,_ZNK16DoublyLinkedList14upload_to_fileERKNSt7__cxx1112basic_stringIcSt11char_traitsIcESaIcEEE
DA:7,22
DA:9,22
DA:10,22
DA:11,22
DA:13,40
DA:14,40
DA:15,40
DA:16,40
DA:17,40
DA:19,40
DA:20,24
DA:22,16
DA:24,40
DA:25,40
DA:27,16
DA:28,16
DA:29,16
DA:30,16
DA:32,16
DA:33,4
DA:34,4
DA:35,4
DA:37,12
DA:38,12
DA:39,12
DA:41,16
DA:43,50
DA:44,50
DA:45,0
DA:47,50
DA:48,50
DA:50,50
DA:51,32
DA:53,18
DA:56,50
DA:59,4
DA:60,4
DA:61,0
DA:64,4
DA:65,2
DA:66,2
DA:67,2
DA:68,2
DA:71,2
DA:72,2
DA:73,2
DA:75,2
DA:78,2
DA:79,2
DA:80,0
DA:84,2
DA:85,0
DA:86,0
DA:89,2
DA:92,4
DA:93,2
DA:97,2
DA:98,2
DA:99,0
DA:101,2
DA:104,2
DA:105,2
DA:108,2
DA:112,4
DA:113,4
DA:114,4
DA:115,12
DA:116,10
DA:117,2
DA:119,8
DA:120,8
DA:122,2
DA:125,14
DA:126,14
DA:127,38
DA:128,24
DA:129,24
DA:131,14
DA:132,14
DA:134,28
DA:135,76
DA:136,48
DA:138,28
DA:140,4
DA:141,4
DA:142,4
DA:143,4
DA:144,2
DA:145,2
DA:148,2
DA:149,8
DA:150,6
DA:153,2
DA:154,4
DA:156,2
DA:157,2
DA:158,2
DA:159,0
DA:160,0
DA:163,2
DA:164,8
DA:165,6
DA:166,6
DA:169,2
DA:170,2
end_of_record
SF:/usr/include/c++/11/iostream
end_of_record
SF:/usr/include/c++/11/bits/basic_string.h
FN:6234,_ZSteqIcEN9__gnu_cxx11__enable_ifIXsrSt9__is_charIT_E7__valueEbE6__typeERKNSt7__cxx1112basic_stringIS3_St11char_traitsIS3_ESaIS3_EEESE_
FNDA:16,_ZSteqIcEN9__gnu_cxx11__enable_ifIXsrSt9__is_charIT_E7__valueEbE6__typeERKNSt7__cxx1112basic_stringIS3_St11char_traitsIS3_ESaIS3_EEESE_
FN:6302,_ZStneIcSt11char_traitsIcESaIcEEbRKNSt7__cxx1112basic_stringIT_T0_T1_EESA_
FNDA:4,_ZStneIcSt11char_traitsIcESaIcEEbRKNSt7__cxx1112basic_stringIT_T0_T1_EESA_
DA:6234,16
DA:6236,16
DA:6237,16
DA:6238,16
DA:6302,4
DA:6305,4
end_of_record
SF:/usr/include/c++/11/ext/new_allocator.h
FN:79,_ZN9__gnu_cxx13new_allocatorIcEC2Ev
FNDA:0,_ZN9__gnu_cxx13new_allocatorIcEC2Ev
FN:89,_ZN9__gnu_cxx13new_allocatorIcED2Ev
FNDA:0,_ZN9__gnu_cxx13new_allocatorIcED2Ev
DA:79,0
DA:89,0
end_of_record
SF:/usr/include/c++/11/bits/move.h
FN:104,_ZSt4moveIRSaIcEEONSt16remove_referenceIT_E4typeEOS3_
FNDA:0,_ZSt4moveIRSaIcEEONSt16remove_referenceIT_E4typeEOS3_
DA:104,0
DA:105,0
end_of_record
SF:/usr/include/c++/11/bits/char_traits.h
FN:364,_ZNSt11char_traitsIcE2ltERKcS2_
FNDA:0,_ZNSt11char_traitsIcE2ltERKcS2_
FN:372,_ZNSt11char_traitsIcE7compareEPKcS2_m
FNDA:16,_ZNSt11char_traitsIcE7compareEPKcS2_m
DA:364,0
DA:367,0
DA:368,0
DA:372,16
DA:374,16
DA:375,0
DA:377,16
DA:379,16
DA:381,0
DA:382,0
DA:383,0
DA:384,0
DA:385,0
DA:386,0
DA:389,16
end_of_record
SF:/home/nemesis/Рабочий стол/lab3-sem3/lab3-sem3/cplus/header.h
end_of_record
TN:
SF:/usr/include/boost/type_traits/integral_constant.hpp
FN:80,_ZNK5boost17integral_constantIbLb0EEcvRKN4mpl_5bool_ILb0EEEEv
FNDA:14,_ZNK5boost17integral_constantIbLb0EEcvRKN4mpl_5bool_ILb0EEEEv
DA:80,14
DA:84,14
end_of_record
SF:/usr/include/boost/test/utils/lazy_ostream.hpp
FN:33,_ZN5boost9unit_test12lazy_ostreamD2Ev
FNDA:47,_ZN5boost9unit_test12lazy_ostreamD2Ev
FN:33,_ZN5boost9unit_test12lazy_ostreamD0Ev
FNDA:0,_ZN5boost9unit_test12lazy_ostreamD0Ev
FN:35,_ZN5boost9unit_test12lazy_ostream8instanceEv
FNDA:47,_ZN5boost9unit_test12lazy_ostream8instanceEv
FN:51,_ZNK5boost9unit_test12lazy_ostreamclERSo
FNDA:0,_ZNK5boost9unit_test12lazy_ostreamclERSo
FN:53,_ZN5boost9unit_test12lazy_ostreamC2Eb
FNDA:47,_ZN5boost9unit_test12lazy_ostreamC2Eb
FN:72,_ZN5boost9unit_test17lazy_ostream_implINS0_12lazy_ostreamEA1_cRA1_KcEC2ERKS2_S6_
FNDA:14,_ZN5boost9unit_test17lazy_ostream_implINS0_12lazy_ostreamEA1_cRA1_KcEC2ERKS2_S6_
FN:72,_ZN5boost9unit_test17lazy_ostream_implINS0_12lazy_ostreamENS_10test_tools9tt_detail14print_helper_tIA2_cEERKS7_EC2ERKS2_S9_
FNDA:5,_ZN5boost9unit_test17lazy_ostream_implINS0_12lazy_ostreamENS_10test_tools9tt_detail14print_helper_tIA2_cEERKS7_EC2ERKS2_S9_
FN:72,_ZN5boost9unit_test17lazy_ostream_implINS0_12lazy_ostreamENS_10test_tools9tt_detail14print_helper_tIiEERKS6_EC2ERKS2_S8_
FNDA:2,_ZN5boost9unit_test17lazy_ostream_implINS0_12lazy_ostreamENS_10test_tools9tt_detail14print_helper_tIiEERKS6_EC2ERKS2_S8_
FN:72,_ZN5boost9unit_test17lazy_ostream_implINS0_12lazy_ostreamENS_10test_tools9tt_detail14print_helper_tIA6_cEERKS7_EC2ERKS2_S9_
FNDA:6,_ZN5boost9unit_test17lazy_ostream_implINS0_12lazy_ostreamENS_10test_tools9tt_detail14print_helper_tIA6_cEERKS7_EC2ERKS2_S9_
FN:72,_ZN5boost9unit_test17lazy_ostream_implINS0_12lazy_ostreamENS_10test_tools9tt_detail14print_helper_tIA8_cEERKS7_EC2ERKS2_S9_
FNDA:2,_ZN5boost9unit_test17lazy_ostream_implINS0_12lazy_ostreamENS_10test_tools9tt_detail14print_helper_tIA8_cEERKS7_EC2ERKS2_S9_
FN:72,_ZN5boost9unit_test17lazy_ostream_implINS0_12lazy_ostreamENS_10test_tools9tt_detail14print_helper_tINSt7__cxx1112basic_stringIcSt11char_traitsIcESaIcEEEEERKSC_EC2ERKS2_SE_
FNDA:13,_ZN5boost9unit_test17lazy_ostream_implINS0_12lazy_ostreamENS_10test_tools9tt_detail14print_helper_tINSt7__cxx1112basic_stringIcSt11char_traitsIcESaIcEEEEERKSC_EC2ERKS2_SE_
FN:72,_ZN5boost9unit_test17lazy_ostream_implINS0_12lazy_ostreamENS0_13basic_cstringIKcEERKS5_EC2ERKS2_S7_
FNDA:5,_ZN5boost9unit_test17lazy_ostream_implINS0_12lazy_ostreamENS0_13basic_cstringIKcEERKS5_EC2ERKS2_S7_
FN:79,_ZNK5boost9unit_test17lazy_ostream_implINS0_12lazy_ostreamENS0_13basic_cstringIKcEERKS5_EclERSo
FNDA:0,_ZNK5boost9unit_test17lazy_ostream_implINS0_12lazy_ostreamENS0_13basic_cstringIKcEERKS5_EclERSo
FN:79,_ZNK5boost9unit_test17lazy_ostream_implINS0_12lazy_ostreamENS_10test_tools9tt_detail14print_helper_tIA2_cEERKS7_EclERSo
FNDA:0,_ZNK5boost9unit_test17lazy_ostream_implINS0_12lazy_ostreamENS_10test_tools9tt_detail14print_helper_tIA2_cEERKS7_EclERSo
FN:79,_ZNK5boost9unit_test17lazy_ostream_implINS0_12lazy_ostreamENS_10test_tools9tt_detail14print_helper_tIiEERKS6_EclERSo
FNDA:0,_ZNK5boost9unit_test17lazy_ostream_implINS0_12lazy_ostreamENS_10test_tools9tt_detail14print_helper_tIiEERKS6_EclERSo
FN:79,_ZNK5boost9unit_test17lazy_ostream_implINS0_12lazy_ostreamENS_10test_tools9tt_detail14print_helper_tIA6_cEERKS7_EclERSo
FNDA:0,_ZNK5boost9unit_test17lazy_ostream_implINS0_12lazy_ostreamENS_10test_tools9tt_detail14print_helper_tIA6_cEERKS7_EclERSo
FN:79,_ZNK5boost9unit_test17lazy_ostream_implINS0_12lazy_ostreamENS_10test_tools9tt_detail14print_helper_tIA8_cEERKS7_EclERSo
FNDA:0,_ZNK5boost9unit_test17lazy_ostream_implINS0_12lazy_ostreamENS_10test_tools9tt_detail14print_helper_tIA8_cEERKS7_EclERSo
FN:79,_ZNK5boost9unit_test17lazy_ostream_implINS0_12lazy_ostreamENS_10test_tools9tt_detail14print_helper_tINSt7__cxx1112basic_stringIcSt11char_traitsIcESaIcEEEEERKSC_EclERSo
FNDA:0,_ZNK5boost9unit_test17lazy_ostream_implINS0_12lazy_ostreamENS_10test_tools9tt_detail14print_helper_tINSt7__cxx1112basic_stringIcSt11char_traitsIcESaIcEEEEERKSC_EclERSo
FN:79,_ZNK5boost9unit_test17lazy_ostream_implINS0_12lazy_ostreamEA1_cRA1_KcEclERSo
FNDA:0,_ZNK5boost9unit_test17lazy_ostream_implINS0_12lazy_ostreamEA1_cRA1_KcEclERSo
FN:93,_ZN5boost9unit_testlsINS_10test_tools9tt_detail14print_helper_tIiEEEENS0_17lazy_ostream_implINS0_12lazy_ostreamET_RKS8_EERKS7_SA_
FNDA:2,_ZN5boost9unit_testlsINS_10test_tools9tt_detail14print_helper_tIiEEEENS0_17lazy_ostream_implINS0_12lazy_ostreamET_RKS8_EERKS7_SA_
FN:93,_ZN5boost9unit_testlsINS_10test_tools9tt_detail14print_helper_tIA2_cEEEENS0_17lazy_ostream_implINS0_12lazy_ostreamET_RKS9_EERKS8_SB_
FNDA:5,_ZN5boost9unit_testlsINS_10test_tools9tt_detail14print_helper_tIA2_cEEEENS0_17lazy_ostream_implINS0_12lazy_ostreamET_RKS9_EERKS8_SB_
FN:93,_ZN5boost9unit_testlsINS_10test_tools9tt_detail14print_helper_tIA6_cEEEENS0_17lazy_ostream_implINS0_12lazy_ostreamET_RKS9_EERKS8_SB_
FNDA:6,_ZN5boost9unit_testlsINS_10test_tools9tt_detail14print_helper_tIA6_cEEEENS0_17lazy_ostream_implINS0_12lazy_ostreamET_RKS9_EERKS8_SB_
FN:93,_ZN5boost9unit_testlsINS_10test_tools9tt_detail14print_helper_tIA8_cEEEENS0_17lazy_ostream_implINS0_12lazy_ostreamET_RKS9_EERKS8_SB_
FNDA:2,_ZN5boost9unit_testlsINS_10test_tools9tt_detail14print_helper_tIA8_cEEEENS0_17lazy_ostream_implINS0_12lazy_ostreamET_RKS9_EERKS8_SB_
FN:93,_ZN5boost9unit_testlsINS_10test_tools9tt_detail14print_helper_tINSt7__cxx1112basic_stringIcSt11char_traitsIcESaIcEEEEEEENS0_17lazy_ostream_implINS0_12lazy_ostreamET_RKSE_EERKSD_SG_
FNDA:13,_ZN5boost9unit_testlsINS_10test_tools9tt_detail14print_helper_tINSt7__cxx1112basic_stringIcSt11char_traitsIcESaIcEEEEEEENS0_17lazy_ostream_implINS0_12lazy_ostreamET_RKSE_EERKSD_SG_
FN:93,_ZN5boost9unit_testlsINS0_13basic_cstringIKcEEEENS0_17lazy_ostream_implINS0_12lazy_ostreamET_RKS7_EERKS6_S9_
FNDA:5,_ZN5boost9unit_testlsINS0_13basic_cstringIKcEEEENS0_17lazy_ostream_implINS0_12lazy_ostreamET_RKS7_EERKS6_S9_
FN:93,_ZN5boost9unit_testlsIA1_cEENS0_17lazy_ostream_implINS0_12lazy_ostreamET_RKS5_EERKS4_S7_
FNDA:14,_ZN5boost9unit_testlsIA1_cEENS0_17lazy_ostream_implINS0_12lazy_ostreamET_RKS5_EERKS4_S7_
DA:33,0
DA:33,47
DA:35,47
DA:51,0
DA:53,47
DA:72,5
DA:74,5
DA:75,5
DA:77,5
DA:72,2
DA:74,2
DA:75,2
DA:77,2
DA:72,6
DA:74,6
DA:75,6
DA:77,6
DA:72,2
DA:74,2
DA:75,2
DA:77,2
DA:72,13
DA:74,13
DA:75,13
DA:77,13
DA:72,5
DA:74,5
DA:75,5
DA:77,5
DA:72,14
DA:74,14
DA:75,14
DA:77,14
DA:79,0
DA:81,0
DA:79,0
DA:81,0
DA:79,0
DA:81,0
DA:79,0
DA:81,0
DA:79,0
DA:81,0
DA:79,0
DA:81,0
DA:79,0
DA:81,0
DA:93,5
DA:95,5
DA:93,2
DA:95,2
DA:93,6
DA:95,6
DA:93,2
DA:95,2
DA:93,13
DA:95,13
DA:93,5
DA:95,5
DA:93,14
DA:95,14
end_of_record
SF:/usr/include/c++/11/bits/move.h
FN:104,_ZSt4moveIRSaIcEEONSt16remove_referenceIT_E4typeEOS3_
FNDA:0,_ZSt4moveIRSaIcEEONSt16remove_referenceIT_E4typeEOS3_
DA:104,0
DA:105,0
end_of_record
SF:/usr/include/boost/test/utils/basic_cstring/bcs_char_traits.hpp
FN:60,_ZN5boost9unit_test9ut_detail20bcs_char_traits_implIKcE2eqEcc
FNDA:1280,_ZN5boost9unit_test9ut_detail20bcs_char_traits_implIKcE2eqEcc
FN:82,_ZN5boost9unit_test9ut_detail20bcs_char_traits_implIKcE6lengthEPS3_
FNDA:25,_ZN5boost9unit_test9ut_detail20bcs_char_traits_implIKcE6lengthEPS3_
FN:93,_ZN5boost9unit_test9ut_detail20bcs_char_traits_implIKcE4findEPS3_mc
FNDA:2,_ZN5boost9unit_test9ut_detail20bcs_char_traits_implIKcE4findEPS3_mc
DA:60,1280
DA:62,1280
DA:82,25
DA:84,25
DA:86,25
DA:87,1278
DA:88,1253
DA:90,25
DA:93,2
DA:95,4
DA:96,2
DA:97,0
DA:99,2
DA:100,2
DA:102,2
end_of_record
SF:/usr/include/boost/type_index.hpp
FN:211,_ZN5boost9typeindex7type_idIPFvvEEENS0_14stl_type_indexEv
FNDA:0,_ZN5boost9typeindex7type_idIPFvvEEENS0_14stl_type_indexEv
DA:211,0
DA:212,0
end_of_record
SF:/usr/include/boost/type_index/type_index_facade.hpp
FN:154,_ZN5boost9typeindexeqINS0_14stl_type_indexESt9type_infoEEbRKNS0_17type_index_facadeIT_T0_EES9_
FNDA:0,_ZN5boost9typeindexeqINS0_14stl_type_indexESt9type_infoEEbRKNS0_17type_index_facadeIT_T0_EES9_
FN:187,_ZN5boost9typeindexeqINS0_14stl_type_indexESt9type_infoEEbRKT0_RKNS0_17type_index_facadeIT_S4_EE
FNDA:0,_ZN5boost9typeindexeqINS0_14stl_type_indexESt9type_infoEEbRKT0_RKNS0_17type_index_facadeIT_S4_EE
DA:154,0
DA:155,0
DA:187,0
DA:188,0
end_of_record
SF:/usr/include/boost/test/utils/basic_cstring/io.hpp
FN:51,_ZN5boost9unit_testlsIcSt11char_traitsIcEKcEERSt13basic_ostreamIT_T0_ES9_RKNS0_13basic_cstringIT1_EE
FNDA:0,_ZN5boost9unit_testlsIcSt11char_traitsIcEKcEERSt13basic_ostreamIT_T0_ES9_RKNS0_13basic_cstringIT1_EE
DA:51,0
DA:53,0
DA:54,0
DA:55,0
DA:57,0
end_of_record
SF:/usr/include/boost/test/tools/detail/fwd.hpp
FN:45,_ZN5boost10test_tools9tt_detail10dummy_condEv
FNDA:19,_ZN5boost10test_tools9tt_detail10dummy_condEv
DA:45,19
end_of_record
SF:/usr/include/boost/test/utils/class_properties.hpp
FN:54,_ZN5boost9unit_test14class_propertyIbEC2Eb
FNDA:19,_ZN5boost9unit_test14class_propertyIbEC2Eb
FN:131,_ZN5boost9unit_test17readonly_propertyIbEC2Eb
FNDA:19,_ZN5boost9unit_test17readonly_propertyIbEC2Eb
DA:54,19
DA:55,19
DA:131,19
end_of_record
SF:/usr/include/c++/11/bits/basic_string.h
FN:251,_ZNSt7__cxx1112basic_stringIcSt11char_traitsIcESaIcEE16_M_construct_auxIPKcEEvT_S8_St12__false_type
FNDA:0,_ZNSt7__cxx1112basic_stringIcSt11char_traitsIcESaIcEE16_M_construct_auxIPKcEEvT_S8_St12__false_type
FN:271,_ZNSt7__cxx1112basic_stringIcSt11char_traitsIcESaIcEE12_M_constructIPKcEEvT_S8_
FNDA:0,_ZNSt7__cxx1112basic_stringIcSt11char_traitsIcESaIcEE12_M_constructIPKcEEvT_S8_
FN:533,_ZNSt7__cxx1112basic_stringIcSt11char_traitsIcESaIcEEC2IS3_EEPKcRKS3_
FNDA:31,_ZNSt7__cxx1112basic_stringIcSt11char_traitsIcESaIcEEC2IS3_EEPKcRKS3_
FN:6248,_ZSteqIcSt11char_traitsIcESaIcEEbRKNSt7__cxx1112basic_stringIT_T0_T1_EEPKS5_
FNDA:13,_ZSteqIcSt11char_traitsIcESaIcEEbRKNSt7__cxx1112basic_stringIT_T0_T1_EEPKS5_
DA:251,0
DA:255,0
DA:256,0
DA:271,0
DA:274,0
DA:275,0
DA:533,31
DA:534,31
DA:536,31
DA:539,31
DA:540,31
DA:6248,13
DA:6250,13
end_of_record
SF:/usr/include/boost/test/tools/old/impl.hpp
FN:92,_ZN5boost10test_tools9tt_detail10check_frwdINS1_15equal_impl_frwdENSt7__cxx1112basic_stringIcSt11char_traitsIcESaIcEEEA2_cEEbT_RKNS_9unit_test12lazy_ostreamENSC_13basic_cstringIKcEEmNS1_10tool_levelENS1_10check_typeERKT0_PSH_RKT1_SO_
FNDA:5,_ZN5boost10test_tools9tt_detail10check_frwdINS1_15equal_impl_frwdENSt7__cxx1112basic_stringIcSt11char_traitsIcESaIcEEEA2_cEEbT_RKNS_9unit_test12lazy_ostreamENSC_13basic_cstringIKcEEmNS1_10tool_levelENS1_10check_typeERKT0_PSH_RKT1_SO_
FN:92,_ZN5boost10test_tools9tt_detail10check_frwdINS1_15equal_impl_frwdEiiEEbT_RKNS_9unit_test12lazy_ostreamENS5_13basic_cstringIKcEEmNS1_10tool_levelENS1_10check_typeERKT0_PSA_RKT1_SH_
FNDA:1,_ZN5boost10test_tools9tt_detail10check_frwdINS1_15equal_impl_frwdEiiEEbT_RKNS_9unit_test12lazy_ostreamENS5_13basic_cstringIKcEEmNS1_10tool_levelENS1_10check_typeERKT0_PSA_RKT1_SH_
FN:92,_ZN5boost10test_tools9tt_detail10check_frwdINS1_15equal_impl_frwdENSt7__cxx1112basic_stringIcSt11char_traitsIcESaIcEEEA6_cEEbT_RKNS_9unit_test12lazy_ostreamENSC_13basic_cstringIKcEEmNS1_10tool_levelENS1_10check_typeERKT0_PSH_RKT1_SO_
FNDA:6,_ZN5boost10test_tools9tt_detail10check_frwdINS1_15equal_impl_frwdENSt7__cxx1112basic_stringIcSt11char_traitsIcESaIcEEEA6_cEEbT_RKNS_9unit_test12lazy_ostreamENSC_13basic_cstringIKcEEmNS1_10tool_levelENS1_10check_typeERKT0_PSH_RKT1_SO_
FN:92,_ZN5boost10test_tools9tt_detail10check_frwdINS1_15equal_impl_frwdENSt7__cxx1112basic_stringIcSt11char_traitsIcESaIcEEEA8_cEEbT_RKNS_9unit_test12lazy_ostreamENSC_13basic_cstringIKcEEmNS1_10tool_levelENS1_10check_typeERKT0_PSH_RKT1_SO_
FNDA:2,_ZN5boost10test_tools9tt_detail10check_frwdINS1_15equal_impl_frwdENSt7__cxx1112basic_stringIcSt11char_traitsIcESaIcEEEA8_cEEbT_RKNS_9unit_test12lazy_ostreamENSC_13basic_cstringIKcEEmNS1_10tool_levelENS1_10check_typeERKT0_PSH_RKT1_SO_
FN:105,_ZN5boost10test_tools9tt_detail10equal_implINSt7__cxx1112basic_stringIcSt11char_traitsIcESaIcEEEA2_cEENS0_16assertion_resultERKT_RKT0_
FNDA:5,_ZN5boost10test_tools9tt_detail10equal_implINSt7__cxx1112basic_stringIcSt11char_traitsIcESaIcEEEA2_cEENS0_16assertion_resultERKT_RKT0_
FN:105,_ZN5boost10test_tools9tt_detail10equal_implIiiEENS0_16assertion_resultERKT_RKT0_
FNDA:1,_ZN5boost10test_tools9tt_detail10equal_implIiiEENS0_16assertion_resultERKT_RKT0_
FN:105,_ZN5boost10test_tools9tt_detail10equal_implINSt7__cxx1112basic_stringIcSt11char_traitsIcESaIcEEEA6_cEENS0_16assertion_resultERKT_RKT0_
FNDA:6,_ZN5boost10test_tools9tt_detail10equal_implINSt7__cxx1112basic_stringIcSt11char_traitsIcESaIcEEEA6_cEENS0_16assertion_resultERKT_RKT0_
FN:105,_ZN5boost10test_tools9tt_detail10equal_implINSt7__cxx1112basic_stringIcSt11char_traitsIcESaIcEEEA8_cEENS0_16assertion_resultERKT_RKT0_
FNDA:2,_ZN5boost10test_tools9tt_detail10equal_implINSt7__cxx1112basic_stringIcSt11char_traitsIcESaIcEEEA8_cEENS0_16assertion_resultERKT_RKT0_
FN:128,_ZNK5boost10test_tools9tt_detail15equal_impl_frwd9call_implINSt7__cxx1112basic_stringIcSt11char_traitsIcESaIcEEEA2_cEENS0_16assertion_resultERKT_RKT0_N4mpl_5bool_ILb0EEE
FNDA:5,_ZNK5boost10test_tools9tt_detail15equal_impl_frwd9call_implINSt7__cxx1112basic_stringIcSt11char_traitsIcESaIcEEEA2_cEENS0_16assertion_resultERKT_RKT0_N4mpl_5bool_ILb0EEE
FN:128,_ZNK5boost10test_tools9tt_detail15equal_impl_frwd9call_implIiiEENS0_16assertion_resultERKT_RKT0_N4mpl_5bool_ILb0EEE
FNDA:1,_ZNK5boost10test_tools9tt_detail15equal_impl_frwd9call_implIiiEENS0_16assertion_resultERKT_RKT0_N4mpl_5bool_ILb0EEE
FN:128,_ZNK5boost10test_tools9tt_detail15equal_impl_frwd9call_implINSt7__cxx1112basic_stringIcSt11char_traitsIcESaIcEEEA6_cEENS0_16assertion_resultERKT_RKT0_N4mpl_5bool_ILb0EEE
FNDA:6,_ZNK5boost10test_tools9tt_detail15equal_impl_frwd9call_implINSt7__cxx1112basic_stringIcSt11char_traitsIcESaIcEEEA6_cEENS0_16assertion_resultERKT_RKT0_N4mpl_5bool_ILb0EEE
FN:128,_ZNK5boost10test_tools9tt_detail15equal_impl_frwd9call_implINSt7__cxx1112basic_stringIcSt11char_traitsIcESaIcEEEA8_cEENS0_16assertion_resultERKT_RKT0_N4mpl_5bool_ILb0EEE
FNDA:2,_ZNK5boost10test_tools9tt_detail15equal_impl_frwd9call_implINSt7__cxx1112basic_stringIcSt11char_traitsIcESaIcEEEA8_cEENS0_16assertion_resultERKT_RKT0_N4mpl_5bool_ILb0EEE
FN:142,_ZNK5boost10test_tools9tt_detail15equal_impl_frwdclINSt7__cxx1112basic_stringIcSt11char_traitsIcESaIcEEEA2_cEENS0_16assertion_resultERKT_RKT0_
FNDA:5,_ZNK5boost10test_tools9tt_detail15equal_impl_frwdclINSt7__cxx1112basic_stringIcSt11char_traitsIcESaIcEEEA2_cEENS0_16assertion_resultERKT_RKT0_
FN:142,_ZNK5boost10test_tools9tt_detail15equal_impl_frwdclIiiEENS0_16assertion_resultERKT_RKT0_
FNDA:1,_ZNK5boost10test_tools9tt_detail15equal_impl_frwdclIiiEENS0_16assertion_resultERKT_RKT0_
FN:142,_ZNK5boost10test_tools9tt_detail15equal_impl_frwdclINSt7__cxx1112basic_stringIcSt11char_traitsIcESaIcEEEA6_cEENS0_16assertion_resultERKT_RKT0_
FNDA:6,_ZNK5boost10test_tools9tt_detail15equal_impl_frwdclINSt7__cxx1112basic_stringIcSt11char_traitsIcESaIcEEEA6_cEENS0_16assertion_resultERKT_RKT0_
FN:142,_ZNK5boost10test_tools9tt_detail15equal_impl_frwdclINSt7__cxx1112basic_stringIcSt11char_traitsIcESaIcEEEA8_cEENS0_16assertion_resultERKT_RKT0_
FNDA:2,_ZNK5boost10test_tools9tt_detail15equal_impl_frwdclINSt7__cxx1112basic_stringIcSt11char_traitsIcESaIcEEEA8_cEENS0_16assertion_resultERKT_RKT0_
DA:92,5
DA:92,1
DA:92,6
DA:92,2
DA:105,5
DA:107,5
DA:105,1
DA:107,1
DA:105,6
DA:107,6
DA:105,2
DA:107,2
DA:128,5
DA:130,5
DA:128,1
DA:130,1
DA:128,6
DA:130,6
DA:128,2
DA:130,2
DA:142,5
DA:145,10
DA:142,1
DA:145,2
DA:142,6
DA:145,12
DA:142,2
DA:145,4
end_of_record
SF:/usr/include/boost/type_index/stl_type_index.hpp
FN:93,_ZN5boost9typeindex14stl_type_indexC2ERKSt9type_info
FNDA:0,_ZN5boost9typeindex14stl_type_indexC2ERKSt9type_info
FN:117,_ZNK5boost9typeindex14stl_type_index9type_infoEv
FNDA:0,_ZNK5boost9typeindex14stl_type_index9type_infoEv
FN:206,_ZNK5boost9typeindex14stl_type_index5equalERKS1_
FNDA:0,_ZNK5boost9typeindex14stl_type_index5equalERKS1_
FN:226,_ZN5boost9typeindex14stl_type_index7type_idIPFvvEEES1_v
FNDA:0,_ZN5boost9typeindex14stl_type_index7type_idIPFvvEEES1_v
DA:93,0
DA:94,0
DA:95,0
DA:117,0
DA:118,0
DA:206,0
DA:210,0
DA:226,0
DA:246,0
end_of_record
SF:/usr/include/c++/11/bits/ios_base.h
FN:728,_ZNSt8ios_base9precisionEl
FNDA:0,_ZNSt8ios_base9precisionEl
DA:728,0
DA:730,0
DA:731,0
DA:732,0
end_of_record
SF:/usr/include/c++/11/typeinfo
FN:120,_ZNKSt9type_infoeqERKS_
FNDA:0,_ZNKSt9type_infoeqERKS_
DA:120,0
DA:122,0
DA:123,0
DA:124,0
end_of_record
SF:/usr/include/c++/11/bits/stl_iterator_base_funcs.h
FN:98,_ZSt10__distanceIPKcENSt15iterator_traitsIT_E15difference_typeES3_S3_St26random_access_iterator_tag
FNDA:31,_ZSt10__distanceIPKcENSt15iterator_traitsIT_E15difference_typeES3_S3_St26random_access_iterator_tag
FN:138,_ZSt8distanceIPKcENSt15iterator_traitsIT_E15difference_typeES3_S3_
FNDA:31,_ZSt8distanceIPKcENSt15iterator_traitsIT_E15difference_typeES3_S3_
DA:98,31
DA:104,31
DA:138,31
DA:141,31
DA:142,62
end_of_record
SF:/usr/include/c++/11/bits/stl_iterator_base_types.h
FN:238,_ZSt19__iterator_categoryIPKcENSt15iterator_traitsIT_E17iterator_categoryERKS3_
FNDA:31,_ZSt19__iterator_categoryIPKcENSt15iterator_traitsIT_E17iterator_categoryERKS3_
DA:238,31
DA:239,31
end_of_record
SF:/usr/include/c++/11/bits/char_traits.h
FN:106,_ZN9__gnu_cxx11char_traitsIcE2eqERKcS3_
FNDA:0,_ZN9__gnu_cxx11char_traitsIcE2eqERKcS3_
FN:167,_ZN9__gnu_cxx11char_traitsIcE6lengthEPKc
FNDA:0,_ZN9__gnu_cxx11char_traitsIcE6lengthEPKc
FN:393,_ZNSt11char_traitsIcE6lengthEPKc
FNDA:31,_ZNSt11char_traitsIcE6lengthEPKc
DA:106,0
DA:107,0
DA:167,0
DA:170,0
DA:171,0
DA:172,0
DA:173,0
DA:290,31
DA:393,31
DA:396,31
DA:397,0
DA:399,31
end_of_record
SF:/usr/include/boost/smart_ptr/shared_ptr.hpp
FN:346,_ZN5boost10shared_ptrINS_23basic_wrap_stringstreamIcEEEC2Ev
FNDA:19,_ZN5boost10shared_ptrINS_23basic_wrap_stringstreamIcEEEC2Ev
DA:346,19
DA:348,19
end_of_record
SF:/usr/include/boost/smart_ptr/detail/shared_count.hpp
FN:127,_ZN5boost6detail12shared_countC2Ev
FNDA:19,_ZN5boost6detail12shared_countC2Ev
FN:430,_ZN5boost6detail12shared_countD2Ev
FNDA:19,_ZN5boost6detail12shared_countD2Ev
DA:127,19
DA:132,19
DA:430,19
DA:432,19
DA:436,19
end_of_record
SF:/usr/include/boost/test/tools/assertion_result.hpp
FN:52,_ZN5boost10test_tools16assertion_resultC2Eb
FNDA:19,_ZN5boost10test_tools16assertion_resultC2Eb
FN:65,_ZN5boost10test_tools16assertion_result19readonly_property65C2Eb
FNDA:19,_ZN5boost10test_tools16assertion_result19readonly_property65C2Eb
DA:52,19
DA:53,19
DA:54,19
DA:65,19
end_of_record
SF:/usr/include/boost/test/unit_test_log.hpp
end_of_record
SF:/usr/include/boost/function/function_base.hpp
FN:259,_ZN5boost6detail8function22functor_manager_commonIPFvvEE10manage_ptrERKNS1_15function_bufferERS6_NS1_30functor_manager_operation_typeE
FNDA:11,_ZN5boost6detail8function22functor_manager_commonIPFvvEE10manage_ptrERKNS1_15function_bufferERS6_NS1_30functor_manager_operation_typeE
FN:322,_ZN5boost6detail8function15functor_managerIPFvvEE7managerERKNS1_15function_bufferERS6_NS1_30functor_manager_operation_typeENS1_16function_ptr_tagE
FNDA:11,_ZN5boost6detail8function15functor_managerIPFvvEE7managerERKNS1_15function_bufferERS6_NS1_30functor_manager_operation_typeENS1_16function_ptr_tagE
FN:395,_ZN5boost6detail8function15functor_managerIPFvvEE6manageERKNS1_15function_bufferERS6_NS1_30functor_manager_operation_typeE
FNDA:11,_ZN5boost6detail8function15functor_managerIPFvvEE6manageERKNS1_15function_bufferERS6_NS1_30functor_manager_operation_typeE
FN:603,_ZN5boost13function_baseC2Ev
FNDA:11,_ZN5boost13function_baseC2Ev
FN:689,_ZNK5boost13function_base28has_trivial_copy_and_destroyEv
FNDA:11,_ZNK5boost13function_base28has_trivial_copy_and_destroyEv
DA:259,11
DA:262,11
DA:263,0
DA:264,11
DA:265,0
DA:266,0
DA:267,11
DA:268,11
DA:269,0
DA:270,0
DA:271,0
DA:273,0
DA:275,0
DA:276,0
DA:277,0
DA:279,11
DA:322,11
DA:325,11
DA:326,11
DA:395,11
DA:399,11
DA:400,0
DA:401,0
DA:402,0
DA:404,11
DA:406,11
DA:603,11
DA:689,11
DA:690,11
end_of_record
SF:/usr/include/boost/smart_ptr/detail/sp_counted_base_gcc_atomic.hpp
FN:38,_ZN5boost6detail16atomic_decrementEPj
FNDA:0,_ZN5boost6detail16atomic_decrementEPj
FN:116,_ZN5boost6detail15sp_counted_base7releaseEv
FNDA:0,_ZN5boost6detail15sp_counted_base7releaseEv
FN:130,_ZN5boost6detail15sp_counted_base12weak_releaseEv
FNDA:0,_ZN5boost6detail15sp_counted_base12weak_releaseEv
DA:38,0
DA:40,0
DA:116,0
DA:118,0
DA:120,0
DA:121,0
DA:123,0
DA:130,0
DA:132,0
DA:134,0
DA:136,0
end_of_record
SF:/usr/include/boost/test/unit_test_suite.hpp
FN:387,_Z14init_unit_testv
FNDA:1,_Z14init_unit_testv
DA:387,1
DA:394,1
end_of_record
SF:/usr/include/boost/test/tree/test_unit.hpp
FN:263,_ZN5boost9unit_test14make_test_caseERKNS_8functionIFvvEEENS0_13basic_cstringIKcEES8_m
FNDA:11,_ZN5boost9unit_test14make_test_caseERKNS_8functionIFvvEEENS0_13basic_cstringIKcEES8_m
DA:263,11
DA:265,11
end_of_record
SF:/usr/include/boost/test/tree/fixture.hpp
FN:98,_ZN5boost9unit_test12impl_fixture10call_setupILb0EEclIN24doubly_linked_list_tests9test_freeEEEvRT_
FNDA:1,_ZN5boost9unit_test12impl_fixture10call_setupILb0EEclIN24doubly_linked_list_tests9test_freeEEEvRT_
FN:98,_ZN5boost9unit_test12impl_fixture10call_setupILb0EEclIN24doubly_linked_list_tests19test_upload_to_fileEEEvRT_
FNDA:1,_ZN5boost9unit_test12impl_fixture10call_setupILb0EEclIN24doubly_linked_list_tests19test_upload_to_fileEEEvRT_
FN:98,_ZN5boost9unit_test12impl_fixture10call_setupILb0EEclIN24doubly_linked_list_tests16test_add_to_headEEEvRT_
FNDA:1,_ZN5boost9unit_test12impl_fixture10call_setupILb0EEclIN24doubly_linked_list_tests16test_add_to_headEEEvRT_
FN:98,_ZN5boost9unit_test12impl_fixture10call_setupILb0EEclIN24doubly_linked_list_tests19test_load_from_fileEEEvRT_
FNDA:1,_ZN5boost9unit_test12impl_fixture10call_setupILb0EEclIN24doubly_linked_list_tests19test_load_from_fileEEEvRT_
FN:98,_ZN5boost9unit_test12impl_fixture10call_setupILb0EEclIN24doubly_linked_list_tests11test_searchEEEvRT_
FNDA:1,_ZN5boost9unit_test12impl_fixture10call_setupILb0EEclIN24doubly_linked_list_tests11test_searchEEEvRT_
FN:98,_ZN5boost9unit_test12impl_fixture10call_setupILb0EEclIN24doubly_linked_list_tests16test_add_to_tailEEEvRT_
FNDA:1,_ZN5boost9unit_test12impl_fixture10call_setupILb0EEclIN24doubly_linked_list_tests16test_add_to_tailEEEvRT_
FN:98,_ZN5boost9unit_test12impl_fixture10call_setupILb0EEclIN24doubly_linked_list_tests32test_load_from_file_with_contentEEEvRT_
FNDA:1,_ZN5boost9unit_test12impl_fixture10call_setupILb0EEclIN24doubly_linked_list_tests32test_load_from_file_with_contentEEEvRT_
FN:98,_ZN5boost9unit_test12impl_fixture10call_setupILb0EEclIN24doubly_linked_list_tests20test_remove_by_valueEEEvRT_
FNDA:1,_ZN5boost9unit_test12impl_fixture10call_setupILb0EEclIN24doubly_linked_list_tests20test_remove_by_valueEEEvRT_
FN:98,_ZN5boost9unit_test12impl_fixture10call_setupILb0EEclIN24doubly_linked_list_tests21test_remove_from_headEEEvRT_
FNDA:1,_ZN5boost9unit_test12impl_fixture10call_setupILb0EEclIN24doubly_linked_list_tests21test_remove_from_headEEEvRT_
FN:98,_ZN5boost9unit_test12impl_fixture10call_setupILb0EEclIN24doubly_linked_list_tests36test_remove_from_tail_single_elementEEEvRT_
FNDA:1,_ZN5boost9unit_test12impl_fixture10call_setupILb0EEclIN24doubly_linked_list_tests36test_remove_from_tail_single_elementEEEvRT_
FN:98,_ZN5boost9unit_test12impl_fixture10call_setupILb0EEclIN24doubly_linked_list_tests21test_remove_from_tailEEEvRT_
FNDA:1,_ZN5boost9unit_test12impl_fixture10call_setupILb0EEclIN24doubly_linked_list_tests21test_remove_from_tailEEEvRT_
FN:104,_ZN5boost9unit_test12impl_fixture13call_teardownILb0EEclIN24doubly_linked_list_tests21test_remove_from_tailEEEvRT_
FNDA:1,_ZN5boost9unit_test12impl_fixture13call_teardownILb0EEclIN24doubly_linked_list_tests21test_remove_from_tailEEEvRT_
FN:104,_ZN5boost9unit_test12impl_fixture13call_teardownILb0EEclIN24doubly_linked_list_tests9test_freeEEEvRT_
FNDA:1,_ZN5boost9unit_test12impl_fixture13call_teardownILb0EEclIN24doubly_linked_list_tests9test_freeEEEvRT_
FN:104,_ZN5boost9unit_test12impl_fixture13call_teardownILb0EEclIN24doubly_linked_list_tests16test_add_to_headEEEvRT_
FNDA:1,_ZN5boost9unit_test12impl_fixture13call_teardownILb0EEclIN24doubly_linked_list_tests16test_add_to_headEEEvRT_
FN:104,_ZN5boost9unit_test12impl_fixture13call_teardownILb0EEclIN24doubly_linked_list_tests16test_add_to_tailEEEvRT_
FNDA:1,_ZN5boost9unit_test12impl_fixture13call_teardownILb0EEclIN24doubly_linked_list_tests16test_add_to_tailEEEvRT_
FN:104,_ZN5boost9unit_test12impl_fixture13call_teardownILb0EEclIN24doubly_linked_list_tests21test_remove_from_headEEEvRT_
FNDA:1,_ZN5boost9unit_test12impl_fixture13call_teardownILb0EEclIN24doubly_linked_list_tests21test_remove_from_headEEEvRT_
FN:104,_ZN5boost9unit_test12impl_fixture13call_teardownILb0EEclIN24doubly_linked_list_tests36test_remove_from_tail_single_elementEEEvRT_
FNDA:1,_ZN5boost9unit_test12impl_fixture13call_teardownILb0EEclIN24doubly_linked_list_tests36test_remove_from_tail_single_elementEEEvRT_
FN:104,_ZN5boost9unit_test12impl_fixture13call_teardownILb0EEclIN24doubly_linked_list_tests20test_remove_by_valueEEEvRT_
FNDA:1,_ZN5boost9unit_test12impl_fixture13call_teardownILb0EEclIN24doubly_linked_list_tests20test_remove_by_valueEEEvRT_
FN:104,_ZN5boost9unit_test12impl_fixture13call_teardownILb0EEclIN24doubly_linked_list_tests32test_load_from_file_with_contentEEEvRT_
FNDA:1,_ZN5boost9unit_test12impl_fixture13call_teardownILb0EEclIN24doubly_linked_list_tests32test_load_from_file_with_contentEEEvRT_
FN:104,_ZN5boost9unit_test12impl_fixture13call_teardownILb0EEclIN24doubly_linked_list_tests11test_searchEEEvRT_
FNDA:1,_ZN5boost9unit_test12impl_fixture13call_teardownILb0EEclIN24doubly_linked_list_tests11test_searchEEEvRT_
FN:104,_ZN5boost9unit_test12impl_fixture13call_teardownILb0EEclIN24doubly_linked_list_tests19test_load_from_fileEEEvRT_
FNDA:1,_ZN5boost9unit_test12impl_fixture13call_teardownILb0EEclIN24doubly_linked_list_tests19test_load_from_fileEEEvRT_
FN:104,_ZN5boost9unit_test12impl_fixture13call_teardownILb0EEclIN24doubly_linked_list_tests19test_upload_to_fileEEEvRT_
FNDA:1,_ZN5boost9unit_test12impl_fixture13call_teardownILb0EEclIN24doubly_linked_list_tests19test_upload_to_fileEEEvRT_
FN:112,_ZN5boost9unit_test17setup_conditionalIN24doubly_linked_list_tests16test_add_to_headEEEvRT_
FNDA:1,_ZN5boost9unit_test17setup_conditionalIN24doubly_linked_list_tests16test_add_to_headEEEvRT_
FN:112,_ZN5boost9unit_test17setup_conditionalIN24doubly_linked_list_tests16test_add_to_tailEEEvRT_
FNDA:1,_ZN5boost9unit_test17setup_conditionalIN24doubly_linked_list_tests16test_add_to_tailEEEvRT_
FN:112,_ZN5boost9unit_test17setup_conditionalIN24doubly_linked_list_tests21test_remove_from_headEEEvRT_
FNDA:1,_ZN5boost9unit_test17setup_conditionalIN24doubly_linked_list_tests21test_remove_from_headEEEvRT_
FN:112,_ZN5boost9unit_test17setup_conditionalIN24doubly_linked_list_tests21test_remove_from_tailEEEvRT_
FNDA:1,_ZN5boost9unit_test17setup_conditionalIN24doubly_linked_list_tests21test_remove_from_tailEEEvRT_
FN:112,_ZN5boost9unit_test17setup_conditionalIN24doubly_linked_list_tests36test_remove_from_tail_single_elementEEEvRT_
FNDA:1,_ZN5boost9unit_test17setup_conditionalIN24doubly_linked_list_tests36test_remove_from_tail_single_elementEEEvRT_
FN:112,_ZN5boost9unit_test17setup_conditionalIN24doubly_linked_list_tests20test_remove_by_valueEEEvRT_
FNDA:1,_ZN5boost9unit_test17setup_conditionalIN24doubly_linked_list_tests20test_remove_by_valueEEEvRT_
FN:112,_ZN5boost9unit_test17setup_conditionalIN24doubly_linked_list_tests32test_load_from_file_with_contentEEEvRT_
FNDA:1,_ZN5boost9unit_test17setup_conditionalIN24doubly_linked_list_tests32test_load_from_file_with_contentEEEvRT_
FN:112,_ZN5boost9unit_test17setup_conditionalIN24doubly_linked_list_tests11test_searchEEEvRT_
FNDA:1,_ZN5boost9unit_test17setup_conditionalIN24doubly_linked_list_tests11test_searchEEEvRT_
FN:112,_ZN5boost9unit_test17setup_conditionalIN24doubly_linked_list_tests19test_load_from_fileEEEvRT_
FNDA:1,_ZN5boost9unit_test17setup_conditionalIN24doubly_linked_list_tests19test_load_from_fileEEEvRT_
FN:112,_ZN5boost9unit_test17setup_conditionalIN24doubly_linked_list_tests19test_upload_to_fileEEEvRT_
FNDA:1,_ZN5boost9unit_test17setup_conditionalIN24doubly_linked_list_tests19test_upload_to_fileEEEvRT_
FN:112,_ZN5boost9unit_test17setup_conditionalIN24doubly_linked_list_tests9test_freeEEEvRT_
FNDA:1,_ZN5boost9unit_test17setup_conditionalIN24doubly_linked_list_tests9test_freeEEEvRT_
FN:118,_ZN5boost9unit_test20teardown_conditionalIN24doubly_linked_list_tests32test_load_from_file_with_contentEEEvRT_
FNDA:1,_ZN5boost9unit_test20teardown_conditionalIN24doubly_linked_list_tests32test_load_from_file_with_contentEEEvRT_
FN:118,_ZN5boost9unit_test20teardown_conditionalIN24doubly_linked_list_tests11test_searchEEEvRT_
FNDA:1,_ZN5boost9unit_test20teardown_conditionalIN24doubly_linked_list_tests11test_searchEEEvRT_
FN:118,_ZN5boost9unit_test20teardown_conditionalIN24doubly_linked_list_tests20test_remove_by_valueEEEvRT_
FNDA:1,_ZN5boost9unit_test20teardown_conditionalIN24doubly_linked_list_tests20test_remove_by_valueEEEvRT_
FN:118,_ZN5boost9unit_test20teardown_conditionalIN24doubly_linked_list_tests36test_remove_from_tail_single_elementEEEvRT_
FNDA:1,_ZN5boost9unit_test20teardown_conditionalIN24doubly_linked_list_tests36test_remove_from_tail_single_elementEEEvRT_
FN:118,_ZN5boost9unit_test20teardown_conditionalIN24doubly_linked_list_tests19test_load_from_fileEEEvRT_
FNDA:1,_ZN5boost9unit_test20teardown_conditionalIN24doubly_linked_list_tests19test_load_from_fileEEEvRT_
FN:118,_ZN5boost9unit_test20teardown_conditionalIN24doubly_linked_list_tests21test_remove_from_tailEEEvRT_
FNDA:1,_ZN5boost9unit_test20teardown_conditionalIN24doubly_linked_list_tests21test_remove_from_tailEEEvRT_
FN:118,_ZN5boost9unit_test20teardown_conditionalIN24doubly_linked_list_tests21test_remove_from_headEEEvRT_
FNDA:1,_ZN5boost9unit_test20teardown_conditionalIN24doubly_linked_list_tests21test_remove_from_headEEEvRT_
FN:118,_ZN5boost9unit_test20teardown_conditionalIN24doubly_linked_list_tests19test_upload_to_fileEEEvRT_
FNDA:1,_ZN5boost9unit_test20teardown_conditionalIN24doubly_linked_list_tests19test_upload_to_fileEEEvRT_
FN:118,_ZN5boost9unit_test20teardown_conditionalIN24doubly_linked_list_tests16test_add_to_tailEEEvRT_
FNDA:1,_ZN5boost9unit_test20teardown_conditionalIN24doubly_linked_list_tests16test_add_to_tailEEEvRT_
FN:118,_ZN5boost9unit_test20teardown_conditionalIN24doubly_linked_list_tests16test_add_to_headEEEvRT_
FNDA:1,_ZN5boost9unit_test20teardown_conditionalIN24doubly_linked_list_tests16test_add_to_headEEEvRT_
FN:118,_ZN5boost9unit_test20teardown_conditionalIN24doubly_linked_list_tests9test_freeEEEvRT_
FNDA:1,_ZN5boost9unit_test20teardown_conditionalIN24doubly_linked_list_tests9test_freeEEEvRT_
DA:98,1
DA:98,1
DA:98,1
DA:98,1
DA:98,1
DA:98,1
DA:98,1
DA:98,1
DA:98,1
DA:98,1
DA:98,1
DA:104,1
DA:104,1
DA:104,1
DA:104,1
DA:104,1
DA:104,1
DA:104,1
DA:104,1
DA:104,1
DA:104,1
DA:104,1
DA:112,1
DA:113,1
DA:112,1
DA:113,1
DA:112,1
DA:113,1
DA:112,1
DA:113,1
DA:112,1
DA:113,1
DA:112,1
DA:113,1
DA:112,1
DA:113,1
DA:112,1
DA:113,1
DA:112,1
DA:113,1
DA:112,1
DA:113,1
DA:112,1
DA:113,1
DA:118,1
DA:119,1
DA:118,1
DA:119,1
DA:118,1
DA:119,1
DA:118,1
DA:119,1
DA:118,1
DA:119,1
DA:118,1
DA:119,1
DA:118,1
DA:119,1
DA:118,1
DA:119,1
DA:118,1
DA:119,1
DA:118,1
DA:119,1
DA:118,1
DA:119,1
end_of_record
SF:/usr/include/c++/11/bits/basic_string.tcc
FN:206,_ZNSt7__cxx1112basic_stringIcSt11char_traitsIcESaIcEE12_M_constructIPKcEEvT_S8_St20forward_iterator_tag
FNDA:31,_ZNSt7__cxx1112basic_stringIcSt11char_traitsIcESaIcEE12_M_constructIPKcEEvT_S8_St20forward_iterator_tag
DA:206,31
DA:211,31
DA:212,0
DA:215,31
DA:217,31
DA:219,0
DA:220,0
DA:225,31
DA:226,0
DA:228,0
DA:229,0
DA:232,31
DA:233,31
end_of_record
SF:/usr/include/c++/11/ext/new_allocator.h
FN:79,_ZN9__gnu_cxx13new_allocatorIcEC2Ev
FNDA:0,_ZN9__gnu_cxx13new_allocatorIcEC2Ev
FN:89,_ZN9__gnu_cxx13new_allocatorIcED2Ev
FNDA:0,_ZN9__gnu_cxx13new_allocatorIcED2Ev
DA:79,0
DA:89,0
end_of_record
SF:/home/nemesis/Рабочий стол/lab3-sem3/lab3-sem3/tests_cplus/test_dlist.cpp
FN:9,_ZN24doubly_linked_list_testsL24test_add_to_head_invokerEv
FNDA:1,_ZN24doubly_linked_list_testsL24test_add_to_head_invokerEv
FN:9,_ZN24doubly_linked_list_tests16test_add_to_head11test_methodEv
FNDA:1,_ZN24doubly_linked_list_tests16test_add_to_head11test_methodEv
FN:22,_ZN24doubly_linked_list_testsL24test_add_to_tail_invokerEv
FNDA:1,_ZN24doubly_linked_list_testsL24test_add_to_tail_invokerEv
FN:22,_ZN24doubly_linked_list_tests16test_add_to_tail11test_methodEv
FNDA:1,_ZN24doubly_linked_list_tests16test_add_to_tail11test_methodEv
FN:35,_ZN24doubly_linked_list_testsL29test_remove_from_head_invokerEv
FNDA:1,_ZN24doubly_linked_list_testsL29test_remove_from_head_invokerEv
FN:35,_ZN24doubly_linked_list_tests21test_remove_from_head11test_methodEv
FNDA:1,_ZN24doubly_linked_list_tests21test_remove_from_head11test_methodEv
FN:50,_ZN24doubly_linked_list_testsL29test_remove_from_tail_invokerEv
FNDA:1,_ZN24doubly_linked_list_testsL29test_remove_from_tail_invokerEv
FN:50,_ZN24doubly_linked_list_tests21test_remove_from_tail11test_methodEv
FNDA:1,_ZN24doubly_linked_list_tests21test_remove_from_tail11test_methodEv
FN:65,_ZN24doubly_linked_list_testsL44test_remove_from_tail_single_element_invokerEv
FNDA:1,_ZN24doubly_linked_list_testsL44test_remove_from_tail_single_element_invokerEv
FN:65,_ZN24doubly_linked_list_tests36test_remove_from_tail_single_element11test_methodEv
FNDA:1,_ZN24doubly_linked_list_tests36test_remove_from_tail_single_element11test_methodEv
FN:76,_ZN24doubly_linked_list_testsL28test_remove_by_value_invokerEv
FNDA:1,_ZN24doubly_linked_list_testsL28test_remove_by_value_invokerEv
FN:76,_ZN24doubly_linked_list_tests20test_remove_by_value11test_methodEv
FNDA:1,_ZN24doubly_linked_list_tests20test_remove_by_value11test_methodEv
FN:91,_ZN24doubly_linked_list_testsL40test_load_from_file_with_content_invokerEv
FNDA:1,_ZN24doubly_linked_list_testsL40test_load_from_file_with_content_invokerEv
FN:91,_ZN24doubly_linked_list_tests32test_load_from_file_with_content11test_methodEv
FNDA:1,_ZN24doubly_linked_list_tests32test_load_from_file_with_content11test_methodEv
FN:112,_ZN24doubly_linked_list_testsL19test_search_invokerEv
FNDA:1,_ZN24doubly_linked_list_testsL19test_search_invokerEv
FN:112,_ZN24doubly_linked_list_tests11test_search11test_methodEv
FNDA:1,_ZN24doubly_linked_list_tests11test_search11test_methodEv
FN:127,_ZN24doubly_linked_list_testsL27test_load_from_file_invokerEv
FNDA:1,_ZN24doubly_linked_list_testsL27test_load_from_file_invokerEv
FN:127,_ZN24doubly_linked_list_tests19test_load_from_file11test_methodEv
FNDA:1,_ZN24doubly_linked_list_tests19test_load_from_file11test_methodEv
FN:138,_ZN24doubly_linked_list_testsL27test_upload_to_file_invokerEv
FNDA:1,_ZN24doubly_linked_list_testsL27test_upload_to_file_invokerEv
FN:138,_ZN24doubly_linked_list_tests19test_upload_to_file11test_methodEv
FNDA:1,_ZN24doubly_linked_list_tests19test_upload_to_file11test_methodEv
FN:156,_ZN24doubly_linked_list_tests9test_free11test_methodEv
FNDA:1,_ZN24doubly_linked_list_tests9test_free11test_methodEv
FN:156,_ZN24doubly_linked_list_testsL17test_free_invokerEv
FNDA:1,_ZN24doubly_linked_list_testsL17test_free_invokerEv
DA:9,1
DA:10,1
DA:11,1
DA:12,1
DA:13,1
DA:15,1
DA:16,1
DA:17,1
DA:18,1
DA:19,1
DA:20,1
DA:9,1
DA:22,1
DA:23,1
DA:24,1
DA:25,1
DA:26,1
DA:28,1
DA:29,1
DA:30,1
DA:31,1
DA:32,1
DA:33,1
DA:22,1
DA:35,1
DA:36,1
DA:37,1
DA:38,1
DA:39,1
DA:41,1
DA:43,1
DA:44,1
DA:45,1
DA:46,1
DA:47,1
DA:48,1
DA:35,1
DA:50,1
DA:51,1
DA:52,1
DA:53,1
DA:54,1
DA:56,1
DA:58,1
DA:59,1
DA:60,1
DA:61,1
DA:62,1
DA:63,1
DA:50,1
DA:65,1
DA:66,1
DA:68,1
DA:70,1
DA:72,1
DA:73,1
DA:74,1
DA:65,1
DA:76,1
DA:77,1
DA:78,1
DA:79,1
DA:80,1
DA:82,1
DA:84,1
DA:85,1
DA:86,1
DA:87,1
DA:88,1
DA:89,1
DA:76,1
DA:91,1
DA:92,1
DA:94,1
DA:95,1
DA:96,1
DA:97,1
DA:98,1
DA:101,1
DA:104,1
DA:105,1
DA:106,1
DA:107,1
DA:109,1
DA:110,1
DA:91,1
DA:112,1
DA:113,1
DA:114,1
DA:115,1
DA:116,1
DA:118,1
DA:119,1
DA:120,1
DA:121,1
DA:123,1
DA:124,1
DA:125,1
DA:112,1
DA:127,1
DA:128,1
DA:129,1
DA:131,1
DA:132,1
DA:133,1
DA:134,1
DA:135,1
DA:136,1
DA:127,1
DA:138,1
DA:139,1
DA:140,1
DA:141,1
DA:142,1
DA:144,1
DA:146,1
DA:147,1
DA:148,1
DA:149,1
DA:150,1
DA:151,1
DA:152,1
DA:153,1
DA:154,1
DA:138,1
DA:156,1
DA:157,1
DA:158,1
DA:159,1
DA:160,1
DA:162,1
DA:164,1
DA:165,1
DA:166,1
DA:167,1
DA:168,1
DA:169,1
DA:156,1
end_of_record
SF:/usr/include/boost/test/unit_test.hpp
FN:62,main
FNDA:1,main
DA:62,1
DA:64,1
end_of_record
SF:/usr/include/boost/test/utils/wrap_stringstream.hpp
FN:64,_ZN5boostlsIcA10_cEERNS_23basic_wrap_stringstreamIT_EES5_RKT0_
FNDA:5,_ZN5boostlsIcA10_cEERNS_23basic_wrap_stringstreamIT_EES5_RKT0_
FN:64,_ZN5boostlsIcA20_cEERNS_23basic_wrap_stringstreamIT_EES5_RKT0_
FNDA:10,_ZN5boostlsIcA20_cEERNS_23basic_wrap_stringstreamIT_EES5_RKT0_
FN:64,_ZN5boostlsIcA12_cEERNS_23basic_wrap_stringstreamIT_EES5_RKT0_
FNDA:5,_ZN5boostlsIcA12_cEERNS_23basic_wrap_stringstreamIT_EES5_RKT0_
FN:64,_ZN5boostlsIcA33_cEERNS_23basic_wrap_stringstreamIT_EES5_RKT0_
FNDA:5,_ZN5boostlsIcA33_cEERNS_23basic_wrap_stringstreamIT_EES5_RKT0_
FN:64,_ZN5boostlsIcA21_cEERNS_23basic_wrap_stringstreamIT_EES5_RKT0_
FNDA:5,_ZN5boostlsIcA21_cEERNS_23basic_wrap_stringstreamIT_EES5_RKT0_
FN:64,_ZN5boostlsIcA37_cEERNS_23basic_wrap_stringstreamIT_EES5_RKT0_
FNDA:5,_ZN5boostlsIcA37_cEERNS_23basic_wrap_stringstreamIT_EES5_RKT0_
FN:64,_ZN5boostlsIcA22_cEERNS_23basic_wrap_stringstreamIT_EES5_RKT0_
FNDA:10,_ZN5boostlsIcA22_cEERNS_23basic_wrap_stringstreamIT_EES5_RKT0_
FN:64,_ZN5boostlsIcA19_cEERNS_23basic_wrap_stringstreamIT_EES5_RKT0_
FNDA:11,_ZN5boostlsIcA19_cEERNS_23basic_wrap_stringstreamIT_EES5_RKT0_
FN:64,_ZN5boostlsIcA13_cEERNS_23basic_wrap_stringstreamIT_EES5_RKT0_
FNDA:11,_ZN5boostlsIcA13_cEERNS_23basic_wrap_stringstreamIT_EES5_RKT0_
FN:64,_ZN5boostlsIcA16_cEERNS_23basic_wrap_stringstreamIT_EES5_RKT0_
FNDA:11,_ZN5boostlsIcA16_cEERNS_23basic_wrap_stringstreamIT_EES5_RKT0_
FN:64,_ZN5boostlsIcA15_cEERNS_23basic_wrap_stringstreamIT_EES5_RKT0_
FNDA:22,_ZN5boostlsIcA15_cEERNS_23basic_wrap_stringstreamIT_EES5_RKT0_
FN:64,_ZN5boostlsIcA17_cEERNS_23basic_wrap_stringstreamIT_EES5_RKT0_
FNDA:10,_ZN5boostlsIcA17_cEERNS_23basic_wrap_stringstreamIT_EES5_RKT0_
FN:64,_ZN5boostlsIccEERNS_23basic_wrap_stringstreamIT_EES4_RKT0_
FNDA:55,_ZN5boostlsIccEERNS_23basic_wrap_stringstreamIT_EES4_RKT0_
FN:74,_ZN5boost23basic_wrap_stringstreamIcE6streamB5cxx11Ev
FNDA:165,_ZN5boost23basic_wrap_stringstreamIcE6streamB5cxx11Ev
FN:83,_ZN5boost23basic_wrap_stringstreamIcE3refEv
FNDA:55,_ZN5boost23basic_wrap_stringstreamIcE3refEv
FN:92,_ZN5boost23basic_wrap_stringstreamIcE3strB5cxx11Ev
FNDA:55,_ZN5boost23basic_wrap_stringstreamIcE3strB5cxx11Ev
DA:64,5
DA:66,5
DA:67,5
DA:64,10
DA:66,10
DA:67,10
DA:64,5
DA:66,5
DA:67,5
DA:64,5
DA:66,5
DA:67,5
DA:64,5
DA:66,5
DA:67,5
DA:64,5
DA:66,5
DA:67,5
DA:64,10
DA:66,10
DA:67,10
DA:64,11
DA:66,11
DA:67,11
DA:64,11
DA:66,11
DA:67,11
DA:64,11
DA:66,11
DA:67,11
DA:64,22
DA:66,22
DA:67,22
DA:64,10
DA:66,10
DA:67,10
DA:64,55
DA:66,55
DA:67,55
DA:74,165
DA:76,165
DA:83,55
DA:85,55
DA:92,55
DA:99,55
DA:102,55
end_of_record
SF:/usr/include/c++/11/ext/type_traits.h
FN:152,_ZN9__gnu_cxx17__is_null_pointerIKcEEbPT_
FNDA:31,_ZN9__gnu_cxx17__is_null_pointerIKcEEbPT_
DA:152,31
DA:153,31
end_of_record
SF:/usr/include/boost/function/function_template.hpp
FN:112,_ZN5boost6detail8function22void_function_invoker0IPFvvEvE6invokeERNS1_15function_bufferE
FNDA:11,_ZN5boost6detail8function22void_function_invoker0IPFvvEvE6invokeERNS1_15function_bufferE
FN:490,_ZNK5boost6detail8function13basic_vtable0IvE9assign_toIPFvvEEEbT_RNS1_15function_bufferE
FNDA:11,_ZNK5boost6detail8function13basic_vtable0IvE9assign_toIPFvvEEEbT_RNS1_15function_bufferE
FN:502,_ZNK5boost6detail8function13basic_vtable0IvE5clearERNS1_15function_bufferE
FNDA:11,_ZNK5boost6detail8function13basic_vtable0IvE5clearERNS1_15function_bufferE
FN:512,_ZNK5boost6detail8function13basic_vtable0IvE9assign_toIPFvvEEEbT_RNS1_15function_bufferENS1_16function_ptr_tagE
FNDA:11,_ZNK5boost6detail8function13basic_vtable0IvE9assign_toIPFvvEEEbT_RNS1_15function_bufferENS1_16function_ptr_tagE
FN:677,_ZNK5boost9function0IvE10get_vtableEv
FNDA:0,_ZNK5boost9function0IvE10get_vtableEv
FN:711,_ZN5boost9function0IvEC2IPFvvEEET_NS_10enable_if_IXntsrNS_11is_integralIS5_EE5valueEiE4typeE
FNDA:11,_ZN5boost9function0IvEC2IPFvvEEET_NS_10enable_if_IXntsrNS_11is_integralIS5_EE5valueEiE4typeE
FN:756,_ZN5boost9function0IvED2Ev
FNDA:11,_ZN5boost9function0IvED2Ev
FN:868,_ZN5boost9function0IvE5clearEv
FNDA:11,_ZN5boost9function0IvE5clearEv
FN:921,_ZN5boost9function0IvE9assign_toIPFvvEEEvT_
FNDA:11,_ZN5boost9function0IvE9assign_toIPFvvEEEvT_
FN:1079,_ZN5boost8functionIFvvEEC2IPS1_EET_NS_10enable_if_IXntsrNS_11is_integralIS5_EE5valueEiE4typeE
FNDA:11,_ZN5boost8functionIFvvEEC2IPS1_EET_NS_10enable_if_IXntsrNS_11is_integralIS5_EE5valueEiE4typeE
DA:112,11
DA:116,11
DA:117,11
DA:118,11
DA:490,11
DA:493,11
DA:502,11
DA:504,11
DA:505,11
DA:506,11
DA:512,11
DA:514,11
DA:515,11
DA:518,11
DA:519,11
DA:521,0
DA:677,0
DA:679,0
DA:711,11
DA:718,11
DA:720,11
DA:721,11
DA:756,11
DA:868,11
DA:870,11
DA:871,11
DA:872,0
DA:873,11
DA:875,11
DA:921,11
DA:942,11
DA:943,11
DA:948,11
DA:949,11
DA:951,0
DA:952,11
DA:1079,11
DA:1086,11
DA:1088,11
end_of_record
SF:/usr/include/c++/11/iostream
end_of_record
SF:/usr/include/boost/test/tools/detail/print_helper.hpp
FN:52,_ZN5boost10test_tools9tt_detail4impl21boost_test_print_typeIA8_cEERSoS5_RKT_
FNDA:0,_ZN5boost10test_tools9tt_detail4impl21boost_test_print_typeIA8_cEERSoS5_RKT_
FN:52,_ZN5boost10test_tools9tt_detail4impl21boost_test_print_typeIA6_cEERSoS5_RKT_
FNDA:0,_ZN5boost10test_tools9tt_detail4impl21boost_test_print_typeIA6_cEERSoS5_RKT_
FN:52,_ZN5boost10test_tools9tt_detail4impl21boost_test_print_typeIiEERSoS4_RKT_
FNDA:0,_ZN5boost10test_tools9tt_detail4impl21boost_test_print_typeIiEERSoS4_RKT_
FN:52,_ZN5boost10test_tools9tt_detail4impl21boost_test_print_typeIA2_cEERSoS5_RKT_
FNDA:0,_ZN5boost10test_tools9tt_detail4impl21boost_test_print_typeIA2_cEERSoS5_RKT_
FN:52,_ZN5boost10test_tools9tt_detail4impl21boost_test_print_typeINSt7__cxx1112basic_stringIcSt11char_traitsIcESaIcEEEEERSoSA_RKT_
FNDA:0,_ZN5boost10test_tools9tt_detail4impl21boost_test_print_typeINSt7__cxx1112basic_stringIcSt11char_traitsIcESaIcEEEEERSoSA_RKT_
FN:61,_ZNK5boost10test_tools9tt_detail4impl26boost_test_print_type_implclINSt7__cxx1112basic_stringIcSt11char_traitsIcESaIcEEEEERSoSB_RKT_
FNDA:0,_ZNK5boost10test_tools9tt_detail4impl26boost_test_print_type_implclINSt7__cxx1112basic_stringIcSt11char_traitsIcESaIcEEEEERSoSB_RKT_
FN:61,_ZNK5boost10test_tools9tt_detail4impl26boost_test_print_type_implclIA8_cEERSoS6_RKT_
FNDA:0,_ZNK5boost10test_tools9tt_detail4impl26boost_test_print_type_implclIA8_cEERSoS6_RKT_
FN:61,_ZNK5boost10test_tools9tt_detail4impl26boost_test_print_type_implclIA6_cEERSoS6_RKT_
FNDA:0,_ZNK5boost10test_tools9tt_detail4impl26boost_test_print_type_implclIA6_cEERSoS6_RKT_
FN:61,_ZNK5boost10test_tools9tt_detail4impl26boost_test_print_type_implclIiEERSoS5_RKT_
FNDA:0,_ZNK5boost10test_tools9tt_detail4impl26boost_test_print_type_implclIiEERSoS5_RKT_
FN:61,_ZNK5boost10test_tools9tt_detail4impl26boost_test_print_type_implclIA2_cEERSoS6_RKT_
FNDA:0,_ZNK5boost10test_tools9tt_detail4impl26boost_test_print_type_implclIA2_cEERSoS6_RKT_
FN:83,_ZN5boost10test_tools9tt_detail15print_log_valueIA6_cEclERSoRA6_Kc
FNDA:0,_ZN5boost10test_tools9tt_detail15print_log_valueIA6_cEclERSoRA6_Kc
FN:83,_ZN5boost10test_tools9tt_detail15print_log_valueIA2_cEclERSoRA2_Kc
FNDA:0,_ZN5boost10test_tools9tt_detail15print_log_valueIA2_cEclERSoRA2_Kc
FN:83,_ZN5boost10test_tools9tt_detail15print_log_valueIiEclERSoRKi
FNDA:0,_ZN5boost10test_tools9tt_detail15print_log_valueIiEclERSoRKi
FN:83,_ZN5boost10test_tools9tt_detail15print_log_valueIA8_cEclERSoRA8_Kc
FNDA:0,_ZN5boost10test_tools9tt_detail15print_log_valueIA8_cEclERSoRA8_Kc
FN:83,_ZN5boost10test_tools9tt_detail15print_log_valueINSt7__cxx1112basic_stringIcSt11char_traitsIcESaIcEEEEclERSoRKS8_
FNDA:0,_ZN5boost10test_tools9tt_detail15print_log_valueINSt7__cxx1112basic_stringIcSt11char_traitsIcESaIcEEEEclERSoRKS8_
FN:97,_ZN5boost10test_tools9tt_detail15print_log_valueIiE13set_precisionERSoN4mpl_5bool_ILb0EEE
FNDA:0,_ZN5boost10test_tools9tt_detail15print_log_valueIiE13set_precisionERSoN4mpl_5bool_ILb0EEE
FN:97,_ZN5boost10test_tools9tt_detail15print_log_valueINSt7__cxx1112basic_stringIcSt11char_traitsIcESaIcEEEE13set_precisionERSoN4mpl_5bool_ILb0EEE
FNDA:0,_ZN5boost10test_tools9tt_detail15print_log_valueINSt7__cxx1112basic_stringIcSt11char_traitsIcESaIcEEEE13set_precisionERSoN4mpl_5bool_ILb0EEE
FN:118,_ZN5boost10test_tools9tt_detail15print_log_valueIA6_cE13set_precisionERSoN4mpl_5bool_ILb1EEE
FNDA:0,_ZN5boost10test_tools9tt_detail15print_log_valueIA6_cE13set_precisionERSoN4mpl_5bool_ILb1EEE
FN:118,_ZN5boost10test_tools9tt_detail15print_log_valueIA8_cE13set_precisionERSoN4mpl_5bool_ILb1EEE
FNDA:0,_ZN5boost10test_tools9tt_detail15print_log_valueIA8_cE13set_precisionERSoN4mpl_5bool_ILb1EEE
FN:118,_ZN5boost10test_tools9tt_detail15print_log_valueIA2_cE13set_precisionERSoN4mpl_5bool_ILb1EEE
FNDA:0,_ZN5boost10test_tools9tt_detail15print_log_valueIA2_cE13set_precisionERSoN4mpl_5bool_ILb1EEE
FN:188,_ZN5boost10test_tools9tt_detail14print_helper_tIA2_cEC2ERA2_Kc
FNDA:5,_ZN5boost10test_tools9tt_detail14print_helper_tIA2_cEC2ERA2_Kc
FN:188,_ZN5boost10test_tools9tt_detail14print_helper_tINSt7__cxx1112basic_stringIcSt11char_traitsIcESaIcEEEEC2ERKS8_
FNDA:13,_ZN5boost10test_tools9tt_detail14print_helper_tINSt7__cxx1112basic_stringIcSt11char_traitsIcESaIcEEEEC2ERKS8_
FN:188,_ZN5boost10test_tools9tt_detail14print_helper_tIA8_cEC2ERA8_Kc
FNDA:2,_ZN5boost10test_tools9tt_detail14print_helper_tIA8_cEC2ERA8_Kc
FN:188,_ZN5boost10test_tools9tt_detail14print_helper_tIA6_cEC2ERA6_Kc
FNDA:6,_ZN5boost10test_tools9tt_detail14print_helper_tIA6_cEC2ERA6_Kc
FN:188,_ZN5boost10test_tools9tt_detail14print_helper_tIiEC2ERKi
FNDA:2,_ZN5boost10test_tools9tt_detail14print_helper_tIiEC2ERKi
FN:209,_ZN5boost10test_tools9tt_detail12print_helperIA2_cEENS1_14print_helper_tIT_EERKS5_
FNDA:5,_ZN5boost10test_tools9tt_detail12print_helperIA2_cEENS1_14print_helper_tIT_EERKS5_
FN:209,_ZN5boost10test_tools9tt_detail12print_helperIiEENS1_14print_helper_tIT_EERKS4_
FNDA:2,_ZN5boost10test_tools9tt_detail12print_helperIiEENS1_14print_helper_tIT_EERKS4_
FN:209,_ZN5boost10test_tools9tt_detail12print_helperIA6_cEENS1_14print_helper_tIT_EERKS5_
FNDA:6,_ZN5boost10test_tools9tt_detail12print_helperIA6_cEENS1_14print_helper_tIT_EERKS5_
FN:209,_ZN5boost10test_tools9tt_detail12print_helperIA8_cEENS1_14print_helper_tIT_EERKS5_
FNDA:2,_ZN5boost10test_tools9tt_detail12print_helperIA8_cEENS1_14print_helper_tIT_EERKS5_
FN:209,_ZN5boost10test_tools9tt_detail12print_helperINSt7__cxx1112basic_stringIcSt11char_traitsIcESaIcEEEEENS1_14print_helper_tIT_EERKSA_
FNDA:13,_ZN5boost10test_tools9tt_detail12print_helperINSt7__cxx1112basic_stringIcSt11char_traitsIcESaIcEEEEENS1_14print_helper_tIT_EERKSA_
FN:218,_ZN5boost10test_tools9tt_detaillsIA2_cEERSoS4_RKNS1_14print_helper_tIT_EE
FNDA:0,_ZN5boost10test_tools9tt_detaillsIA2_cEERSoS4_RKNS1_14print_helper_tIT_EE
FN:218,_ZN5boost10test_tools9tt_detaillsIiEERSoS3_RKNS1_14print_helper_tIT_EE
FNDA:0,_ZN5boost10test_tools9tt_detaillsIiEERSoS3_RKNS1_14print_helper_tIT_EE
FN:218,_ZN5boost10test_tools9tt_detaillsIA6_cEERSoS4_RKNS1_14print_helper_tIT_EE
FNDA:0,_ZN5boost10test_tools9tt_detaillsIA6_cEERSoS4_RKNS1_14print_helper_tIT_EE
FN:218,_ZN5boost10test_tools9tt_detaillsIA8_cEERSoS4_RKNS1_14print_helper_tIT_EE
FNDA:0,_ZN5boost10test_tools9tt_detaillsIA8_cEERSoS4_RKNS1_14print_helper_tIT_EE
FN:218,_ZN5boost10test_tools9tt_detaillsINSt7__cxx1112basic_stringIcSt11char_traitsIcESaIcEEEEERSoS9_RKNS1_14print_helper_tIT_EE
FNDA:0,_ZN5boost10test_tools9tt_detaillsINSt7__cxx1112basic_stringIcSt11char_traitsIcESaIcEEEEERSoS9_RKNS1_14print_helper_tIT_EE
DA:52,0
DA:55,0
DA:56,0
DA:52,0
DA:55,0
DA:56,0
DA:52,0
DA:55,0
DA:56,0
DA:52,0
DA:55,0
DA:56,0
DA:52,0
DA:55,0
DA:56,0
DA:61,0
DA:62,0
DA:61,0
DA:62,0
DA:61,0
DA:62,0
DA:61,0
DA:62,0
DA:61,0
DA:62,0
DA:83,0
DA:87,0
DA:91,0
DA:93,0
DA:94,0
DA:95,0
DA:83,0
DA:87,0
DA:91,0
DA:93,0
DA:94,0
DA:95,0
DA:83,0
DA:87,0
DA:91,0
DA:93,0
DA:94,0
DA:95,0
DA:83,0
DA:87,0
DA:91,0
DA:93,0
DA:94,0
DA:95,0
DA:83,0
DA:87,0
DA:91,0
DA:93,0
DA:94,0
DA:95,0
DA:97,0
DA:115,0
DA:97,0
DA:100,0
DA:118,0
DA:118,0
DA:118,0
DA:188,5
DA:188,2
DA:188,6
DA:188,2
DA:188,13
DA:209,5
DA:211,5
DA:209,2
DA:211,2
DA:209,6
DA:211,6
DA:209,2
DA:211,2
DA:209,13
DA:211,13
DA:218,0
DA:220,0
DA:222,0
DA:218,0
DA:220,0
DA:222,0
DA:218,0
DA:220,0
DA:222,0
DA:218,0
DA:220,0
DA:222,0
DA:218,0
DA:220,0
DA:222,0
end_of_record
SF:/usr/include/boost/test/utils/basic_cstring/basic_cstring.hpp
FN:83,_ZN5boost9unit_test13basic_cstringIKcEC2IiEEPS2_T_
FNDA:0,_ZN5boost9unit_test13basic_cstringIKcEC2IiEEPS2_T_
FN:83,_ZN5boost9unit_test13basic_cstringIKcEC2ImEEPS2_T_
FNDA:99,_ZN5boost9unit_test13basic_cstringIKcEC2ImEEPS2_T_
FN:206,_ZN5boost9unit_test13basic_cstringIKcE8null_strEv
FNDA:19,_ZN5boost9unit_test13basic_cstringIKcE8null_strEv
FN:215,_ZN5boost9unit_test13basic_cstringIKcEC2Ev
FNDA:19,_ZN5boost9unit_test13basic_cstringIKcEC2Ev
FN:225,_ZN5boost9unit_test13basic_cstringIKcEC2ERKS3_
FNDA:39,_ZN5boost9unit_test13basic_cstringIKcEC2ERKS3_
FN:235,_ZN5boost9unit_test13basic_cstringIKcEC2ERKNSt7__cxx1112basic_stringIcSt11char_traitsIcESaIcEEE
FNDA:66,_ZN5boost9unit_test13basic_cstringIKcEC2ERKNSt7__cxx1112basic_stringIcSt11char_traitsIcESaIcEEE
FN:245,_ZN5boost9unit_test13basic_cstringIKcEC2EPS2_
FNDA:25,_ZN5boost9unit_test13basic_cstringIKcEC2EPS2_
FN:286,_ZNK5boost9unit_test13basic_cstringIKcE4sizeEv
FNDA:2,_ZNK5boost9unit_test13basic_cstringIKcE4sizeEv
FN:295,_ZNK5boost9unit_test13basic_cstringIKcE8is_emptyEv
FNDA:2,_ZNK5boost9unit_test13basic_cstringIKcE8is_emptyEv
FN:313,_ZN5boost9unit_test13basic_cstringIKcE5clearEv
FNDA:0,_ZN5boost9unit_test13basic_cstringIKcE5clearEv
FN:345,_ZN5boost9unit_test13basic_cstringIKcE9trim_leftEPS2_
FNDA:1,_ZN5boost9unit_test13basic_cstringIKcE9trim_leftEPS2_
FN:358,_ZN5boost9unit_test13basic_cstringIKcE9trim_leftES3_
FNDA:1,_ZN5boost9unit_test13basic_cstringIKcE9trim_leftES3_
FN:389,_ZN5boost9unit_test13basic_cstringIKcE10trim_rightEPS2_
FNDA:1,_ZN5boost9unit_test13basic_cstringIKcE10trim_rightEPS2_
FN:402,_ZN5boost9unit_test13basic_cstringIKcE10trim_rightES3_
FNDA:1,_ZN5boost9unit_test13basic_cstringIKcE10trim_rightES3_
FN:421,_ZN5boost9unit_test13basic_cstringIKcE4trimES3_
FNDA:1,_ZN5boost9unit_test13basic_cstringIKcE4trimES3_
FN:433,_ZN5boost9unit_test13basic_cstringIKcEaSERKS3_
FNDA:0,_ZN5boost9unit_test13basic_cstringIKcEaSERKS3_
FN:507,_ZN5boost9unit_test13basic_cstringIKcE5beginEv
FNDA:4,_ZN5boost9unit_test13basic_cstringIKcE5beginEv
FN:516,_ZNK5boost9unit_test13basic_cstringIKcE5beginEv
FNDA:0,_ZNK5boost9unit_test13basic_cstringIKcE5beginEv
FN:525,_ZN5boost9unit_test13basic_cstringIKcE3endEv
FNDA:2,_ZN5boost9unit_test13basic_cstringIKcE3endEv
FN:534,_ZNK5boost9unit_test13basic_cstringIKcE3endEv
FNDA:0,_ZNK5boost9unit_test13basic_cstringIKcE3endEv
FN:600,_ZN5boost9unit_test13basic_cstringIKcE15default_trim_exEv
FNDA:0,_ZN5boost9unit_test13basic_cstringIKcE15default_trim_exEv
DA:83,0
DA:83,99
DA:206,19
DA:208,19
DA:215,19
DA:216,19
DA:217,19
DA:219,19
DA:225,39
DA:226,39
DA:227,39
DA:229,39
DA:235,66
DA:236,66
DA:237,66
DA:239,66
DA:245,25
DA:246,25
DA:247,25
DA:249,25
DA:286,2
DA:288,2
DA:295,2
DA:297,2
DA:313,0
DA:315,0
DA:316,0
DA:345,1
DA:347,1
DA:348,1
DA:349,0
DA:351,1
DA:358,1
DA:360,1
DA:361,0
DA:364,1
DA:365,1
DA:366,1
DA:369,1
DA:389,1
DA:391,1
DA:392,1
DA:393,0
DA:395,1
DA:402,1
DA:404,1
DA:405,0
DA:409,1
DA:410,1
DA:411,1
DA:414,1
DA:421,1
DA:423,1
DA:424,1
DA:426,1
DA:433,0
DA:435,0
DA:436,0
DA:438,0
DA:507,4
DA:509,4
DA:516,0
DA:518,0
DA:525,2
DA:527,2
DA:534,0
DA:536,0
DA:600,0
DA:604,0
end_of_record
TN:
SF:/usr/include/c++/11/bits/char_traits.h
FN:106,_ZN9__gnu_cxx11char_traitsIcE2eqERKcS3_
FNDA:0,_ZN9__gnu_cxx11char_traitsIcE2eqERKcS3_
FN:167,_ZN9__gnu_cxx11char_traitsIcE6lengthEPKc
FNDA:0,_ZN9__gnu_cxx11char_traitsIcE6lengthEPKc
FN:393,_ZNSt11char_traitsIcE6lengthEPKc
FNDA:0,_ZNSt11char_traitsIcE6lengthEPKc
FN:429,_ZNSt11char_traitsIcE4copyEPcPKcm
FNDA:0,_ZNSt11char_traitsIcE4copyEPcPKcm
DA:106,0
DA:107,0
DA:167,0
DA:170,0
DA:171,0
DA:172,0
DA:173,0
DA:290,0
DA:393,0
DA:396,0
DA:397,0
DA:399,0
DA:429,0
DA:431,0
DA:432,0
DA:437,0
end_of_record
SF:/home/nemesis/Рабочий стол/lab3-sem3/lab3-sem3/cplus/header.h
end_of_record
SF:/usr/include/c++/11/bits/stl_iterator_base_types.h
FN:238,_ZSt19__iterator_categoryIPcENSt15iterator_traitsIT_E17iterator_categoryERKS2_
FNDA:0,_ZSt19__iterator_categoryIPcENSt15iterator_traitsIT_E17iterator_categoryERKS2_
FN:238,_ZSt19__iterator_categoryIPKcENSt15iterator_traitsIT_E17iterator_categoryERKS3_
FNDA:0,_ZSt19__iterator_categoryIPKcENSt15iterator_traitsIT_E17iterator_categoryERKS3_
DA:238,0
DA:239,0
DA:238,0
DA:239,0
end_of_record
SF:/usr/include/c++/11/ext/alloc_traits.h
FN:97,_ZN9__gnu_cxx14__alloc_traitsISaIcEcE17_S_select_on_copyERKS1_
FNDA:0,_ZN9__gnu_cxx14__alloc_traitsISaIcEcE17_S_select_on_copyERKS1_
DA:97,0
DA:98,0
end_of_record
SF:/home/nemesis/Рабочий стол/lab3-sem3/lab3-sem3/cplus/queue.cpp
FN:7,_ZN5QueueC2Ev
FNDA:16,_ZN5QueueC2Ev
FN:9,_ZN5QueueD2Ev
FNDA:16,_ZN5QueueD2Ev
FN:13,_ZNK5Queue8is_emptyEv
FNDA:46,_ZNK5Queue8is_emptyEv
FN:17,_ZN5Queue4pushERKNSt7__cxx1112basic_stringIcSt11char_traitsIcESaIcEEE
FNDA:28,_ZN5Queue4pushERKNSt7__cxx1112basic_stringIcSt11char_traitsIcESaIcEEE
FN:29,_ZN5Queue3popB5cxx11Ev
FNDA:32,_ZN5Queue3popB5cxx11Ev
FN:47,_ZNK5Queue5printEv
FNDA:4,_ZNK5Queue5printEv
FN:61,_ZN5Queue5clearEv
FNDA:20,_ZN5Queue5clearEv
FN:67,_ZN5Queue14load_from_fileERKNSt7__cxx1112basic_stringIcSt11char_traitsIcESaIcEEE
FNDA:2,_ZN5Queue14load_from_fileERKNSt7__cxx1112basic_stringIcSt11char_traitsIcESaIcEEE
FN:84,_ZNK5Queue12save_to_fileERKNSt7__cxx1112basic_stringIcSt11char_traitsIcESaIcEEE
FNDA:2,_ZNK5Queue12save_to_fileERKNSt7__cxx1112basic_stringIcSt11char_traitsIcESaIcEEE
DA:7,16
DA:9,16
DA:10,16
DA:11,16
DA:13,46
DA:14,46
DA:17,28
DA:18,28
DA:20,28
DA:21,12
DA:22,12
DA:24,16
DA:25,16
DA:27,28
DA:29,32
DA:30,32
DA:31,4
DA:32,4
DA:35,28
DA:36,28
DA:37,28
DA:39,28
DA:40,12
DA:43,28
DA:44,28
DA:45,28
DA:47,4
DA:48,4
DA:49,2
DA:50,2
DA:53,2
DA:54,6
DA:55,4
DA:56,4
DA:58,2
DA:61,20
DA:62,36
DA:63,16
DA:65,20
DA:67,2
DA:68,2
DA:70,2
DA:71,2
DA:72,0
DA:73,0
DA:76,2
DA:77,8
DA:78,6
DA:81,2
DA:82,2
DA:84,2
DA:85,2
DA:86,2
DA:87,0
DA:88,0
DA:91,2
DA:92,8
DA:93,6
DA:94,6
DA:97,2
DA:98,2
end_of_record
SF:/usr/include/c++/11/bits/basic_string.tcc
FN:206,_ZNSt7__cxx1112basic_stringIcSt11char_traitsIcESaIcEE12_M_constructIPcEEvT_S7_St20forward_iterator_tag
FNDA:0,_ZNSt7__cxx1112basic_stringIcSt11char_traitsIcESaIcEE12_M_constructIPcEEvT_S7_St20forward_iterator_tag
FN:206,_ZNSt7__cxx1112basic_stringIcSt11char_traitsIcESaIcEE12_M_constructIPKcEEvT_S8_St20forward_iterator_tag
FNDA:0,_ZNSt7__cxx1112basic_stringIcSt11char_traitsIcESaIcEE12_M_constructIPKcEEvT_S8_St20forward_iterator_tag
DA:206,0
DA:211,0
DA:212,0
DA:215,0
DA:217,0
DA:219,0
DA:220,0
DA:225,0
DA:226,0
DA:228,0
DA:229,0
DA:232,0
DA:233,0
DA:206,0
DA:211,0
DA:212,0
DA:215,0
DA:217,0
DA:219,0
DA:220,0
DA:225,0
DA:226,0
DA:228,0
DA:229,0
DA:232,0
DA:233,0
end_of_record
SF:/usr/include/c++/11/ext/new_allocator.h
FN:79,_ZN9__gnu_cxx13new_allocatorIcEC2Ev
FNDA:0,_ZN9__gnu_cxx13new_allocatorIcEC2Ev
FN:82,_ZN9__gnu_cxx13new_allocatorIcEC2ERKS1_
FNDA:0,_ZN9__gnu_cxx13new_allocatorIcEC2ERKS1_
FN:89,_ZN9__gnu_cxx13new_allocatorIcED2Ev
FNDA:0,_ZN9__gnu_cxx13new_allocatorIcED2Ev
DA:79,0
DA:82,0
DA:89,0
end_of_record
SF:/usr/include/c++/11/iostream
end_of_record
SF:/usr/include/c++/11/ext/type_traits.h
FN:152,_ZN9__gnu_cxx17__is_null_pointerIcEEbPT_
FNDA:0,_ZN9__gnu_cxx17__is_null_pointerIcEEbPT_
FN:152,_ZN9__gnu_cxx17__is_null_pointerIKcEEbPT_
FNDA:0,_ZN9__gnu_cxx17__is_null_pointerIKcEEbPT_
DA:152,0
DA:153,0
DA:152,0
DA:153,0
end_of_record
SF:/usr/include/c++/11/bits/move.h
FN:104,_ZSt4moveIRSaIcEEONSt16remove_referenceIT_E4typeEOS3_
FNDA:0,_ZSt4moveIRSaIcEEONSt16remove_referenceIT_E4typeEOS3_
DA:104,0
DA:105,0
end_of_record
SF:/usr/include/c++/11/bits/alloc_traits.h
FN:562,_ZNSt16allocator_traitsISaIcEE37select_on_container_copy_constructionERKS0_
FNDA:0,_ZNSt16allocator_traitsISaIcEE37select_on_container_copy_constructionERKS0_
DA:562,0
DA:563,0
end_of_record
SF:/usr/include/c++/11/bits/basic_string.h
FN:251,_ZNSt7__cxx1112basic_stringIcSt11char_traitsIcESaIcEE16_M_construct_auxIPcEEvT_S7_St12__false_type
FNDA:0,_ZNSt7__cxx1112basic_stringIcSt11char_traitsIcESaIcEE16_M_construct_auxIPcEEvT_S7_St12__false_type
FN:271,_ZNSt7__cxx1112basic_stringIcSt11char_traitsIcESaIcEE12_M_constructIPcEEvT_S7_
FNDA:0,_ZNSt7__cxx1112basic_stringIcSt11char_traitsIcESaIcEE12_M_constructIPcEEvT_S7_
FN:533,_ZNSt7__cxx1112basic_stringIcSt11char_traitsIcESaIcEEC2IS3_EEPKcRKS3_
FNDA:0,_ZNSt7__cxx1112basic_stringIcSt11char_traitsIcESaIcEEC2IS3_EEPKcRKS3_
DA:251,0
DA:255,0
DA:256,0
DA:271,0
DA:274,0
DA:275,0
DA:533,0
DA:534,0
DA:536,0
DA:539,0
DA:540,0
end_of_record
SF:/usr/include/c++/11/bits/stl_iterator_base_funcs.h
FN:98,_ZSt10__distanceIPcENSt15iterator_traitsIT_E15difference_typeES2_S2_St26random_access_iterator_tag
FNDA:0,_ZSt10__distanceIPcENSt15iterator_traitsIT_E15difference_typeES2_S2_St26random_access_iterator_tag
FN:98,_ZSt10__distanceIPKcENSt15iterator_traitsIT_E15difference_typeES3_S3_St26random_access_iterator_tag
FNDA:0,_ZSt10__distanceIPKcENSt15iterator_traitsIT_E15difference_typeES3_S3_St26random_access_iterator_tag
FN:138,_ZSt8distanceIPcENSt15iterator_traitsIT_E15difference_typeES2_S2_
FNDA:0,_ZSt8distanceIPcENSt15iterator_traitsIT_E15difference_typeES2_S2_
FN:138,_ZSt8distanceIPKcENSt15iterator_traitsIT_E15difference_typeES3_S3_
FNDA:0,_ZSt8distanceIPKcENSt15iterator_traitsIT_E15difference_typeES3_S3_
DA:98,0
DA:104,0
DA:98,0
DA:104,0
DA:138,0
DA:141,0
DA:142,0
DA:138,0
DA:141,0
DA:142,0
end_of_record
TN:
SF:/usr/include/boost/iterator/iterator_facade.hpp
FN:326,_ZN5boost9iterators6detail23operator_arrow_dispatchINS_9unit_test13basic_cstringIKcEEPS6_E5proxyC2ERKS6_
FNDA:0,_ZN5boost9iterators6detail23operator_arrow_dispatchINS_9unit_test13basic_cstringIKcEEPS6_E5proxyC2ERKS6_
FN:327,_ZN5boost9iterators6detail23operator_arrow_dispatchINS_9unit_test13basic_cstringIKcEEPS6_E5proxyptEv
FNDA:0,_ZN5boost9iterators6detail23operator_arrow_dispatchINS_9unit_test13basic_cstringIKcEEPS6_E5proxyptEv
FN:334,_ZN5boost9iterators6detail23operator_arrow_dispatchINS_9unit_test13basic_cstringIKcEEPS6_E5applyERKS6_
FNDA:0,_ZN5boost9iterators6detail23operator_arrow_dispatchINS_9unit_test13basic_cstringIKcEEPS6_E5applyERKS6_
FN:548,_ZN5boost9iterators20iterator_core_access11dereferenceINS_9unit_test5utils27basic_string_token_iteratorIcNS4_9ut_detail20default_char_compareIcEEEEEENT_9referenceERKSA_
FNDA:0,_ZN5boost9iterators20iterator_core_access11dereferenceINS_9unit_test5utils27basic_string_token_iteratorIcNS4_9ut_detail20default_char_compareIcEEEEEENT_9referenceERKSA_
FN:554,_ZN5boost9iterators20iterator_core_access9incrementINS_9unit_test5utils27basic_string_token_iteratorIcNS4_9ut_detail20default_char_compareIcEEEEEEvRT_
FNDA:0,_ZN5boost9iterators20iterator_core_access9incrementINS_9unit_test5utils27basic_string_token_iteratorIcNS4_9ut_detail20default_char_compareIcEEEEEEvRT_
FN:566,_ZN5boost9iterators20iterator_core_access5equalINS_9unit_test5utils27basic_string_token_iteratorIcNS4_9ut_detail20default_char_compareIcEEEES9_EEbRKT_RKT0_N4mpl_5bool_ILb1EEE
FNDA:0,_ZN5boost9iterators20iterator_core_access5equalINS_9unit_test5utils27basic_string_token_iteratorIcNS4_9ut_detail20default_char_compareIcEEEES9_EEbRKT_RKT0_N4mpl_5bool_ILb1EEE
FN:654,_ZNK5boost9iterators6detail20iterator_facade_baseINS_9unit_test5utils27basic_string_token_iteratorIcNS4_9ut_detail20default_char_compareIcEEEENS3_13basic_cstringIKcEENS0_21forward_traversal_tagESC_lLb0ELb0EEdeEv
FNDA:0,_ZNK5boost9iterators6detail20iterator_facade_baseINS_9unit_test5utils27basic_string_token_iteratorIcNS4_9ut_detail20default_char_compareIcEEEENS3_13basic_cstringIKcEENS0_21forward_traversal_tagESC_lLb0ELb0EEdeEv
FN:659,_ZNK5boost9iterators6detail20iterator_facade_baseINS_9unit_test5utils27basic_string_token_iteratorIcNS4_9ut_detail20default_char_compareIcEEEENS3_13basic_cstringIKcEENS0_21forward_traversal_tagESC_lLb0ELb0EEptEv
FNDA:0,_ZNK5boost9iterators6detail20iterator_facade_baseINS_9unit_test5utils27basic_string_token_iteratorIcNS4_9ut_detail20default_char_compareIcEEEENS3_13basic_cstringIKcEENS0_21forward_traversal_tagESC_lLb0ELb0EEptEv
FN:664,_ZN5boost9iterators6detail20iterator_facade_baseINS_9unit_test5utils27basic_string_token_iteratorIcNS4_9ut_detail20default_char_compareIcEEEENS3_13basic_cstringIKcEENS0_21forward_traversal_tagESC_lLb0ELb0EEppEv
FNDA:0,_ZN5boost9iterators6detail20iterator_facade_baseINS_9unit_test5utils27basic_string_token_iteratorIcNS4_9ut_detail20default_char_compareIcEEEENS3_13basic_cstringIKcEENS0_21forward_traversal_tagESC_lLb0ELb0EEppEv
FN:674,_ZN5boost9iterators6detail20iterator_facade_baseINS_9unit_test5utils27basic_string_token_iteratorIcNS4_9ut_detail20default_char_compareIcEEEENS3_13basic_cstringIKcEENS0_21forward_traversal_tagESC_lLb0ELb0EE7derivedEv
FNDA:0,_ZN5boost9iterators6detail20iterator_facade_baseINS_9unit_test5utils27basic_string_token_iteratorIcNS4_9ut_detail20default_char_compareIcEEEENS3_13basic_cstringIKcEENS0_21forward_traversal_tagESC_lLb0ELb0EE7derivedEv
FN:679,_ZNK5boost9iterators6detail20iterator_facade_baseINS_9unit_test5utils27basic_string_token_iteratorIcNS4_9ut_detail20default_char_compareIcEEEENS3_13basic_cstringIKcEENS0_21forward_traversal_tagESC_lLb0ELb0EE7derivedEv
FNDA:0,_ZNK5boost9iterators6detail20iterator_facade_baseINS_9unit_test5utils27basic_string_token_iteratorIcNS4_9ut_detail20default_char_compareIcEEEENS3_13basic_cstringIKcEENS0_21forward_traversal_tagESC_lLb0ELb0EE7derivedEv
FN:901,_ZN5boost9iteratorsneINS_9unit_test5utils27basic_string_token_iteratorIcNS3_9ut_detail20default_char_compareIcEEEENS2_13basic_cstringIKcEENS0_21forward_traversal_tagESB_lS8_SB_SC_SB_lEENS0_6detail23enable_if_interoperableIT_T4_NS_3mpl6apply2INSD_12always_bool2ESF_SG_E4typeEE4typeERKNS0_15iterator_facadeISF_T0_T1_T2_T3_EERKNSO_ISG_T5_T6_T7_T8_EE
FNDA:0,_ZN5boost9iteratorsneINS_9unit_test5utils27basic_string_token_iteratorIcNS3_9ut_detail20default_char_compareIcEEEENS2_13basic_cstringIKcEENS0_21forward_traversal_tagESB_lS8_SB_SC_SB_lEENS0_6detail23enable_if_interoperableIT_T4_NS_3mpl6apply2INSD_12always_bool2ESF_SG_E4typeEE4typeERKNS0_15iterator_facadeISF_T0_T1_T2_T3_EERKNSO_ISG_T5_T6_T7_T8_EE
DA:326,0
DA:327,0
DA:334,0
DA:336,0
DA:548,0
DA:550,0
DA:554,0
DA:556,0
DA:557,0
DA:566,0
DA:568,0
DA:654,0
DA:656,0
DA:659,0
DA:661,0
DA:664,0
DA:666,0
DA:667,0
DA:674,0
DA:676,0
DA:679,0
DA:681,0
DA:901,0
end_of_record
SF:/usr/include/boost/test/tree/traverse.hpp
FN:43,_ZN5boost9unit_test18traverse_test_treeERKNS0_9test_unitERNS0_17test_tree_visitorEb
FNDA:2,_ZN5boost9unit_test18traverse_test_treeERKNS0_9test_unitERNS0_17test_tree_visitorEb
DA:43,2
DA:45,2
DA:46,0
DA:48,2
DA:49,2
end_of_record
SF:/usr/include/boost/test/utils/custom_manip.hpp
FN:35,_ZN5boost9unit_test5utils14custom_printerINS1_12custom_manipINS0_6output12_GLOBAL__N_17quote_tEEEEC2ERSo
FNDA:0,_ZN5boost9unit_test5utils14custom_printerINS1_12custom_manipINS0_6output12_GLOBAL__N_17quote_tEEEEC2ERSo
FN:35,_ZN5boost9unit_test5utils14custom_printerINS1_12custom_manipINS1_7cdata_tEEEEC2ERSo
FNDA:0,_ZN5boost9unit_test5utils14custom_printerINS1_12custom_manipINS1_7cdata_tEEEEC2ERSo
FN:35,_ZN5boost9unit_test5utils14custom_printerINS1_12custom_manipINS1_12attr_value_tEEEEC2ERSo
FNDA:0,_ZN5boost9unit_test5utils14custom_printerINS1_12custom_manipINS1_12attr_value_tEEEEC2ERSo
FN:37,_ZNK5boost9unit_test5utils14custom_printerINS1_12custom_manipINS0_6output12_GLOBAL__N_17quote_tEEEEdeEv
FNDA:0,_ZNK5boost9unit_test5utils14custom_printerINS1_12custom_manipINS0_6output12_GLOBAL__N_17quote_tEEEEdeEv
FN:37,_ZNK5boost9unit_test5utils14custom_printerINS1_12custom_manipINS1_12attr_value_tEEEEdeEv
FNDA:0,_ZNK5boost9unit_test5utils14custom_printerINS1_12custom_manipINS1_12attr_value_tEEEEdeEv
FN:37,_ZNK5boost9unit_test5utils14custom_printerINS1_12custom_manipINS1_7cdata_tEEEEdeEv
FNDA:0,_ZNK5boost9unit_test5utils14custom_printerINS1_12custom_manipINS1_7cdata_tEEEEdeEv
FN:51,_ZN5boost9unit_test5utilslsINS0_6output12_GLOBAL__N_17quote_tEEENS1_14custom_printerINS1_12custom_manipIT_EEEERSoRKS9_
FNDA:0,_ZN5boost9unit_test5utilslsINS0_6output12_GLOBAL__N_17quote_tEEENS1_14custom_printerINS1_12custom_manipIT_EEEERSoRKS9_
FN:51,_ZN5boost9unit_test5utilslsINS1_7cdata_tEEENS1_14custom_printerINS1_12custom_manipIT_EEEERSoRKS7_
FNDA:0,_ZN5boost9unit_test5utilslsINS1_7cdata_tEEENS1_14custom_printerINS1_12custom_manipIT_EEEERSoRKS7_
FN:51,_ZN5boost9unit_test5utilslsINS1_12attr_value_tEEENS1_14custom_printerINS1_12custom_manipIT_EEEERSoRKS7_
FNDA:0,_ZN5boost9unit_test5utilslsINS1_12attr_value_tEEENS1_14custom_printerINS1_12custom_manipIT_EEEERSoRKS7_
DA:35,0
DA:35,0
DA:35,0
DA:37,0
DA:37,0
DA:37,0
DA:51,0
DA:51,0
DA:51,0
end_of_record
SF:/usr/include/c++/11/bits/allocated_ptr.h
FN:53,_ZNSt15__allocated_ptrISaISt10_List_nodeImEEEC2ERS2_PS1_
FNDA:0,_ZNSt15__allocated_ptrISaISt10_List_nodeImEEEC2ERS2_PS1_
FN:53,_ZNSt15__allocated_ptrISaISt10_List_nodeINSt7__cxx1112basic_stringIcSt11char_traitsIcESaIcEEEEEEC2ERS8_PS7_
FNDA:0,_ZNSt15__allocated_ptrISaISt10_List_nodeINSt7__cxx1112basic_stringIcSt11char_traitsIcESaIcEEEEEEC2ERS8_PS7_
FN:71,_ZNSt15__allocated_ptrISaISt10_List_nodeImEEED2Ev
FNDA:0,_ZNSt15__allocated_ptrISaISt10_List_nodeImEEED2Ev
FN:71,_ZNSt15__allocated_ptrISaISt10_List_nodeINSt7__cxx1112basic_stringIcSt11char_traitsIcESaIcEEEEEED2Ev
FNDA:0,_ZNSt15__allocated_ptrISaISt10_List_nodeINSt7__cxx1112basic_stringIcSt11char_traitsIcESaIcEEEEEED2Ev
FN:79,_ZNSt15__allocated_ptrISaISt10_List_nodeImEEEaSEDn
FNDA:0,_ZNSt15__allocated_ptrISaISt10_List_nodeImEEEaSEDn
FN:79,_ZNSt15__allocated_ptrISaISt10_List_nodeINSt7__cxx1112basic_stringIcSt11char_traitsIcESaIcEEEEEEaSEDn
FNDA:0,_ZNSt15__allocated_ptrISaISt10_List_nodeINSt7__cxx1112basic_stringIcSt11char_traitsIcESaIcEEEEEEaSEDn
DA:53,0
DA:54,0
DA:55,0
DA:53,0
DA:54,0
DA:55,0
DA:71,0
DA:73,0
DA:74,0
DA:75,0
DA:71,0
DA:73,0
DA:74,0
DA:75,0
DA:79,0
DA:81,0
DA:82,0
DA:79,0
DA:81,0
DA:82,0
end_of_record
SF:/usr/include/boost/algorithm/cxx11/all_of.hpp
FN:31,_ZN5boost9algorithm6all_ofIN9__gnu_cxx17__normal_iteratorIPcNSt7__cxx1112basic_stringIcSt11char_traitsIcESaIcEEEEEPFbcEEEbT_SE_T0_
FNDA:215,_ZN5boost9algorithm6all_ofIN9__gnu_cxx17__normal_iteratorIPcNSt7__cxx1112basic_stringIcSt11char_traitsIcESaIcEEEEEPFbcEEEbT_SE_T0_
DA:31,215
DA:33,1131
DA:34,916
DA:35,0
DA:36,215
end_of_record
SF:/usr/include/boost/smart_ptr/shared_ptr.hpp
FN:236,_ZN5boost6detail26sp_enable_shared_from_thisEz
FNDA:633,_ZN5boost6detail26sp_enable_shared_from_thisEz
FN:277,_ZN5boost6detail20sp_pointer_constructINS_7runtime11basic_paramENS2_14enum_parameterINS_9unit_test12report_levelELNS2_11args_amountE0EEEEEvPNS_10shared_ptrIT_EEPT0_RNS0_12shared_countE
FNDA:1,_ZN5boost6detail20sp_pointer_constructINS_7runtime11basic_paramENS2_14enum_parameterINS_9unit_test12report_levelELNS2_11args_amountE0EEEEEvPNS_10shared_ptrIT_EEPT0_RNS0_12shared_countE
FN:277,_ZN5boost6detail20sp_pointer_constructINS_16exception_detail15error_info_baseES3_EEvPNS_10shared_ptrIT_EEPT0_RNS0_12shared_countE
FNDA:0,_ZN5boost6detail20sp_pointer_constructINS_16exception_detail15error_info_baseES3_EEvPNS_10shared_ptrIT_EEPT0_RNS0_12shared_countE
FN:277,_ZN5boost6detail20sp_pointer_constructINS_7runtime8argumentENS2_14typed_argumentINS_9unit_test13output_formatEEEEEvPNS_10shared_ptrIT_EEPT0_RNS0_12shared_countE
FNDA:3,_ZN5boost6detail20sp_pointer_constructINS_7runtime8argumentENS2_14typed_argumentINS_9unit_test13output_formatEEEEEvPNS_10shared_ptrIT_EEPT0_RNS0_12shared_countE
FN:277,_ZN5boost6detail20sp_pointer_constructINS_7runtime3cla6parserES4_EEvPNS_10shared_ptrIT_EEPT0_RNS0_12shared_countE
FNDA:1,_ZN5boost6detail20sp_pointer_constructINS_7runtime3cla6parserES4_EEvPNS_10shared_ptrIT_EEPT0_RNS0_12shared_countE
FN:277,_ZN5boost6detail20sp_pointer_constructINS_7runtime8argumentENS2_14typed_argumentIbEEEEvPNS_10shared_ptrIT_EEPT0_RNS0_12shared_countE
FNDA:13,_ZN5boost6detail20sp_pointer_constructINS_7runtime8argumentENS2_14typed_argumentIbEEEEvPNS_10shared_ptrIT_EEPT0_RNS0_12shared_countE
FN:277,_ZN5boost6detail20sp_pointer_constructINS_9unit_test23unit_test_log_formatterES3_EEvPNS_10shared_ptrIT_EEPT0_RNS0_12shared_countE
FNDA:3,_ZN5boost6detail20sp_pointer_constructINS_9unit_test23unit_test_log_formatterES3_EEvPNS_10shared_ptrIT_EEPT0_RNS0_12shared_countE
FN:277,_ZN5boost6detail20sp_pointer_constructINS_23basic_wrap_stringstreamIcEES3_EEvPNS_10shared_ptrIT_EEPT0_RNS0_12shared_countE
FNDA:0,_ZN5boost6detail20sp_pointer_constructINS_23basic_wrap_stringstreamIcEES3_EEvPNS_10shared_ptrIT_EEPT0_RNS0_12shared_countE
FN:277,_ZN5boost6detail20sp_pointer_constructINS_7runtime3cla13rt_cla_detail14parameter_trieES5_EEvPNS_10shared_ptrIT_EEPT0_RNS0_12shared_countE
FNDA:572,_ZN5boost6detail20sp_pointer_constructINS_7runtime3cla13rt_cla_detail14parameter_trieES5_EEvPNS_10shared_ptrIT_EEPT0_RNS0_12shared_countE
FN:277,_ZN5boost6detail20sp_pointer_constructINS_7runtime11basic_paramENS2_6optionEEEvPNS_10shared_ptrIT_EEPT0_RNS0_12shared_countE
FNDA:13,_ZN5boost6detail20sp_pointer_constructINS_7runtime11basic_paramENS2_6optionEEEvPNS_10shared_ptrIT_EEPT0_RNS0_12shared_countE
FN:277,_ZN5boost6detail20sp_pointer_constructINS_2io18ios_base_all_saverES3_EEvPNS_10shared_ptrIT_EEPT0_RNS0_12shared_countE
FNDA:6,_ZN5boost6detail20sp_pointer_constructINS_2io18ios_base_all_saverES3_EEvPNS_10shared_ptrIT_EEPT0_RNS0_12shared_countE
FN:277,_ZN5boost6detail20sp_pointer_constructINS_7runtime8argumentENS2_14typed_argumentINSt7__cxx1112basic_stringIcSt11char_traitsIcESaIcEEEEEEEvPNS_10shared_ptrIT_EEPT0_RNS0_12shared_countE
FNDA:1,_ZN5boost6detail20sp_pointer_constructINS_7runtime8argumentENS2_14typed_argumentINSt7__cxx1112basic_stringIcSt11char_traitsIcESaIcEEEEEEEvPNS_10shared_ptrIT_EEPT0_RNS0_12shared_countE
FN:277,_ZN5boost6detail20sp_pointer_constructINS_9unit_test17test_unit_fixtureENS2_9framework4impl21global_fixture_handleEEEvPNS_10shared_ptrIT_EEPT0_RNS0_12shared_countE
FNDA:0,_ZN5boost6detail20sp_pointer_constructINS_9unit_test17test_unit_fixtureENS2_9framework4impl21global_fixture_handleEEEvPNS_10shared_ptrIT_EEPT0_RNS0_12shared_countE
FN:277,_ZN5boost6detail20sp_pointer_constructINS_9unit_test9decorator4baseENS3_12preconditionEEEvPNS_10shared_ptrIT_EEPT0_RNS0_12shared_countE
FNDA:0,_ZN5boost6detail20sp_pointer_constructINS_9unit_test9decorator4baseENS3_12preconditionEEEvPNS_10shared_ptrIT_EEPT0_RNS0_12shared_countE
FN:277,_ZN5boost6detail20sp_pointer_constructINS_9unit_test9decorator4baseENS3_9fixture_tEEEvPNS_10shared_ptrIT_EEPT0_RNS0_12shared_countE
FNDA:0,_ZN5boost6detail20sp_pointer_constructINS_9unit_test9decorator4baseENS3_9fixture_tEEEvPNS_10shared_ptrIT_EEPT0_RNS0_12shared_countE
FN:277,_ZN5boost6detail20sp_pointer_constructINS_9unit_test9decorator4baseENS3_10depends_onEEEvPNS_10shared_ptrIT_EEPT0_RNS0_12shared_countE
FNDA:0,_ZN5boost6detail20sp_pointer_constructINS_9unit_test9decorator4baseENS3_10depends_onEEEvPNS_10shared_ptrIT_EEPT0_RNS0_12shared_countE
FN:277,_ZN5boost6detail20sp_pointer_constructINS_9unit_test9decorator4baseENS3_11descriptionEEEvPNS_10shared_ptrIT_EEPT0_RNS0_12shared_countE
FNDA:0,_ZN5boost6detail20sp_pointer_constructINS_9unit_test9decorator4baseENS3_11descriptionEEEvPNS_10shared_ptrIT_EEPT0_RNS0_12shared_countE
FN:277,_ZN5boost6detail20sp_pointer_constructINS_9unit_test9decorator4baseENS3_7timeoutEEEvPNS_10shared_ptrIT_EEPT0_RNS0_12shared_countE
FNDA:0,_ZN5boost6detail20sp_pointer_constructINS_9unit_test9decorator4baseENS3_7timeoutEEEvPNS_10shared_ptrIT_EEPT0_RNS0_12shared_countE
FN:277,_ZN5boost6detail20sp_pointer_constructINS_9unit_test9decorator4baseENS3_17expected_failuresEEEvPNS_10shared_ptrIT_EEPT0_RNS0_12shared_countE
FNDA:0,_ZN5boost6detail20sp_pointer_constructINS_9unit_test9decorator4baseENS3_17expected_failuresEEEvPNS_10shared_ptrIT_EEPT0_RNS0_12shared_countE
FN:277,_ZN5boost6detail20sp_pointer_constructINS_9unit_test9decorator4baseENS3_5labelEEEvPNS_10shared_ptrIT_EEPT0_RNS0_12shared_countE
FNDA:0,_ZN5boost6detail20sp_pointer_constructINS_9unit_test9decorator4baseENS3_5labelEEEvPNS_10shared_ptrIT_EEPT0_RNS0_12shared_countE
FN:277,_ZN5boost6detail20sp_pointer_constructINS_9unit_test9decorator4baseENS3_15stack_decoratorEEEvPNS_10shared_ptrIT_EEPT0_RNS0_12shared_countE
FNDA:0,_ZN5boost6detail20sp_pointer_constructINS_9unit_test9decorator4baseENS3_15stack_decoratorEEEvPNS_10shared_ptrIT_EEPT0_RNS0_12shared_countE
FN:277,_ZN5boost6detail20sp_pointer_constructINS_7runtime8argumentENS2_14typed_argumentISt6vectorINSt7__cxx1112basic_stringIcSt11char_traitsIcESaIcEEESaISB_EEEEEEvPNS_10shared_ptrIT_EEPT0_RNS0_12shared_countE
FNDA:2,_ZN5boost6detail20sp_pointer_constructINS_7runtime8argumentENS2_14typed_argumentISt6vectorINSt7__cxx1112basic_stringIcSt11char_traitsIcESaIcEEESaISB_EEEEEEvPNS_10shared_ptrIT_EEPT0_RNS0_12shared_countE
FN:277,_ZN5boost6detail20sp_pointer_constructINS_7runtime8argumentENS2_14typed_argumentImEEEEvPNS_10shared_ptrIT_EEPT0_RNS0_12shared_countE
FNDA:1,_ZN5boost6detail20sp_pointer_constructINS_7runtime8argumentENS2_14typed_argumentImEEEEvPNS_10shared_ptrIT_EEPT0_RNS0_12shared_countE
FN:277,_ZN5boost6detail20sp_pointer_constructINS_7runtime8argumentENS2_14typed_argumentINS_9unit_test9log_levelEEEEEvPNS_10shared_ptrIT_EEPT0_RNS0_12shared_countE
FNDA:1,_ZN5boost6detail20sp_pointer_constructINS_7runtime8argumentENS2_14typed_argumentINS_9unit_test9log_levelEEEEEvPNS_10shared_ptrIT_EEPT0_RNS0_12shared_countE
FN:277,_ZN5boost6detail20sp_pointer_constructINS_7runtime11basic_paramENS2_9parameterINS_9unit_test12report_levelELNS2_11args_amountE0ELb1EEEEEvPNS_10shared_ptrIT_EEPT0_RNS0_12shared_countE
FNDA:0,_ZN5boost6detail20sp_pointer_constructINS_7runtime11basic_paramENS2_9parameterINS_9unit_test12report_levelELNS2_11args_amountE0ELb1EEEEEvPNS_10shared_ptrIT_EEPT0_RNS0_12shared_countE
FN:277,_ZN5boost6detail20sp_pointer_constructINS_7runtime8argumentENS2_14typed_argumentIjEEEEvPNS_10shared_ptrIT_EEPT0_RNS0_12shared_countE
FNDA:1,_ZN5boost6detail20sp_pointer_constructINS_7runtime8argumentENS2_14typed_argumentIjEEEEvPNS_10shared_ptrIT_EEPT0_RNS0_12shared_countE
FN:277,_ZN5boost6detail20sp_pointer_constructINS_7runtime8argumentENS2_14typed_argumentINS_9unit_test12report_levelEEEEEvPNS_10shared_ptrIT_EEPT0_RNS0_12shared_countE
FNDA:1,_ZN5boost6detail20sp_pointer_constructINS_7runtime8argumentENS2_14typed_argumentINS_9unit_test12report_levelEEEEEvPNS_10shared_ptrIT_EEPT0_RNS0_12shared_countE
FN:277,_ZN5boost6detail20sp_pointer_constructINS_7runtime11basic_paramENS2_9parameterINSt7__cxx1112basic_stringIcSt11char_traitsIcESaIcEEELNS2_11args_amountE0ELb0EEEEEvPNS_10shared_ptrIT_EEPT0_RNS0_12shared_countE
FNDA:5,_ZN5boost6detail20sp_pointer_constructINS_7runtime11basic_paramENS2_9parameterINSt7__cxx1112basic_stringIcSt11char_traitsIcESaIcEEELNS2_11args_amountE0ELb0EEEEEvPNS_10shared_ptrIT_EEPT0_RNS0_12shared_countE
FN:277,_ZN5boost6detail20sp_pointer_constructINS_7runtime11basic_paramENS2_9parameterImLNS2_11args_amountE0ELb0EEEEEvPNS_10shared_ptrIT_EEPT0_RNS0_12shared_countE
FNDA:1,_ZN5boost6detail20sp_pointer_constructINS_7runtime11basic_paramENS2_9parameterImLNS2_11args_amountE0ELb0EEEEEvPNS_10shared_ptrIT_EEPT0_RNS0_12shared_countE
FN:277,_ZN5boost6detail20sp_pointer_constructINS_7runtime11basic_paramENS2_9parameterINS_9unit_test13output_formatELNS2_11args_amountE0ELb1EEEEEvPNS_10shared_ptrIT_EEPT0_RNS0_12shared_countE
FNDA:0,_ZN5boost6detail20sp_pointer_constructINS_7runtime11basic_paramENS2_9parameterINS_9unit_test13output_formatELNS2_11args_amountE0ELb1EEEEEvPNS_10shared_ptrIT_EEPT0_RNS0_12shared_countE
FN:277,_ZN5boost6detail20sp_pointer_constructINS_7runtime11basic_paramENS2_14enum_parameterINS_9unit_test13output_formatELNS2_11args_amountE0EEEEEvPNS_10shared_ptrIT_EEPT0_RNS0_12shared_countE
FNDA:4,_ZN5boost6detail20sp_pointer_constructINS_7runtime11basic_paramENS2_14enum_parameterINS_9unit_test13output_formatELNS2_11args_amountE0EEEEEvPNS_10shared_ptrIT_EEPT0_RNS0_12shared_countE
FN:277,_ZN5boost6detail20sp_pointer_constructINS_7runtime11basic_paramENS2_9parameterINS_9unit_test9log_levelELNS2_11args_amountE0ELb1EEEEEvPNS_10shared_ptrIT_EEPT0_RNS0_12shared_countE
FNDA:0,_ZN5boost6detail20sp_pointer_constructINS_7runtime11basic_paramENS2_9parameterINS_9unit_test9log_levelELNS2_11args_amountE0ELb1EEEEEvPNS_10shared_ptrIT_EEPT0_RNS0_12shared_countE
FN:277,_ZN5boost6detail20sp_pointer_constructINS_7runtime11basic_paramENS2_14enum_parameterINS_9unit_test9log_levelELNS2_11args_amountE0EEEEEvPNS_10shared_ptrIT_EEPT0_RNS0_12shared_countE
FNDA:1,_ZN5boost6detail20sp_pointer_constructINS_7runtime11basic_paramENS2_14enum_parameterINS_9unit_test9log_levelELNS2_11args_amountE0EEEEEvPNS_10shared_ptrIT_EEPT0_RNS0_12shared_countE
FN:277,_ZN5boost6detail20sp_pointer_constructINS_7runtime11basic_paramENS2_9parameterINSt7__cxx1112basic_stringIcSt11char_traitsIcESaIcEEELNS2_11args_amountE2ELb0EEEEEvPNS_10shared_ptrIT_EEPT0_RNS0_12shared_countE
FNDA:2,_ZN5boost6detail20sp_pointer_constructINS_7runtime11basic_paramENS2_9parameterINSt7__cxx1112basic_stringIcSt11char_traitsIcESaIcEEELNS2_11args_amountE2ELb0EEEEEvPNS_10shared_ptrIT_EEPT0_RNS0_12shared_countE
FN:277,_ZN5boost6detail20sp_pointer_constructINS_7runtime11basic_paramENS2_9parameterIjLNS2_11args_amountE0ELb0EEEEEvPNS_10shared_ptrIT_EEPT0_RNS0_12shared_countE
FNDA:1,_ZN5boost6detail20sp_pointer_constructINS_7runtime11basic_paramENS2_9parameterIjLNS2_11args_amountE0ELb0EEEEEvPNS_10shared_ptrIT_EEPT0_RNS0_12shared_countE
FN:301,_ZN5boost6detail20sp_deleter_constructINS_9unit_test14runtime_config13stream_holder16callback_cleanerES5_EEvPNS_10shared_ptrIT_EEPT0_
FNDA:0,_ZN5boost6detail20sp_deleter_constructINS_9unit_test14runtime_config13stream_holder16callback_cleanerES5_EEvPNS_10shared_ptrIT_EEPT0_
FN:346,_ZN5boost10shared_ptrINS_7runtime3cla13rt_cla_detail14parameter_trieEEC1Ev
FNDA:3,_ZN5boost10shared_ptrINS_7runtime3cla13rt_cla_detail14parameter_trieEEC1Ev
FN:346,_ZN5boost10shared_ptrINS_7runtime11basic_paramEEC2Ev
FNDA:678,_ZN5boost10shared_ptrINS_7runtime11basic_paramEEC2Ev
FN:346,_ZN5boost10shared_ptrINS_9unit_test23unit_test_log_formatterEEC2Ev
FNDA:3,_ZN5boost10shared_ptrINS_9unit_test23unit_test_log_formatterEEC2Ev
FN:346,_ZN5boost10shared_ptrINS_7runtime8argumentEEC2Ev
FNDA:23,_ZN5boost10shared_ptrINS_7runtime8argumentEEC2Ev
FN:346,_ZN5boost10shared_ptrINS_6detail22translator_holder_baseEEC2Ev
FNDA:2,_ZN5boost10shared_ptrINS_6detail22translator_holder_baseEEC2Ev
FN:346,_ZN5boost10shared_ptrINS_16exception_detail15error_info_baseEEC2Ev
FNDA:0,_ZN5boost10shared_ptrINS_16exception_detail15error_info_baseEEC2Ev
FN:346,_ZN5boost10shared_ptrINS_23basic_wrap_stringstreamIcEEEC2Ev
FNDA:29,_ZN5boost10shared_ptrINS_23basic_wrap_stringstreamIcEEEC2Ev
FN:346,_ZN5boost10shared_ptrINS_9unit_test14runtime_config13stream_holder16callback_cleanerEEC2Ev
FNDA:3,_ZN5boost10shared_ptrINS_9unit_test14runtime_config13stream_holder16callback_cleanerEEC2Ev
FN:371,_ZN5boost10shared_ptrINS_7runtime11basic_paramEEC2INS1_9parameterINSt7__cxx1112basic_stringIcSt11char_traitsIcESaIcEEELNS1_11args_amountE0ELb0EEEEEPT_
FNDA:5,_ZN5boost10shared_ptrINS_7runtime11basic_paramEEC2INS1_9parameterINSt7__cxx1112basic_stringIcSt11char_traitsIcESaIcEEELNS1_11args_amountE0ELb0EEEEEPT_
FN:371,_ZN5boost10shared_ptrINS_7runtime11basic_paramEEC2INS1_14enum_parameterINS_9unit_test9log_levelELNS1_11args_amountE0EEEEEPT_
FNDA:1,_ZN5boost10shared_ptrINS_7runtime11basic_paramEEC2INS1_14enum_parameterINS_9unit_test9log_levelELNS1_11args_amountE0EEEEEPT_
FN:371,_ZN5boost10shared_ptrINS_7runtime8argumentEEC2INS1_14typed_argumentINS_9unit_test12report_levelEEEEEPT_
FNDA:1,_ZN5boost10shared_ptrINS_7runtime8argumentEEC2INS1_14typed_argumentINS_9unit_test12report_levelEEEEEPT_
FN:371,_ZN5boost10shared_ptrINS_7runtime8argumentEEC2INS1_14typed_argumentIjEEEEPT_
FNDA:1,_ZN5boost10shared_ptrINS_7runtime8argumentEEC2INS1_14typed_argumentIjEEEEPT_
FN:371,_ZN5boost10shared_ptrINS_7runtime8argumentEEC2INS1_14typed_argumentISt6vectorINSt7__cxx1112basic_stringIcSt11char_traitsIcESaIcEEESaISC_EEEEEEPT_
FNDA:2,_ZN5boost10shared_ptrINS_7runtime8argumentEEC2INS1_14typed_argumentISt6vectorINSt7__cxx1112basic_stringIcSt11char_traitsIcESaIcEEESaISC_EEEEEEPT_
FN:371,_ZN5boost10shared_ptrINS_7runtime8argumentEEC2INS1_14typed_argumentINS_9unit_test9log_levelEEEEEPT_
FNDA:1,_ZN5boost10shared_ptrINS_7runtime8argumentEEC2INS1_14typed_argumentINS_9unit_test9log_levelEEEEEPT_
FN:371,_ZN5boost10shared_ptrINS_7runtime8argumentEEC2INS1_14typed_argumentImEEEEPT_
FNDA:1,_ZN5boost10shared_ptrINS_7runtime8argumentEEC2INS1_14typed_argumentImEEEEPT_
FN:371,_ZN5boost10shared_ptrINS_7runtime8argumentEEC2INS1_14typed_argumentINSt7__cxx1112basic_stringIcSt11char_traitsIcESaIcEEEEEEEPT_
FNDA:1,_ZN5boost10shared_ptrINS_7runtime8argumentEEC2INS1_14typed_argumentINSt7__cxx1112basic_stringIcSt11char_traitsIcESaIcEEEEEEEPT_
FN:371,_ZN5boost10shared_ptrINS_7runtime11basic_paramEEC2INS1_9parameterINS_9unit_test9log_levelELNS1_11args_amountE0ELb1EEEEEPT_
FNDA:0,_ZN5boost10shared_ptrINS_7runtime11basic_paramEEC2INS1_9parameterINS_9unit_test9log_levelELNS1_11args_amountE0ELb1EEEEEPT_
FN:371,_ZN5boost10shared_ptrINS_7runtime11basic_paramEEC2INS1_14enum_parameterINS_9unit_test13output_formatELNS1_11args_amountE0EEEEEPT_
FNDA:4,_ZN5boost10shared_ptrINS_7runtime11basic_paramEEC2INS1_14enum_parameterINS_9unit_test13output_formatELNS1_11args_amountE0EEEEEPT_
FN:371,_ZN5boost10shared_ptrINS_7runtime11basic_paramEEC2INS1_9parameterINS_9unit_test13output_formatELNS1_11args_amountE0ELb1EEEEEPT_
FNDA:0,_ZN5boost10shared_ptrINS_7runtime11basic_paramEEC2INS1_9parameterINS_9unit_test13output_formatELNS1_11args_amountE0ELb1EEEEEPT_
FN:371,_ZN5boost10shared_ptrINS_7runtime11basic_paramEEC2INS1_9parameterImLNS1_11args_amountE0ELb0EEEEEPT_
FNDA:1,_ZN5boost10shared_ptrINS_7runtime11basic_paramEEC2INS1_9parameterImLNS1_11args_amountE0ELb0EEEEEPT_
FN:371,_ZN5boost10shared_ptrINS_23basic_wrap_stringstreamIcEEEC2IS2_EEPT_
FNDA:0,_ZN5boost10shared_ptrINS_23basic_wrap_stringstreamIcEEEC2IS2_EEPT_
FN:371,_ZN5boost10shared_ptrINS_7runtime3cla13rt_cla_detail14parameter_trieEEC2IS4_EEPT_
FNDA:572,_ZN5boost10shared_ptrINS_7runtime3cla13rt_cla_detail14parameter_trieEEC2IS4_EEPT_
FN:371,_ZN5boost10shared_ptrINS_9unit_test9decorator4baseEEC2INS2_7timeoutEEEPT_
FNDA:0,_ZN5boost10shared_ptrINS_9unit_test9decorator4baseEEC2INS2_7timeoutEEEPT_
FN:371,_ZN5boost10shared_ptrINS_7runtime11basic_paramEEC2INS1_6optionEEEPT_
FNDA:13,_ZN5boost10shared_ptrINS_7runtime11basic_paramEEC2INS1_6optionEEEPT_
FN:371,_ZN5boost10shared_ptrINS_9unit_test9decorator4baseEEC2INS2_15stack_decoratorEEEPT_
FNDA:0,_ZN5boost10shared_ptrINS_9unit_test9decorator4baseEEC2INS2_15stack_decoratorEEEPT_
FN:371,_ZN5boost10shared_ptrINS_2io18ios_base_all_saverEEC2IS2_EEPT_
FNDA:6,_ZN5boost10shared_ptrINS_2io18ios_base_all_saverEEC2IS2_EEPT_
FN:371,_ZN5boost10shared_ptrINS_9unit_test9decorator4baseEEC2INS2_5labelEEEPT_
FNDA:0,_ZN5boost10shared_ptrINS_9unit_test9decorator4baseEEC2INS2_5labelEEEPT_
FN:371,_ZN5boost10shared_ptrINS_16exception_detail15error_info_baseEEC2IS2_EEPT_
FNDA:0,_ZN5boost10shared_ptrINS_16exception_detail15error_info_baseEEC2IS2_EEPT_
FN:371,_ZN5boost10shared_ptrINS_9unit_test9decorator4baseEEC2INS2_17expected_failuresEEEPT_
FNDA:0,_ZN5boost10shared_ptrINS_9unit_test9decorator4baseEEC2INS2_17expected_failuresEEEPT_
FN:371,_ZN5boost10shared_ptrINS_9unit_test17test_unit_fixtureEEC2INS1_9framework4impl21global_fixture_handleEEEPT_
FNDA:0,_ZN5boost10shared_ptrINS_9unit_test17test_unit_fixtureEEC2INS1_9framework4impl21global_fixture_handleEEEPT_
FN:371,_ZN5boost10shared_ptrINS_9unit_test9decorator4baseEEC2INS2_12preconditionEEEPT_
FNDA:0,_ZN5boost10shared_ptrINS_9unit_test9decorator4baseEEC2INS2_12preconditionEEEPT_
FN:371,_ZN5boost10shared_ptrINS_9unit_test9decorator4baseEEC2INS2_9fixture_tEEEPT_
FNDA:0,_ZN5boost10shared_ptrINS_9unit_test9decorator4baseEEC2INS2_9fixture_tEEEPT_
FN:371,_ZN5boost10shared_ptrINS_9unit_test9decorator4baseEEC2INS2_10depends_onEEEPT_
FNDA:0,_ZN5boost10shared_ptrINS_9unit_test9decorator4baseEEC2INS2_10depends_onEEEPT_
FN:371,_ZN5boost10shared_ptrINS_9unit_test9decorator4baseEEC2INS2_11descriptionEEEPT_
FNDA:0,_ZN5boost10shared_ptrINS_9unit_test9decorator4baseEEC2INS2_11descriptionEEEPT_
FN:371,_ZN5boost10shared_ptrINS_9unit_test23unit_test_log_formatterEEC2IS2_EEPT_
FNDA:3,_ZN5boost10shared_ptrINS_9unit_test23unit_test_log_formatterEEC2IS2_EEPT_
FN:371,_ZN5boost10shared_ptrINS_7runtime11basic_paramEEC2INS1_9parameterINSt7__cxx1112basic_stringIcSt11char_traitsIcESaIcEEELNS1_11args_amountE2ELb0EEEEEPT_
FNDA:2,_ZN5boost10shared_ptrINS_7runtime11basic_paramEEC2INS1_9parameterINSt7__cxx1112basic_stringIcSt11char_traitsIcESaIcEEELNS1_11args_amountE2ELb0EEEEEPT_
FN:371,_ZN5boost10shared_ptrINS_7runtime11basic_paramEEC2INS1_14enum_parameterINS_9unit_test12report_levelELNS1_11args_amountE0EEEEEPT_
FNDA:1,_ZN5boost10shared_ptrINS_7runtime11basic_paramEEC2INS1_14enum_parameterINS_9unit_test12report_levelELNS1_11args_amountE0EEEEEPT_
FN:371,_ZN5boost10shared_ptrINS_7runtime8argumentEEC2INS1_14typed_argumentIbEEEEPT_
FNDA:13,_ZN5boost10shared_ptrINS_7runtime8argumentEEC2INS1_14typed_argumentIbEEEEPT_
FN:371,_ZN5boost10shared_ptrINS_7runtime11basic_paramEEC2INS1_9parameterINS_9unit_test12report_levelELNS1_11args_amountE0ELb1EEEEEPT_
FNDA:0,_ZN5boost10shared_ptrINS_7runtime11basic_paramEEC2INS1_9parameterINS_9unit_test12report_levelELNS1_11args_amountE0ELb1EEEEEPT_
FN:371,_ZN5boost10shared_ptrINS_7runtime11basic_paramEEC2INS1_9parameterIjLNS1_11args_amountE0ELb0EEEEEPT_
FNDA:1,_ZN5boost10shared_ptrINS_7runtime11basic_paramEEC2INS1_9parameterIjLNS1_11args_amountE0ELb0EEEEEPT_
FN:371,_ZN5boost10shared_ptrINS_7runtime8argumentEEC2INS1_14typed_argumentINS_9unit_test13output_formatEEEEEPT_
FNDA:3,_ZN5boost10shared_ptrINS_7runtime8argumentEEC2INS1_14typed_argumentINS_9unit_test13output_formatEEEEEPT_
FN:371,_ZN5boost10shared_ptrINS_7runtime3cla6parserEEC2IS3_EEPT_
FNDA:1,_ZN5boost10shared_ptrINS_7runtime3cla6parserEEC2IS3_EEPT_
FN:382,_ZN5boost10shared_ptrINS_9unit_test14runtime_config13stream_holder16callback_cleanerEEC2IS4_NS_6detail14sp_inplace_tagINS7_13sp_ms_deleterIS4_EEEEEEPT_T0_
FNDA:0,_ZN5boost10shared_ptrINS_9unit_test14runtime_config13stream_holder16callback_cleanerEEC2IS4_NS_6detail14sp_inplace_tagINS7_13sp_ms_deleterIS4_EEEEEEPT_T0_
FN:416,_ZN5boost10shared_ptrINS_7runtime3cla13rt_cla_detail14parameter_trieEEC2ERKS5_
FNDA:749,_ZN5boost10shared_ptrINS_7runtime3cla13rt_cla_detail14parameter_trieEEC2ERKS5_
FN:416,_ZN5boost10shared_ptrINS_9unit_test17test_unit_fixtureEEC2ERKS3_
FNDA:0,_ZN5boost10shared_ptrINS_9unit_test17test_unit_fixtureEEC2ERKS3_
FN:416,_ZN5boost10shared_ptrINS_16exception_detail15error_info_baseEEC2ERKS3_
FNDA:0,_ZN5boost10shared_ptrINS_16exception_detail15error_info_baseEEC2ERKS3_
FN:416,_ZN5boost10shared_ptrINS_9unit_test19test_unit_generatorEEC2ERKS3_
FNDA:0,_ZN5boost10shared_ptrINS_9unit_test19test_unit_generatorEEC2ERKS3_
FN:416,_ZN5boost10shared_ptrINS_7runtime11basic_paramEEC2ERKS3_
FNDA:1356,_ZN5boost10shared_ptrINS_7runtime11basic_paramEEC2ERKS3_
FN:416,_ZN5boost10shared_ptrINS_9unit_test9decorator4baseEEC2ERKS4_
FNDA:0,_ZN5boost10shared_ptrINS_9unit_test9decorator4baseEEC2ERKS4_
FN:416,_ZN5boost10shared_ptrINS_7runtime8argumentEEC2ERKS3_
FNDA:66,_ZN5boost10shared_ptrINS_7runtime8argumentEEC2ERKS3_
FN:458,_ZN5boost10shared_ptrINS_9unit_test14runtime_config13stream_holder16callback_cleanerEEC2IS4_EERKNS0_IT_EEPS4_
FNDA:0,_ZN5boost10shared_ptrINS_9unit_test14runtime_config13stream_holder16callback_cleanerEEC2IS4_EERKNS0_IT_EEPS4_
FN:541,_ZN5boost10shared_ptrINS_7runtime11basic_paramEEaSERKS3_
FNDA:569,_ZN5boost10shared_ptrINS_7runtime11basic_paramEEaSERKS3_
FN:541,_ZN5boost10shared_ptrINS_9unit_test9decorator4baseEEaSERKS4_
FNDA:0,_ZN5boost10shared_ptrINS_9unit_test9decorator4baseEEaSERKS4_
FN:541,_ZN5boost10shared_ptrINS_16exception_detail15error_info_baseEEaSERKS3_
FNDA:0,_ZN5boost10shared_ptrINS_16exception_detail15error_info_baseEEaSERKS3_
FN:541,_ZN5boost10shared_ptrINS_7runtime3cla13rt_cla_detail14parameter_trieEEaSERKS5_
FNDA:3,_ZN5boost10shared_ptrINS_7runtime3cla13rt_cla_detail14parameter_trieEEaSERKS5_
FN:628,_ZN5boost10shared_ptrINS_9unit_test14runtime_config13stream_holder16callback_cleanerEEC2EOS5_
FNDA:0,_ZN5boost10shared_ptrINS_9unit_test14runtime_config13stream_holder16callback_cleanerEEC2EOS5_
FN:628,_ZN5boost10shared_ptrINS_16exception_detail15error_info_baseEEC2EOS3_
FNDA:0,_ZN5boost10shared_ptrINS_16exception_detail15error_info_baseEEC2EOS3_
FN:628,_ZN5boost10shared_ptrINS_7runtime8argumentEEC2EOS3_
FNDA:23,_ZN5boost10shared_ptrINS_7runtime8argumentEEC2EOS3_
FN:628,_ZN5boost10shared_ptrINS_9unit_test23unit_test_log_formatterEEC2EOS3_
FNDA:6,_ZN5boost10shared_ptrINS_9unit_test23unit_test_log_formatterEEC2EOS3_
FN:628,_ZN5boost10shared_ptrINS_23basic_wrap_stringstreamIcEEEC2EOS3_
FNDA:0,_ZN5boost10shared_ptrINS_23basic_wrap_stringstreamIcEEEC2EOS3_
FN:628,_ZN5boost10shared_ptrINS_9unit_test19test_unit_generatorEEC2EOS3_
FNDA:0,_ZN5boost10shared_ptrINS_9unit_test19test_unit_generatorEEC2EOS3_
FN:628,_ZN5boost10shared_ptrINS_2io18ios_base_all_saverEEC2EOS3_
FNDA:6,_ZN5boost10shared_ptrINS_2io18ios_base_all_saverEEC2EOS3_
FN:628,_ZN5boost10shared_ptrINS_7runtime3cla13rt_cla_detail14parameter_trieEEC2EOS5_
FNDA:1816,_ZN5boost10shared_ptrINS_7runtime3cla13rt_cla_detail14parameter_trieEEC2EOS5_
FN:628,_ZN5boost10shared_ptrINS_7runtime11basic_paramEEC2EOS3_
FNDA:28,_ZN5boost10shared_ptrINS_7runtime11basic_paramEEC2EOS3_
FN:628,_ZN5boost10shared_ptrINS_9unit_test9decorator4baseEEC2EOS4_
FNDA:0,_ZN5boost10shared_ptrINS_9unit_test9decorator4baseEEC2EOS4_
FN:628,_ZN5boost10shared_ptrINS_9unit_test17test_unit_fixtureEEC2EOS3_
FNDA:0,_ZN5boost10shared_ptrINS_9unit_test17test_unit_fixtureEEC2EOS3_
FN:652,_ZN5boost10shared_ptrINS_7runtime3cla13rt_cla_detail14parameter_trieEEaSEOS5_
FNDA:678,_ZN5boost10shared_ptrINS_7runtime3cla13rt_cla_detail14parameter_trieEEaSEOS5_
FN:652,_ZN5boost10shared_ptrINS_9unit_test17test_unit_fixtureEEaSEOS3_
FNDA:0,_ZN5boost10shared_ptrINS_9unit_test17test_unit_fixtureEEaSEOS3_
FN:652,_ZN5boost10shared_ptrINS_9unit_test9decorator4baseEEaSEOS4_
FNDA:0,_ZN5boost10shared_ptrINS_9unit_test9decorator4baseEEaSEOS4_
FN:652,_ZN5boost10shared_ptrINS_9unit_test23unit_test_log_formatterEEaSEOS3_
FNDA:0,_ZN5boost10shared_ptrINS_9unit_test23unit_test_log_formatterEEaSEOS3_
FN:652,_ZN5boost10shared_ptrINS_7runtime8argumentEEaSEOS3_
FNDA:23,_ZN5boost10shared_ptrINS_7runtime8argumentEEaSEOS3_
FN:652,_ZN5boost10shared_ptrINS_2io18ios_base_all_saverEEaSEOS3_
FNDA:0,_ZN5boost10shared_ptrINS_2io18ios_base_all_saverEEaSEOS3_
FN:652,_ZN5boost10shared_ptrINS_9unit_test14runtime_config13stream_holder16callback_cleanerEEaSEOS5_
FNDA:0,_ZN5boost10shared_ptrINS_9unit_test14runtime_config13stream_holder16callback_cleanerEEaSEOS5_
FN:685,_ZN5boost10shared_ptrINS_7runtime11basic_paramEE5resetEv
FNDA:106,_ZN5boost10shared_ptrINS_7runtime11basic_paramEE5resetEv
FN:685,_ZN5boost10shared_ptrINS_9unit_test14runtime_config13stream_holder16callback_cleanerEE5resetEv
FNDA:1,_ZN5boost10shared_ptrINS_9unit_test14runtime_config13stream_holder16callback_cleanerEE5resetEv
FN:685,_ZN5boost10shared_ptrINS_7runtime3cla13rt_cla_detail14parameter_trieEE5resetEv
FNDA:0,_ZN5boost10shared_ptrINS_7runtime3cla13rt_cla_detail14parameter_trieEE5resetEv
FN:690,_ZN5boost10shared_ptrINS_2io18ios_base_all_saverEE5resetIS2_EEvPT_
FNDA:3,_ZN5boost10shared_ptrINS_2io18ios_base_all_saverEE5resetIS2_EEvPT_
FN:690,_ZN5boost10shared_ptrINS_23basic_wrap_stringstreamIcEEE5resetIS2_EEvPT_
FNDA:0,_ZN5boost10shared_ptrINS_23basic_wrap_stringstreamIcEEE5resetIS2_EEvPT_
FN:690,_ZN5boost10shared_ptrINS_7runtime3cla6parserEE5resetIS3_EEvPT_
FNDA:1,_ZN5boost10shared_ptrINS_7runtime3cla6parserEE5resetIS3_EEvPT_
FN:690,_ZN5boost10shared_ptrINS_9unit_test23unit_test_log_formatterEE5resetIS2_EEvPT_
FNDA:3,_ZN5boost10shared_ptrINS_9unit_test23unit_test_log_formatterEE5resetIS2_EEvPT_
FN:720,_ZNK5boost10shared_ptrINS_16exception_detail15error_info_baseEEdeEv
FNDA:0,_ZNK5boost10shared_ptrINS_16exception_detail15error_info_baseEEdeEv
FN:720,_ZNK5boost10shared_ptrINS_23basic_wrap_stringstreamIcEEEdeEv
FNDA:0,_ZNK5boost10shared_ptrINS_23basic_wrap_stringstreamIcEEEdeEv
FN:720,_ZNK5boost10shared_ptrINS_6detail22translator_holder_baseEEdeEv
FNDA:0,_ZNK5boost10shared_ptrINS_6detail22translator_holder_baseEEdeEv
FN:720,_ZNK5boost10shared_ptrINS_7runtime8argumentEEdeEv
FNDA:66,_ZNK5boost10shared_ptrINS_7runtime8argumentEEdeEv
FN:726,_ZNK5boost10shared_ptrINS_16exception_detail15error_info_baseEEptEv
FNDA:0,_ZNK5boost10shared_ptrINS_16exception_detail15error_info_baseEEptEv
FN:726,_ZNK5boost10shared_ptrINS_9unit_test14runtime_config13stream_holder16callback_cleanerEEptEv
FNDA:0,_ZNK5boost10shared_ptrINS_9unit_test14runtime_config13stream_holder16callback_cleanerEEptEv
FN:726,_ZNK5boost10shared_ptrINS_7runtime11basic_paramEEptEv
FNDA:866,_ZNK5boost10shared_ptrINS_7runtime11basic_paramEEptEv
FN:726,_ZNK5boost10shared_ptrINS_7runtime3cla13rt_cla_detail14parameter_trieEEptEv
FNDA:1350,_ZNK5boost10shared_ptrINS_7runtime3cla13rt_cla_detail14parameter_trieEEptEv
FN:726,_ZNK5boost10shared_ptrINS_9unit_test9decorator4baseEEptEv
FNDA:0,_ZNK5boost10shared_ptrINS_9unit_test9decorator4baseEEptEv
FN:726,_ZNK5boost10shared_ptrINS_7runtime3cla6parserEEptEv
FNDA:1,_ZNK5boost10shared_ptrINS_7runtime3cla6parserEEptEv
FN:726,_ZNK5boost10shared_ptrINS_9unit_test19test_unit_generatorEEptEv
FNDA:0,_ZNK5boost10shared_ptrINS_9unit_test19test_unit_generatorEEptEv
FN:726,_ZNK5boost10shared_ptrINS_23basic_wrap_stringstreamIcEEEptEv
FNDA:0,_ZNK5boost10shared_ptrINS_23basic_wrap_stringstreamIcEEEptEv
FN:726,_ZNK5boost10shared_ptrINS_2io18ios_base_all_saverEEptEv
FNDA:19,_ZNK5boost10shared_ptrINS_2io18ios_base_all_saverEEptEv
FN:726,_ZNK5boost10shared_ptrINS_7runtime8argumentEEptEv
FNDA:66,_ZNK5boost10shared_ptrINS_7runtime8argumentEEptEv
FN:726,_ZNK5boost10shared_ptrINS_9unit_test23unit_test_log_formatterEEptEv
FNDA:111,_ZNK5boost10shared_ptrINS_9unit_test23unit_test_log_formatterEEptEv
FN:740,_ZNK5boost10shared_ptrINS_9unit_test17test_unit_fixtureEE3getEv
FNDA:0,_ZNK5boost10shared_ptrINS_9unit_test17test_unit_fixtureEE3getEv
FN:740,_ZNK5boost10shared_ptrINS_9unit_test23unit_test_log_formatterEE3getEv
FNDA:0,_ZNK5boost10shared_ptrINS_9unit_test23unit_test_log_formatterEE3getEv
FN:758,_ZN5boost10shared_ptrINS_9unit_test23unit_test_log_formatterEE4swapERS3_
FNDA:3,_ZN5boost10shared_ptrINS_9unit_test23unit_test_log_formatterEE4swapERS3_
FN:758,_ZN5boost10shared_ptrINS_9unit_test17test_unit_fixtureEE4swapERS3_
FNDA:0,_ZN5boost10shared_ptrINS_9unit_test17test_unit_fixtureEE4swapERS3_
FN:758,_ZN5boost10shared_ptrINS_7runtime8argumentEE4swapERS3_
FNDA:23,_ZN5boost10shared_ptrINS_7runtime8argumentEE4swapERS3_
FN:758,_ZN5boost10shared_ptrINS_9unit_test9decorator4baseEE4swapERS4_
FNDA:0,_ZN5boost10shared_ptrINS_9unit_test9decorator4baseEE4swapERS4_
FN:758,_ZN5boost10shared_ptrINS_9unit_test14runtime_config13stream_holder16callback_cleanerEE4swapERS5_
FNDA:1,_ZN5boost10shared_ptrINS_9unit_test14runtime_config13stream_holder16callback_cleanerEE4swapERS5_
FN:758,_ZN5boost10shared_ptrINS_23basic_wrap_stringstreamIcEEE4swapERS3_
FNDA:0,_ZN5boost10shared_ptrINS_23basic_wrap_stringstreamIcEEE4swapERS3_
FN:758,_ZN5boost10shared_ptrINS_7runtime3cla6parserEE4swapERS4_
FNDA:1,_ZN5boost10shared_ptrINS_7runtime3cla6parserEE4swapERS4_
FN:758,_ZN5boost10shared_ptrINS_7runtime11basic_paramEE4swapERS3_
FNDA:675,_ZN5boost10shared_ptrINS_7runtime11basic_paramEE4swapERS3_
FN:758,_ZN5boost10shared_ptrINS_7runtime3cla13rt_cla_detail14parameter_trieEE4swapERS5_
FNDA:681,_ZN5boost10shared_ptrINS_7runtime3cla13rt_cla_detail14parameter_trieEE4swapERS5_
FN:758,_ZN5boost10shared_ptrINS_16exception_detail15error_info_baseEE4swapERS3_
FNDA:0,_ZN5boost10shared_ptrINS_16exception_detail15error_info_baseEE4swapERS3_
FN:758,_ZN5boost10shared_ptrINS_2io18ios_base_all_saverEE4swapERS3_
FNDA:3,_ZN5boost10shared_ptrINS_2io18ios_base_all_saverEE4swapERS3_
FN:799,_ZNK5boost10shared_ptrINS_9unit_test14runtime_config13stream_holder16callback_cleanerEE29_internal_get_untyped_deleterEv
FNDA:0,_ZNK5boost10shared_ptrINS_9unit_test14runtime_config13stream_holder16callback_cleanerEE29_internal_get_untyped_deleterEv
FN:973,_ZN5boost11get_pointerINS_9unit_test17test_unit_fixtureEEEPNS_10shared_ptrIT_E12element_typeERKS5_
FNDA:0,_ZN5boost11get_pointerINS_9unit_test17test_unit_fixtureEEEPNS_10shared_ptrIT_E12element_typeERKS5_
DA:236,633
DA:238,633
DA:277,0
DA:279,0
DA:280,0
DA:281,0
DA:277,13
DA:279,13
DA:280,13
DA:281,13
DA:277,3
DA:279,3
DA:280,3
DA:281,3
DA:277,0
DA:279,0
DA:280,0
DA:281,0
DA:277,572
DA:279,572
DA:280,572
DA:281,572
DA:277,13
DA:279,13
DA:280,13
DA:281,13
DA:277,6
DA:279,6
DA:280,6
DA:281,6
DA:277,0
DA:279,0
DA:280,0
DA:281,0
DA:277,0
DA:279,0
DA:280,0
DA:281,0
DA:277,1
DA:279,1
DA:280,1
DA:281,1
DA:277,0
DA:279,0
DA:280,0
DA:281,0
DA:277,0
DA:279,0
DA:280,0
DA:281,0
DA:277,0
DA:279,0
DA:280,0
DA:281,0
DA:277,0
DA:279,0
DA:280,0
DA:281,0
DA:277,0
DA:279,0
DA:280,0
DA:281,0
DA:277,0
DA:279,0
DA:280,0
DA:281,0
DA:277,0
DA:279,0
DA:280,0
DA:281,0
DA:277,4
DA:279,4
DA:280,4
DA:281,4
DA:277,1
DA:279,1
DA:280,1
DA:281,1
DA:277,1
DA:279,1
DA:280,1
DA:281,1
DA:277,2
DA:279,2
DA:280,2
DA:281,2
DA:277,1
DA:279,1
DA:280,1
DA:281,1
DA:277,1
DA:279,1
DA:280,1
DA:281,1
DA:277,5
DA:279,5
DA:280,5
DA:281,5
DA:277,1
DA:279,1
DA:280,1
DA:281,1
DA:277,0
DA:279,0
DA:280,0
DA:281,0
DA:277,1
DA:279,1
DA:280,1
DA:281,1
DA:277,0
DA:279,0
DA:280,0
DA:281,0
DA:277,1
DA:279,1
DA:280,1
DA:281,1
DA:277,2
DA:279,2
DA:280,2
DA:281,2
DA:277,1
DA:279,1
DA:280,1
DA:281,1
DA:277,0
DA:279,0
DA:280,0
DA:281,0
DA:277,1
DA:279,1
DA:280,1
DA:281,1
DA:277,3
DA:279,3
DA:280,3
DA:281,3
DA:301,0
DA:303,0
DA:304,0
DA:346,23
DA:348,23
DA:346,678
DA:348,678
DA:346,3
DA:348,3
DA:346,2
DA:348,2
DA:346,0
DA:348,0
DA:346,29
DA:348,29
DA:346,3
DA:348,3
DA:346,3
DA:348,3
DA:371,0
DA:373,0
DA:374,0
DA:371,13
DA:373,13
DA:374,13
DA:371,3
DA:373,3
DA:374,3
DA:371,0
DA:373,0
DA:374,0
DA:371,572
DA:373,572
DA:374,572
DA:371,13
DA:373,13
DA:374,13
DA:371,6
DA:373,6
DA:374,6
DA:371,0
DA:373,0
DA:374,0
DA:371,0
DA:373,0
DA:374,0
DA:371,1
DA:373,1
DA:374,1
DA:371,0
DA:373,0
DA:374,0
DA:371,0
DA:373,0
DA:374,0
DA:371,0
DA:373,0
DA:374,0
DA:371,0
DA:373,0
DA:374,0
DA:371,0
DA:373,0
DA:374,0
DA:371,0
DA:373,0
DA:374,0
DA:371,0
DA:373,0
DA:374,0
DA:371,4
DA:373,4
DA:374,4
DA:371,1
DA:373,1
DA:374,1
DA:371,1
DA:373,1
DA:374,1
DA:371,2
DA:373,2
DA:374,2
DA:371,1
DA:373,1
DA:374,1
DA:371,1
DA:373,1
DA:374,1
DA:371,5
DA:373,5
DA:374,5
DA:371,1
DA:373,1
DA:374,1
DA:371,0
DA:373,0
DA:374,0
DA:371,1
DA:373,1
DA:374,1
DA:371,0
DA:373,0
DA:374,0
DA:371,1
DA:373,1
DA:374,1
DA:371,2
DA:373,2
DA:374,2
DA:371,1
DA:373,1
DA:374,1
DA:371,0
DA:373,0
DA:374,0
DA:371,1
DA:373,1
DA:374,1
DA:371,3
DA:373,3
DA:374,3
DA:382,0
DA:384,0
DA:385,0
DA:416,66
DA:418,66
DA:416,0
DA:418,0
DA:416,749
DA:418,749
DA:416,1356
DA:418,1356
DA:416,0
DA:418,0
DA:416,0
DA:418,0
DA:416,0
DA:418,0
DA:458,0
DA:460,0
DA:541,0
DA:543,0
DA:544,0
DA:541,3
DA:543,3
DA:544,3
DA:541,569
DA:543,569
DA:544,569
DA:541,0
DA:543,0
DA:544,0
DA:628,0
DA:630,0
DA:631,0
DA:632,0
DA:628,0
DA:630,0
DA:631,0
DA:632,0
DA:628,6
DA:630,6
DA:631,6
DA:632,6
DA:628,6
DA:630,6
DA:631,6
DA:632,6
DA:628,0
DA:630,0
DA:631,0
DA:632,0
DA:628,0
DA:630,0
DA:631,0
DA:632,0
DA:628,23
DA:630,23
DA:631,23
DA:632,23
DA:628,0
DA:630,0
DA:631,0
DA:632,0
DA:628,28
DA:630,28
DA:631,28
DA:632,28
DA:628,1816
DA:630,1816
DA:631,1816
DA:632,1816
DA:628,0
DA:630,0
DA:631,0
DA:632,0
DA:652,0
DA:654,0
DA:655,0
DA:652,0
DA:654,0
DA:655,0
DA:652,0
DA:654,0
DA:655,0
DA:652,0
DA:654,0
DA:655,0
DA:652,23
DA:654,23
DA:655,23
DA:652,678
DA:654,678
DA:655,678
DA:652,0
DA:654,0
DA:655,0
DA:685,0
DA:687,0
DA:688,0
DA:685,106
DA:687,106
DA:688,106
DA:685,1
DA:687,1
DA:688,1
DA:690,1
DA:692,1
DA:693,1
DA:694,1
DA:690,3
DA:692,3
DA:693,3
DA:694,3
DA:690,3
DA:692,3
DA:693,3
DA:694,3
DA:690,0
DA:692,0
DA:693,0
DA:694,0
DA:720,66
DA:722,66
DA:723,66
DA:720,0
DA:722,0
DA:723,0
DA:720,0
DA:722,0
DA:723,0
DA:720,0
DA:722,0
DA:723,0
DA:726,66
DA:728,66
DA:729,66
DA:726,1
DA:728,1
DA:729,1
DA:726,1350
DA:728,1350
DA:729,1350
DA:726,866
DA:728,866
DA:729,866
DA:726,19
DA:728,19
DA:729,19
DA:726,111
DA:728,111
DA:729,111
DA:726,0
DA:728,0
DA:729,0
DA:726,0
DA:728,0
DA:729,0
DA:726,0
DA:728,0
DA:729,0
DA:726,0
DA:728,0
DA:729,0
DA:726,0
DA:728,0
DA:729,0
DA:740,0
DA:742,0
DA:740,0
DA:742,0
DA:758,0
DA:760,0
DA:761,0
DA:762,0
DA:758,0
DA:760,0
DA:761,0
DA:762,0
DA:758,23
DA:760,23
DA:761,23
DA:762,23
DA:758,1
DA:760,1
DA:761,1
DA:762,1
DA:758,675
DA:760,675
DA:761,675
DA:762,675
DA:758,681
DA:760,681
DA:761,681
DA:762,681
DA:758,3
DA:760,3
DA:761,3
DA:762,3
DA:758,3
DA:760,3
DA:761,3
DA:762,3
DA:758,0
DA:760,0
DA:761,0
DA:762,0
DA:758,0
DA:760,0
DA:761,0
DA:762,0
DA:758,1
DA:760,1
DA:761,1
DA:762,1
DA:799,0
DA:801,0
DA:973,0
DA:975,0
end_of_record
SF:/usr/include/boost/test/tools/assertion_result.hpp
FN:52,_ZN5boost10test_tools16assertion_resultC2Eb
FNDA:29,_ZN5boost10test_tools16assertion_resultC2Eb
FN:60,_ZNK5boost10test_tools16assertion_resultntEv
FNDA:29,_ZNK5boost10test_tools16assertion_resultntEv
FN:61,_ZN5boost10test_tools16assertion_resultaSEb
FNDA:0,_ZN5boost10test_tools16assertion_resultaSEb
FN:65,_ZN5boost10test_tools16assertion_result19readonly_property65C2Eb
FNDA:29,_ZN5boost10test_tools16assertion_result19readonly_property65C2Eb
FN:68,_ZNK5boost10test_tools16assertion_result17has_empty_messageEv
FNDA:19,_ZNK5boost10test_tools16assertion_result17has_empty_messageEv
FN:69,_ZN5boost10test_tools16assertion_result7messageEv
FNDA:0,_ZN5boost10test_tools16assertion_result7messageEv
FN:76,_ZNK5boost10test_tools16assertion_result7messageEv
FNDA:0,_ZNK5boost10test_tools16assertion_result7messageEv
DA:52,29
DA:53,29
DA:54,29
DA:60,29
DA:61,0
DA:65,29
DA:68,19
DA:69,0
DA:71,0
DA:72,0
DA:74,0
DA:76,0
end_of_record
SF:/usr/include/boost/test/utils/runtime/parameter.hpp
FN:42,_ZN5boost7runtime24commandline_pretty_printERSoRKNSt7__cxx1112basic_stringIcSt11char_traitsIcESaIcEEES9_
FNDA:0,_ZN5boost7runtime24commandline_pretty_printERSoRKNSt7__cxx1112basic_stringIcSt11char_traitsIcESaIcEEES9_
FN:81,_ZN5boost7runtime16parameter_cla_idC2ENS_9unit_test13basic_cstringIKcEES5_S5_b
FNDA:71,_ZN5boost7runtime16parameter_cla_idC2ENS_9unit_test13basic_cstringIKcEES5_S5_b
FN:101,_ZN5boost7runtime16parameter_cla_id17valid_prefix_charEc
FNDA:184,_ZN5boost7runtime16parameter_cla_id17valid_prefix_charEc
FN:105,_ZN5boost7runtime16parameter_cla_id20valid_separator_charEc
FNDA:54,_ZN5boost7runtime16parameter_cla_id20valid_separator_charEc
FN:109,_ZN5boost7runtime16parameter_cla_id15valid_name_charEc
FNDA:678,_ZN5boost7runtime16parameter_cla_id15valid_name_charEc
FN:135,_ZN5boost7runtime11basic_paramC2INS_3nfp23named_parameter_combineINS3_15named_parameterIKNS_9unit_test13basic_cstringIKcEENS0_12_GLOBAL__N_16help_tERSA_EENS4_INS5_IKSt16initializer_listISt4pairISA_NS6_12report_levelEEENSB_13enum_values_tERSK_EENS4_INS5_IKSH_NSB_15default_value_tERSO_EENS4_INS5_ISA_NSB_9env_var_tESD_EENS5_ISA_NSB_13description_tESD_EEEEEEEEEEEES9_bbRKT_
FNDA:1,_ZN5boost7runtime11basic_paramC2INS_3nfp23named_parameter_combineINS3_15named_parameterIKNS_9unit_test13basic_cstringIKcEENS0_12_GLOBAL__N_16help_tERSA_EENS4_INS5_IKSt16initializer_listISt4pairISA_NS6_12report_levelEEENSB_13enum_values_tERSK_EENS4_INS5_IKSH_NSB_15default_value_tERSO_EENS4_INS5_ISA_NSB_9env_var_tESD_EENS5_ISA_NSB_13description_tESD_EEEEEEEEEEEES9_bbRKT_
FN:135,_ZN5boost7runtime11basic_paramC2INS_3nfp23named_parameter_combineINS3_15named_parameterIKNS_9unit_test13basic_cstringIKcEENS0_12_GLOBAL__N_16help_tERSA_EENS4_INS5_ISA_NSB_12value_hint_tESD_EENS4_INS5_IKlNSB_16optional_value_tERSH_EENS4_INS5_ISH_NSB_15default_value_tESJ_EENS4_INS5_ISA_NSB_9env_var_tESD_EENS5_ISA_NSB_13description_tESD_EEEEEEEEEEEEEES9_bbRKT_
FNDA:1,_ZN5boost7runtime11basic_paramC2INS_3nfp23named_parameter_combineINS3_15named_parameterIKNS_9unit_test13basic_cstringIKcEENS0_12_GLOBAL__N_16help_tERSA_EENS4_INS5_ISA_NSB_12value_hint_tESD_EENS4_INS5_IKlNSB_16optional_value_tERSH_EENS4_INS5_ISH_NSB_15default_value_tESJ_EENS4_INS5_ISA_NSB_9env_var_tESD_EENS5_ISA_NSB_13description_tESD_EEEEEEEEEEEEEES9_bbRKT_
FN:135,_ZN5boost7runtime11basic_paramC2INS_3nfp23named_parameter_combineINS3_15named_parameterIKNS_9unit_test13basic_cstringIKcEENS0_12_GLOBAL__N_16help_tERSA_EENS4_INS5_IKSt16initializer_listISt4pairISA_NS6_13output_formatEEENSB_13enum_values_tERSK_EENS4_INS5_ISA_NSB_9env_var_tESD_EENS5_ISA_NSB_13description_tESD_EEEEEEEEEES9_bbRKT_
FNDA:1,_ZN5boost7runtime11basic_paramC2INS_3nfp23named_parameter_combineINS3_15named_parameterIKNS_9unit_test13basic_cstringIKcEENS0_12_GLOBAL__N_16help_tERSA_EENS4_INS5_IKSt16initializer_listISt4pairISA_NS6_13output_formatEEENSB_13enum_values_tERSK_EENS4_INS5_ISA_NSB_9env_var_tESD_EENS5_ISA_NSB_13description_tESD_EEEEEEEEEES9_bbRKT_
FN:135,_ZN5boost7runtime11basic_paramC2INS_3nfp23named_parameter_combineINS3_15named_parameterIKNS_9unit_test13basic_cstringIKcEENS0_12_GLOBAL__N_16help_tERSA_EENS4_INS5_IKSt16initializer_listISt4pairISA_NS6_9log_levelEEENSB_13enum_values_tERSK_EENS4_INS5_IKSH_NSB_15default_value_tERSO_EENS4_INS5_ISA_NSB_9env_var_tESD_EENS5_ISA_NSB_13description_tESD_EEEEEEEEEEEES9_bbRKT_
FNDA:1,_ZN5boost7runtime11basic_paramC2INS_3nfp23named_parameter_combineINS3_15named_parameterIKNS_9unit_test13basic_cstringIKcEENS0_12_GLOBAL__N_16help_tERSA_EENS4_INS5_IKSt16initializer_listISt4pairISA_NS6_9log_levelEEENSB_13enum_values_tERSK_EENS4_INS5_IKSH_NSB_15default_value_tERSO_EENS4_INS5_ISA_NSB_9env_var_tESD_EENS5_ISA_NSB_13description_tESD_EEEEEEEEEEEES9_bbRKT_
FN:135,_ZN5boost7runtime11basic_paramC2INS_3nfp23named_parameter_combineINS3_15named_parameterIKNS_9unit_test13basic_cstringIKcEENS0_12_GLOBAL__N_16help_tERSA_EENS4_INS5_IKSt16initializer_listISt4pairISA_NS6_13output_formatEEENSB_13enum_values_tERSK_EENS4_INS5_IKSH_NSB_15default_value_tERSO_EENS4_INS5_ISA_NSB_9env_var_tESD_EENS5_ISA_NSB_13description_tESD_EEEEEEEEEEEES9_bbRKT_
FNDA:2,_ZN5boost7runtime11basic_paramC2INS_3nfp23named_parameter_combineINS3_15named_parameterIKNS_9unit_test13basic_cstringIKcEENS0_12_GLOBAL__N_16help_tERSA_EENS4_INS5_IKSt16initializer_listISt4pairISA_NS6_13output_formatEEENSB_13enum_values_tERSK_EENS4_INS5_IKSH_NSB_15default_value_tERSO_EENS4_INS5_ISA_NSB_9env_var_tESD_EENS5_ISA_NSB_13description_tESD_EEEEEEEEEEEES9_bbRKT_
FN:135,_ZN5boost7runtime11basic_paramC2INS_3nfp23named_parameter_combineINS3_15named_parameterIKNS_9unit_test13basic_cstringIKcEENS0_12_GLOBAL__N_16help_tERSA_EENS4_INS5_IKSt16initializer_listISt4pairISA_NS6_13output_formatEEENSB_13enum_values_tERSK_EENS4_INS5_IKSH_NSB_16optional_value_tERSO_EENS4_INS5_ISO_NSB_15default_value_tESQ_EENS4_INS5_ISA_NSB_9env_var_tESD_EENS5_ISA_NSB_13description_tESD_EEEEEEEEEEEEEES9_bbRKT_
FNDA:1,_ZN5boost7runtime11basic_paramC2INS_3nfp23named_parameter_combineINS3_15named_parameterIKNS_9unit_test13basic_cstringIKcEENS0_12_GLOBAL__N_16help_tERSA_EENS4_INS5_IKSt16initializer_listISt4pairISA_NS6_13output_formatEEENSB_13enum_values_tERSK_EENS4_INS5_IKSH_NSB_16optional_value_tERSO_EENS4_INS5_ISO_NSB_15default_value_tESQ_EENS4_INS5_ISA_NSB_9env_var_tESD_EENS5_ISA_NSB_13description_tESD_EEEEEEEEEEEEEES9_bbRKT_
FN:135,_ZN5boost7runtime11basic_paramC2INS_3nfp23named_parameter_combineINS3_15named_parameterIKbNS0_12_GLOBAL__N_115default_value_tERS6_EENS4_INS5_IS6_NS7_16optional_value_tES9_EENS5_IKNS_9unit_test13basic_cstringIKcEENS7_13description_tERSH_EEEEEEEESG_bbRKT_
FNDA:2,_ZN5boost7runtime11basic_paramC2INS_3nfp23named_parameter_combineINS3_15named_parameterIKbNS0_12_GLOBAL__N_115default_value_tERS6_EENS4_INS5_IS6_NS7_16optional_value_tES9_EENS5_IKNS_9unit_test13basic_cstringIKcEENS7_13description_tERSH_EEEEEEEESG_bbRKT_
FN:135,_ZN5boost7runtime11basic_paramC2INS_3nfp23named_parameter_combineINS3_15named_parameterIKNS_9unit_test13basic_cstringIKcEENS0_12_GLOBAL__N_16help_tERSA_EENS4_INS5_ISA_NSB_12value_hint_tESD_EENS4_INS5_IKNSt7__cxx1112basic_stringIcSt11char_traitsIcESaIcEEENSB_16optional_value_tERSN_EENS5_ISA_NSB_13description_tESD_EEEEEEEEEES9_bbRKT_
FNDA:1,_ZN5boost7runtime11basic_paramC2INS_3nfp23named_parameter_combineINS3_15named_parameterIKNS_9unit_test13basic_cstringIKcEENS0_12_GLOBAL__N_16help_tERSA_EENS4_INS5_ISA_NSB_12value_hint_tESD_EENS4_INS5_IKNSt7__cxx1112basic_stringIcSt11char_traitsIcESaIcEEENSB_16optional_value_tERSN_EENS5_ISA_NSB_13description_tESD_EEEEEEEEEES9_bbRKT_
FN:135,_ZN5boost7runtime11basic_paramC2INS_3nfp23named_parameter_combineINS3_15named_parameterIKNS_9unit_test13basic_cstringIKcEENS0_12_GLOBAL__N_16help_tERSA_EENS4_INS5_ISA_NSB_12value_hint_tESD_EENS4_INS5_IKNSt7__cxx1112basic_stringIcSt11char_traitsIcESaIcEEENSB_15default_value_tERSN_EENS4_INS5_ISA_NSB_9env_var_tESD_EENS5_ISA_NSB_13description_tESD_EEEEEEEEEEEES9_bbRKT_
FNDA:1,_ZN5boost7runtime11basic_paramC2INS_3nfp23named_parameter_combineINS3_15named_parameterIKNS_9unit_test13basic_cstringIKcEENS0_12_GLOBAL__N_16help_tERSA_EENS4_INS5_ISA_NSB_12value_hint_tESD_EENS4_INS5_IKNSt7__cxx1112basic_stringIcSt11char_traitsIcESaIcEEENSB_15default_value_tERSN_EENS4_INS5_ISA_NSB_9env_var_tESD_EENS5_ISA_NSB_13description_tESD_EEEEEEEEEEEES9_bbRKT_
FN:135,_ZN5boost7runtime11basic_paramC2INS_3nfp23named_parameter_combineINS3_15named_parameterIKNS_9unit_test13basic_cstringIKcEENS0_12_GLOBAL__N_16help_tERSA_EENS4_INS5_ISA_NSB_12value_hint_tESD_EENS4_INS5_IKjNSB_16optional_value_tERSH_EENS4_INS5_ISH_NSB_15default_value_tESJ_EENS4_INS5_ISA_NSB_9env_var_tESD_EENS5_ISA_NSB_13description_tESD_EEEEEEEEEEEEEES9_bbRKT_
FNDA:1,_ZN5boost7runtime11basic_paramC2INS_3nfp23named_parameter_combineINS3_15named_parameterIKNS_9unit_test13basic_cstringIKcEENS0_12_GLOBAL__N_16help_tERSA_EENS4_INS5_ISA_NSB_12value_hint_tESD_EENS4_INS5_IKjNSB_16optional_value_tERSH_EENS4_INS5_ISH_NSB_15default_value_tESJ_EENS4_INS5_ISA_NSB_9env_var_tESD_EENS5_ISA_NSB_13description_tESD_EEEEEEEEEEEEEES9_bbRKT_
FN:135,_ZN5boost7runtime11basic_paramC2INS_3nfp23named_parameter_combineINS3_15named_parameterIKNS_9unit_test13basic_cstringIKcEENS0_12_GLOBAL__N_16help_tERSA_EENS4_INS5_ISA_NSB_12value_hint_tESD_EENS4_INS5_ISA_NSB_9env_var_tESD_EENS5_ISA_NSB_13description_tESD_EEEEEEEEEES9_bbRKT_
FNDA:4,_ZN5boost7runtime11basic_paramC2INS_3nfp23named_parameter_combineINS3_15named_parameterIKNS_9unit_test13basic_cstringIKcEENS0_12_GLOBAL__N_16help_tERSA_EENS4_INS5_ISA_NSB_12value_hint_tESD_EENS4_INS5_ISA_NSB_9env_var_tESD_EENS5_ISA_NSB_13description_tESD_EEEEEEEEEES9_bbRKT_
FN:135,_ZN5boost7runtime11basic_paramC2INS_3nfp23named_parameter_combineINS3_15named_parameterIKbNS0_12_GLOBAL__N_116optional_value_tERS6_EENS4_INS5_IKNS_9unit_test13basic_cstringIKcEENS7_6help_tERSF_EENS4_INS5_IS6_NS7_15default_value_tES9_EENS4_INS5_ISF_NS7_9env_var_tESH_EENS5_ISF_NS7_13description_tESH_EEEEEEEEEEEESE_bbRKT_
FNDA:4,_ZN5boost7runtime11basic_paramC2INS_3nfp23named_parameter_combineINS3_15named_parameterIKbNS0_12_GLOBAL__N_116optional_value_tERS6_EENS4_INS5_IKNS_9unit_test13basic_cstringIKcEENS7_6help_tERSF_EENS4_INS5_IS6_NS7_15default_value_tES9_EENS4_INS5_ISF_NS7_9env_var_tESH_EENS5_ISF_NS7_13description_tESH_EEEEEEEEEEEESE_bbRKT_
FN:135,_ZN5boost7runtime11basic_paramC2INS_3nfp23named_parameter_combineINS3_15named_parameterIKZNS_9unit_test14runtime_config12_GLOBAL__N_119register_parametersERNS0_16parameters_storeEEUlNS6_13basic_cstringIKcEEE_NS0_12_GLOBAL__N_110callback_tERSF_EENS4_INS5_IKSD_NSG_9env_var_tERSK_EENS5_ISK_NSG_13description_tESM_EEEEEEEESD_bbRKT_
FNDA:1,_ZN5boost7runtime11basic_paramC2INS_3nfp23named_parameter_combineINS3_15named_parameterIKZNS_9unit_test14runtime_config12_GLOBAL__N_119register_parametersERNS0_16parameters_storeEEUlNS6_13basic_cstringIKcEEE_NS0_12_GLOBAL__N_110callback_tERSF_EENS4_INS5_IKSD_NSG_9env_var_tERSK_EENS5_ISK_NSG_13description_tESM_EEEEEEEESD_bbRKT_
FN:135,_ZN5boost7runtime11basic_paramC2INS_3nfp23named_parameter_combineINS3_15named_parameterIKbNS0_12_GLOBAL__N_115default_value_tERS6_EENS4_INS5_IS6_NS7_16optional_value_tES9_EENS4_INS5_IKNS_9unit_test13basic_cstringIKcEENS7_6help_tERSH_EENS4_INS5_ISH_NS7_9env_var_tESJ_EENS5_ISH_NS7_13description_tESJ_EEEEEEEEEEEESG_bbRKT_
FNDA:7,_ZN5boost7runtime11basic_paramC2INS_3nfp23named_parameter_combineINS3_15named_parameterIKbNS0_12_GLOBAL__N_115default_value_tERS6_EENS4_INS5_IS6_NS7_16optional_value_tES9_EENS4_INS5_IKNS_9unit_test13basic_cstringIKcEENS7_6help_tERSH_EENS4_INS5_ISH_NS7_9env_var_tESJ_EENS5_ISH_NS7_13description_tESJ_EEEEEEEEEEEESG_bbRKT_
FN:151,_ZN5boost7runtime11basic_paramD2Ev
FNDA:56,_ZN5boost7runtime11basic_paramD2Ev
FN:151,_ZN5boost7runtime11basic_paramD0Ev
FNDA:0,_ZN5boost7runtime11basic_paramD0Ev
FN:169,_ZNK5boost7runtime11basic_param7cla_idsEv
FNDA:594,_ZNK5boost7runtime11basic_param7cla_idsEv
FN:170,_ZN5boost7runtime11basic_param10add_cla_idENS_9unit_test13basic_cstringIKcEES5_S5_
FNDA:51,_ZN5boost7runtime11basic_param10add_cla_idENS_9unit_test13basic_cstringIKcEES5_S5_
FN:180,_ZN5boost7runtime11basic_param5usageERSoNS_9unit_test13basic_cstringIKcEEb
FNDA:0,_ZN5boost7runtime11basic_param5usageERSoNS_9unit_test13basic_cstringIKcEEb
FN:234,_ZN5boost7runtime11basic_param4helpERSoNS_9unit_test13basic_cstringIKcEEb
FNDA:0,_ZN5boost7runtime11basic_param4helpERSoNS_9unit_test13basic_cstringIKcEEb
FN:245,_ZN5boost7runtime11basic_param15add_cla_id_implENS_9unit_test13basic_cstringIKcEES5_S5_bb
FNDA:71,_ZN5boost7runtime11basic_param15add_cla_id_implENS_9unit_test13basic_cstringIKcEES5_S5_bb
FN:273,_ZNK5boost7runtime11basic_param13cla_name_helpERSoNS_9unit_test13basic_cstringIKcEES6_b
FNDA:0,_ZNK5boost7runtime11basic_param13cla_name_helpERSoNS_9unit_test13basic_cstringIKcEES6_b
FN:277,_ZNK5boost7runtime11basic_param10value_helpERSo
FNDA:0,_ZNK5boost7runtime11basic_param10value_helpERSo
FN:307,_ZN5boost7runtime9parameterINS_9unit_test13output_formatELNS0_11args_amountE0ELb1EEC2INS_3nfp23named_parameter_combineINS7_15named_parameterIKNS2_13basic_cstringIKcEENS0_12_GLOBAL__N_16help_tERSD_EENS8_INS9_IKSt16initializer_listISt4pairISD_S3_EENSE_13enum_values_tERSM_EENS8_INS9_IKS3_NSE_16optional_value_tERSQ_EENS8_INS9_ISQ_NSE_15default_value_tESS_EENS8_INS9_ISD_NSE_9env_var_tESG_EENS9_ISD_NSE_13description_tESG_EEEEEEEEEEEEEESC_RKT_
FNDA:1,_ZN5boost7runtime9parameterINS_9unit_test13output_formatELNS0_11args_amountE0ELb1EEC2INS_3nfp23named_parameter_combineINS7_15named_parameterIKNS2_13basic_cstringIKcEENS0_12_GLOBAL__N_16help_tERSD_EENS8_INS9_IKSt16initializer_listISt4pairISD_S3_EENSE_13enum_values_tERSM_EENS8_INS9_IKS3_NSE_16optional_value_tERSQ_EENS8_INS9_ISQ_NSE_15default_value_tESS_EENS8_INS9_ISD_NSE_9env_var_tESG_EENS9_ISD_NSE_13description_tESG_EEEEEEEEEEEEEESC_RKT_
FN:307,_ZN5boost7runtime9parameterINS_9unit_test13output_formatELNS0_11args_amountE0ELb1EEC2INS_3nfp23named_parameter_combineINS7_15named_parameterIKNS2_13basic_cstringIKcEENS0_12_GLOBAL__N_16help_tERSD_EENS8_INS9_IKSt16initializer_listISt4pairISD_S3_EENSE_13enum_values_tERSM_EENS8_INS9_IKS3_NSE_15default_value_tERSQ_EENS8_INS9_ISD_NSE_9env_var_tESG_EENS9_ISD_NSE_13description_tESG_EEEEEEEEEEEESC_RKT_
FNDA:2,_ZN5boost7runtime9parameterINS_9unit_test13output_formatELNS0_11args_amountE0ELb1EEC2INS_3nfp23named_parameter_combineINS7_15named_parameterIKNS2_13basic_cstringIKcEENS0_12_GLOBAL__N_16help_tERSD_EENS8_INS9_IKSt16initializer_listISt4pairISD_S3_EENSE_13enum_values_tERSM_EENS8_INS9_IKS3_NSE_15default_value_tERSQ_EENS8_INS9_ISD_NSE_9env_var_tESG_EENS9_ISD_NSE_13description_tESG_EEEEEEEEEEEESC_RKT_
FN:307,_ZN5boost7runtime9parameterINS_9unit_test9log_levelELNS0_11args_amountE0ELb1EEC2INS_3nfp23named_parameter_combineINS7_15named_parameterIKNS2_13basic_cstringIKcEENS0_12_GLOBAL__N_16help_tERSD_EENS8_INS9_IKSt16initializer_listISt4pairISD_S3_EENSE_13enum_values_tERSM_EENS8_INS9_IKS3_NSE_15default_value_tERSQ_EENS8_INS9_ISD_NSE_9env_var_tESG_EENS9_ISD_NSE_13description_tESG_EEEEEEEEEEEESC_RKT_
FNDA:1,_ZN5boost7runtime9parameterINS_9unit_test9log_levelELNS0_11args_amountE0ELb1EEC2INS_3nfp23named_parameter_combineINS7_15named_parameterIKNS2_13basic_cstringIKcEENS0_12_GLOBAL__N_16help_tERSD_EENS8_INS9_IKSt16initializer_listISt4pairISD_S3_EENSE_13enum_values_tERSM_EENS8_INS9_IKS3_NSE_15default_value_tERSQ_EENS8_INS9_ISD_NSE_9env_var_tESG_EENS9_ISD_NSE_13description_tESG_EEEEEEEEEEEESC_RKT_
FN:307,_ZN5boost7runtime9parameterINS_9unit_test13output_formatELNS0_11args_amountE0ELb1EEC2INS_3nfp23named_parameter_combineINS7_15named_parameterIKNS2_13basic_cstringIKcEENS0_12_GLOBAL__N_16help_tERSD_EENS8_INS9_IKSt16initializer_listISt4pairISD_S3_EENSE_13enum_values_tERSM_EENS8_INS9_ISD_NSE_9env_var_tESG_EENS9_ISD_NSE_13description_tESG_EEEEEEEEEESC_RKT_
FNDA:1,_ZN5boost7runtime9parameterINS_9unit_test13output_formatELNS0_11args_amountE0ELb1EEC2INS_3nfp23named_parameter_combineINS7_15named_parameterIKNS2_13basic_cstringIKcEENS0_12_GLOBAL__N_16help_tERSD_EENS8_INS9_IKSt16initializer_listISt4pairISD_S3_EENSE_13enum_values_tERSM_EENS8_INS9_ISD_NSE_9env_var_tESG_EENS9_ISD_NSE_13description_tESG_EEEEEEEEEESC_RKT_
FN:307,_ZN5boost7runtime9parameterINS_9unit_test12report_levelELNS0_11args_amountE0ELb1EEC2INS_3nfp23named_parameter_combineINS7_15named_parameterIKNS2_13basic_cstringIKcEENS0_12_GLOBAL__N_16help_tERSD_EENS8_INS9_IKSt16initializer_listISt4pairISD_S3_EENSE_13enum_values_tERSM_EENS8_INS9_IKS3_NSE_15default_value_tERSQ_EENS8_INS9_ISD_NSE_9env_var_tESG_EENS9_ISD_NSE_13description_tESG_EEEEEEEEEEEESC_RKT_
FNDA:1,_ZN5boost7runtime9parameterINS_9unit_test12report_levelELNS0_11args_amountE0ELb1EEC2INS_3nfp23named_parameter_combineINS7_15named_parameterIKNS2_13basic_cstringIKcEENS0_12_GLOBAL__N_16help_tERSD_EENS8_INS9_IKSt16initializer_listISt4pairISD_S3_EENSE_13enum_values_tERSM_EENS8_INS9_IKS3_NSE_15default_value_tERSQ_EENS8_INS9_ISD_NSE_9env_var_tESG_EENS9_ISD_NSE_13description_tESG_EEEEEEEEEEEESC_RKT_
FN:307,_ZN5boost7runtime9parameterINSt7__cxx1112basic_stringIcSt11char_traitsIcESaIcEEELNS0_11args_amountE0ELb0EEC2INS_3nfp23named_parameter_combineINSB_15named_parameterIKZNS_9unit_test14runtime_config12_GLOBAL__N_119register_parametersERNS0_16parameters_storeEEUlNSE_13basic_cstringIKcEEE_NS0_12_GLOBAL__N_110callback_tERSN_EENSC_INSD_IKSL_NSO_9env_var_tERSS_EENSD_ISS_NSO_13description_tESU_EEEEEEEESL_RKT_
FNDA:1,_ZN5boost7runtime9parameterINSt7__cxx1112basic_stringIcSt11char_traitsIcESaIcEEELNS0_11args_amountE0ELb0EEC2INS_3nfp23named_parameter_combineINSB_15named_parameterIKZNS_9unit_test14runtime_config12_GLOBAL__N_119register_parametersERNS0_16parameters_storeEEUlNSE_13basic_cstringIKcEEE_NS0_12_GLOBAL__N_110callback_tERSN_EENSC_INSD_IKSL_NSO_9env_var_tERSS_EENSD_ISS_NSO_13description_tESU_EEEEEEEESL_RKT_
FN:307,_ZN5boost7runtime9parameterImLNS0_11args_amountE0ELb0EEC2INS_3nfp23named_parameter_combineINS5_15named_parameterIKNS_9unit_test13basic_cstringIKcEENS0_12_GLOBAL__N_16help_tERSC_EENS6_INS7_ISC_NSD_12value_hint_tESF_EENS6_INS7_IKlNSD_16optional_value_tERSJ_EENS6_INS7_ISJ_NSD_15default_value_tESL_EENS6_INS7_ISC_NSD_9env_var_tESF_EENS7_ISC_NSD_13description_tESF_EEEEEEEEEEEEEESB_RKT_
FNDA:1,_ZN5boost7runtime9parameterImLNS0_11args_amountE0ELb0EEC2INS_3nfp23named_parameter_combineINS5_15named_parameterIKNS_9unit_test13basic_cstringIKcEENS0_12_GLOBAL__N_16help_tERSC_EENS6_INS7_ISC_NSD_12value_hint_tESF_EENS6_INS7_IKlNSD_16optional_value_tERSJ_EENS6_INS7_ISJ_NSD_15default_value_tESL_EENS6_INS7_ISC_NSD_9env_var_tESF_EENS7_ISC_NSD_13description_tESF_EEEEEEEEEEEEEESB_RKT_
FN:307,_ZN5boost7runtime9parameterINSt7__cxx1112basic_stringIcSt11char_traitsIcESaIcEEELNS0_11args_amountE0ELb0EEC2INS_3nfp23named_parameter_combineINSB_15named_parameterIKNS_9unit_test13basic_cstringIKcEENS0_12_GLOBAL__N_16help_tERSI_EENSC_INSD_ISI_NSJ_12value_hint_tESL_EENSC_INSD_ISI_NSJ_9env_var_tESL_EENSD_ISI_NSJ_13description_tESL_EEEEEEEEEESH_RKT_
FNDA:2,_ZN5boost7runtime9parameterINSt7__cxx1112basic_stringIcSt11char_traitsIcESaIcEEELNS0_11args_amountE0ELb0EEC2INS_3nfp23named_parameter_combineINSB_15named_parameterIKNS_9unit_test13basic_cstringIKcEENS0_12_GLOBAL__N_16help_tERSI_EENSC_INSD_ISI_NSJ_12value_hint_tESL_EENSC_INSD_ISI_NSJ_9env_var_tESL_EENSD_ISI_NSJ_13description_tESL_EEEEEEEEEESH_RKT_
FN:307,_ZN5boost7runtime9parameterINSt7__cxx1112basic_stringIcSt11char_traitsIcESaIcEEELNS0_11args_amountE2ELb0EEC2INS_3nfp23named_parameter_combineINSB_15named_parameterIKNS_9unit_test13basic_cstringIKcEENS0_12_GLOBAL__N_16help_tERSI_EENSC_INSD_ISI_NSJ_12value_hint_tESL_EENSC_INSD_ISI_NSJ_9env_var_tESL_EENSD_ISI_NSJ_13description_tESL_EEEEEEEEEESH_RKT_
FNDA:2,_ZN5boost7runtime9parameterINSt7__cxx1112basic_stringIcSt11char_traitsIcESaIcEEELNS0_11args_amountE2ELb0EEC2INS_3nfp23named_parameter_combineINSB_15named_parameterIKNS_9unit_test13basic_cstringIKcEENS0_12_GLOBAL__N_16help_tERSI_EENSC_INSD_ISI_NSJ_12value_hint_tESL_EENSC_INSD_ISI_NSJ_9env_var_tESL_EENSD_ISI_NSJ_13description_tESL_EEEEEEEEEESH_RKT_
FN:307,_ZN5boost7runtime9parameterINSt7__cxx1112basic_stringIcSt11char_traitsIcESaIcEEELNS0_11args_amountE0ELb0EEC2INS_3nfp23named_parameter_combineINSB_15named_parameterIKNS_9unit_test13basic_cstringIKcEENS0_12_GLOBAL__N_16help_tERSI_EENSC_INSD_ISI_NSJ_12value_hint_tESL_EENSC_INSD_IKS7_NSJ_16optional_value_tERSP_EENSD_ISI_NSJ_13description_tESL_EEEEEEEEEESH_RKT_
FNDA:1,_ZN5boost7runtime9parameterINSt7__cxx1112basic_stringIcSt11char_traitsIcESaIcEEELNS0_11args_amountE0ELb0EEC2INS_3nfp23named_parameter_combineINSB_15named_parameterIKNS_9unit_test13basic_cstringIKcEENS0_12_GLOBAL__N_16help_tERSI_EENSC_INSD_ISI_NSJ_12value_hint_tESL_EENSC_INSD_IKS7_NSJ_16optional_value_tERSP_EENSD_ISI_NSJ_13description_tESL_EEEEEEEEEESH_RKT_
FN:307,_ZN5boost7runtime9parameterINSt7__cxx1112basic_stringIcSt11char_traitsIcESaIcEEELNS0_11args_amountE0ELb0EEC2INS_3nfp23named_parameter_combineINSB_15named_parameterIKNS_9unit_test13basic_cstringIKcEENS0_12_GLOBAL__N_16help_tERSI_EENSC_INSD_ISI_NSJ_12value_hint_tESL_EENSC_INSD_IKS7_NSJ_15default_value_tERSP_EENSC_INSD_ISI_NSJ_9env_var_tESL_EENSD_ISI_NSJ_13description_tESL_EEEEEEEEEEEESH_RKT_
FNDA:1,_ZN5boost7runtime9parameterINSt7__cxx1112basic_stringIcSt11char_traitsIcESaIcEEELNS0_11args_amountE0ELb0EEC2INS_3nfp23named_parameter_combineINSB_15named_parameterIKNS_9unit_test13basic_cstringIKcEENS0_12_GLOBAL__N_16help_tERSI_EENSC_INSD_ISI_NSJ_12value_hint_tESL_EENSC_INSD_IKS7_NSJ_15default_value_tERSP_EENSC_INSD_ISI_NSJ_9env_var_tESL_EENSD_ISI_NSJ_13description_tESL_EEEEEEEEEEEESH_RKT_
FN:307,_ZN5boost7runtime9parameterIjLNS0_11args_amountE0ELb0EEC2INS_3nfp23named_parameter_combineINS5_15named_parameterIKNS_9unit_test13basic_cstringIKcEENS0_12_GLOBAL__N_16help_tERSC_EENS6_INS7_ISC_NSD_12value_hint_tESF_EENS6_INS7_IKjNSD_16optional_value_tERSJ_EENS6_INS7_ISJ_NSD_15default_value_tESL_EENS6_INS7_ISC_NSD_9env_var_tESF_EENS7_ISC_NSD_13description_tESF_EEEEEEEEEEEEEESB_RKT_
FNDA:1,_ZN5boost7runtime9parameterIjLNS0_11args_amountE0ELb0EEC2INS_3nfp23named_parameter_combineINS5_15named_parameterIKNS_9unit_test13basic_cstringIKcEENS0_12_GLOBAL__N_16help_tERSC_EENS6_INS7_ISC_NSD_12value_hint_tESF_EENS6_INS7_IKjNSD_16optional_value_tERSJ_EENS6_INS7_ISJ_NSD_15default_value_tESL_EENS6_INS7_ISC_NSD_9env_var_tESF_EENS7_ISC_NSD_13description_tESF_EEEEEEEEEEEEEESB_RKT_
FN:325,_ZNK5boost7runtime9parameterINS_9unit_test13output_formatELNS0_11args_amountE0ELb1EE5cloneEv
FNDA:0,_ZNK5boost7runtime9parameterINS_9unit_test13output_formatELNS0_11args_amountE0ELb1EE5cloneEv
FN:325,_ZNK5boost7runtime9parameterINS_9unit_test9log_levelELNS0_11args_amountE0ELb1EE5cloneEv
FNDA:0,_ZNK5boost7runtime9parameterINS_9unit_test9log_levelELNS0_11args_amountE0ELb1EE5cloneEv
FN:325,_ZNK5boost7runtime9parameterINSt7__cxx1112basic_stringIcSt11char_traitsIcESaIcEEELNS0_11args_amountE2ELb0EE5cloneEv
FNDA:2,_ZNK5boost7runtime9parameterINSt7__cxx1112basic_stringIcSt11char_traitsIcESaIcEEELNS0_11args_amountE2ELb0EE5cloneEv
FN:325,_ZNK5boost7runtime9parameterImLNS0_11args_amountE0ELb0EE5cloneEv
FNDA:1,_ZNK5boost7runtime9parameterImLNS0_11args_amountE0ELb0EE5cloneEv
FN:325,_ZNK5boost7runtime9parameterINSt7__cxx1112basic_stringIcSt11char_traitsIcESaIcEEELNS0_11args_amountE0ELb0EE5cloneEv
FNDA:5,_ZNK5boost7runtime9parameterINSt7__cxx1112basic_stringIcSt11char_traitsIcESaIcEEELNS0_11args_amountE0ELb0EE5cloneEv
FN:325,_ZNK5boost7runtime9parameterINS_9unit_test12report_levelELNS0_11args_amountE0ELb1EE5cloneEv
FNDA:0,_ZNK5boost7runtime9parameterINS_9unit_test12report_levelELNS0_11args_amountE0ELb1EE5cloneEv
FN:325,_ZNK5boost7runtime9parameterIjLNS0_11args_amountE0ELb0EE5cloneEv
FNDA:1,_ZNK5boost7runtime9parameterIjLNS0_11args_amountE0ELb0EE5cloneEv
FN:329,_ZNK5boost7runtime9parameterIjLNS0_11args_amountE0ELb0EE16produce_argumentENS_9unit_test13basic_cstringIKcEEbRNS0_15arguments_storeE
FNDA:0,_ZNK5boost7runtime9parameterIjLNS0_11args_amountE0ELb0EE16produce_argumentENS_9unit_test13basic_cstringIKcEEbRNS0_15arguments_storeE
FN:329,_ZNK5boost7runtime9parameterImLNS0_11args_amountE0ELb0EE16produce_argumentENS_9unit_test13basic_cstringIKcEEbRNS0_15arguments_storeE
FNDA:0,_ZNK5boost7runtime9parameterImLNS0_11args_amountE0ELb0EE16produce_argumentENS_9unit_test13basic_cstringIKcEEbRNS0_15arguments_storeE
FN:329,_ZNK5boost7runtime9parameterINSt7__cxx1112basic_stringIcSt11char_traitsIcESaIcEEELNS0_11args_amountE0ELb0EE16produce_argumentENS_9unit_test13basic_cstringIKcEEbRNS0_15arguments_storeE
FNDA:0,_ZNK5boost7runtime9parameterINSt7__cxx1112basic_stringIcSt11char_traitsIcESaIcEEELNS0_11args_amountE0ELb0EE16produce_argumentENS_9unit_test13basic_cstringIKcEEbRNS0_15arguments_storeE
FN:329,_ZNK5boost7runtime9parameterINS_9unit_test12report_levelELNS0_11args_amountE0ELb1EE16produce_argumentENS2_13basic_cstringIKcEEbRNS0_15arguments_storeE
FNDA:0,_ZNK5boost7runtime9parameterINS_9unit_test12report_levelELNS0_11args_amountE0ELb1EE16produce_argumentENS2_13basic_cstringIKcEEbRNS0_15arguments_storeE
FN:329,_ZNK5boost7runtime9parameterINSt7__cxx1112basic_stringIcSt11char_traitsIcESaIcEEELNS0_11args_amountE2ELb0EE16produce_argumentENS_9unit_test13basic_cstringIKcEEbRNS0_15arguments_storeE
FNDA:0,_ZNK5boost7runtime9parameterINSt7__cxx1112basic_stringIcSt11char_traitsIcESaIcEEELNS0_11args_amountE2ELb0EE16produce_argumentENS_9unit_test13basic_cstringIKcEEbRNS0_15arguments_storeE
FN:329,_ZNK5boost7runtime9parameterINS_9unit_test9log_levelELNS0_11args_amountE0ELb1EE16produce_argumentENS2_13basic_cstringIKcEEbRNS0_15arguments_storeE
FNDA:0,_ZNK5boost7runtime9parameterINS_9unit_test9log_levelELNS0_11args_amountE0ELb1EE16produce_argumentENS2_13basic_cstringIKcEEbRNS0_15arguments_storeE
FN:329,_ZNK5boost7runtime9parameterINS_9unit_test13output_formatELNS0_11args_amountE0ELb1EE16produce_argumentENS2_13basic_cstringIKcEEbRNS0_15arguments_storeE
FNDA:0,_ZNK5boost7runtime9parameterINS_9unit_test13output_formatELNS0_11args_amountE0ELb1EE16produce_argumentENS2_13basic_cstringIKcEEbRNS0_15arguments_storeE
FN:333,_ZNK5boost7runtime9parameterIjLNS0_11args_amountE0ELb0EE15produce_defaultERNS0_15arguments_storeE
FNDA:1,_ZNK5boost7runtime9parameterIjLNS0_11args_amountE0ELb0EE15produce_defaultERNS0_15arguments_storeE
FN:333,_ZNK5boost7runtime9parameterImLNS0_11args_amountE0ELb0EE15produce_defaultERNS0_15arguments_storeE
FNDA:1,_ZNK5boost7runtime9parameterImLNS0_11args_amountE0ELb0EE15produce_defaultERNS0_15arguments_storeE
FN:333,_ZNK5boost7runtime9parameterINS_9unit_test12report_levelELNS0_11args_amountE0ELb1EE15produce_defaultERNS0_15arguments_storeE
FNDA:1,_ZNK5boost7runtime9parameterINS_9unit_test12report_levelELNS0_11args_amountE0ELb1EE15produce_defaultERNS0_15arguments_storeE
FN:333,_ZNK5boost7runtime9parameterINSt7__cxx1112basic_stringIcSt11char_traitsIcESaIcEEELNS0_11args_amountE2ELb0EE15produce_defaultERNS0_15arguments_storeE
FNDA:2,_ZNK5boost7runtime9parameterINSt7__cxx1112basic_stringIcSt11char_traitsIcESaIcEEELNS0_11args_amountE2ELb0EE15produce_defaultERNS0_15arguments_storeE
FN:333,_ZNK5boost7runtime9parameterINS_9unit_test13output_formatELNS0_11args_amountE0ELb1EE15produce_defaultERNS0_15arguments_storeE
FNDA:3,_ZNK5boost7runtime9parameterINS_9unit_test13output_formatELNS0_11args_amountE0ELb1EE15produce_defaultERNS0_15arguments_storeE
FN:333,_ZNK5boost7runtime9parameterINSt7__cxx1112basic_stringIcSt11char_traitsIcESaIcEEELNS0_11args_amountE0ELb0EE15produce_defaultERNS0_15arguments_storeE
FNDA:1,_ZNK5boost7runtime9parameterINSt7__cxx1112basic_stringIcSt11char_traitsIcESaIcEEELNS0_11args_amountE0ELb0EE15produce_defaultERNS0_15arguments_storeE
FN:333,_ZNK5boost7runtime9parameterINS_9unit_test9log_levelELNS0_11args_amountE0ELb1EE15produce_defaultERNS0_15arguments_storeE
FNDA:1,_ZNK5boost7runtime9parameterINS_9unit_test9log_levelELNS0_11args_amountE0ELb1EE15produce_defaultERNS0_15arguments_storeE
FN:353,_ZN5boost7runtime6optionC2INS_3nfp15named_parameterIKNS_9unit_test13basic_cstringIKcEENS0_12_GLOBAL__N_113description_tERS9_EEEES8_RKT_
FNDA:2,_ZN5boost7runtime6optionC2INS_3nfp15named_parameterIKNS_9unit_test13basic_cstringIKcEENS0_12_GLOBAL__N_113description_tERS9_EEEES8_RKT_
FN:353,_ZN5boost7runtime6optionC2INS_3nfp23named_parameter_combineINS3_15named_parameterIKNS_9unit_test13basic_cstringIKcEENS0_12_GLOBAL__N_16help_tERSA_EENS4_INS5_IKbNSB_15default_value_tERSF_EENS4_INS5_ISA_NSB_9env_var_tESD_EENS5_ISA_NSB_13description_tESD_EEEEEEEEEES9_RKT_
FNDA:4,_ZN5boost7runtime6optionC2INS_3nfp23named_parameter_combineINS3_15named_parameterIKNS_9unit_test13basic_cstringIKcEENS0_12_GLOBAL__N_16help_tERSA_EENS4_INS5_IKbNSB_15default_value_tERSF_EENS4_INS5_ISA_NSB_9env_var_tESD_EENS5_ISA_NSB_13description_tESD_EEEEEEEEEES9_RKT_
FN:353,_ZN5boost7runtime6optionC2INS_3nfp23named_parameter_combineINS3_15named_parameterIKNS_9unit_test13basic_cstringIKcEENS0_12_GLOBAL__N_16help_tERSA_EENS4_INS5_ISA_NSB_9env_var_tESD_EENS5_ISA_NSB_13description_tESD_EEEEEEEES9_RKT_
FNDA:7,_ZN5boost7runtime6optionC2INS_3nfp23named_parameter_combineINS3_15named_parameterIKNS_9unit_test13basic_cstringIKcEENS0_12_GLOBAL__N_16help_tERSA_EENS4_INS5_ISA_NSB_9env_var_tESD_EENS5_ISA_NSB_13description_tESD_EEEEEEEES9_RKT_
FN:363,_ZN5boost7runtime6option10add_cla_idENS_9unit_test13basic_cstringIKcEES5_S5_b
FNDA:20,_ZN5boost7runtime6option10add_cla_idENS_9unit_test13basic_cstringIKcEES5_S5_b
FN:369,_ZNK5boost7runtime6option5cloneEv
FNDA:13,_ZNK5boost7runtime6option5cloneEv
FN:374,_ZNK5boost7runtime6option16produce_argumentENS_9unit_test13basic_cstringIKcEEbRNS0_15arguments_storeE
FNDA:0,_ZNK5boost7runtime6option16produce_argumentENS_9unit_test13basic_cstringIKcEEbRNS0_15arguments_storeE
FN:386,_ZNK5boost7runtime6option15produce_defaultERNS0_15arguments_storeE
FNDA:13,_ZNK5boost7runtime6option15produce_defaultERNS0_15arguments_storeE
FN:390,_ZNK5boost7runtime6option13cla_name_helpERSoNS_9unit_test13basic_cstringIKcEES6_b
FNDA:0,_ZNK5boost7runtime6option13cla_name_helpERSoNS_9unit_test13basic_cstringIKcEES6_b
FN:401,_ZNK5boost7runtime6option10value_helpERSo
FNDA:0,_ZNK5boost7runtime6option10value_helpERSo
FN:423,_ZN5boost7runtime14enum_parameterINS_9unit_test13output_formatELNS0_11args_amountE0EEC2INS_3nfp23named_parameter_combineINS7_15named_parameterIKNS2_13basic_cstringIKcEENS0_12_GLOBAL__N_16help_tERSD_EENS8_INS9_IKSt16initializer_listISt4pairISD_S3_EENSE_13enum_values_tERSM_EENS8_INS9_ISD_NSE_9env_var_tESG_EENS9_ISD_NSE_13description_tESG_EEEEEEEEEESC_RKT_
FNDA:1,_ZN5boost7runtime14enum_parameterINS_9unit_test13output_formatELNS0_11args_amountE0EEC2INS_3nfp23named_parameter_combineINS7_15named_parameterIKNS2_13basic_cstringIKcEENS0_12_GLOBAL__N_16help_tERSD_EENS8_INS9_IKSt16initializer_listISt4pairISD_S3_EENSE_13enum_values_tERSM_EENS8_INS9_ISD_NSE_9env_var_tESG_EENS9_ISD_NSE_13description_tESG_EEEEEEEEEESC_RKT_
FN:423,_ZN5boost7runtime14enum_parameterINS_9unit_test9log_levelELNS0_11args_amountE0EEC2INS_3nfp23named_parameter_combineINS7_15named_parameterIKNS2_13basic_cstringIKcEENS0_12_GLOBAL__N_16help_tERSD_EENS8_INS9_IKSt16initializer_listISt4pairISD_S3_EENSE_13enum_values_tERSM_EENS8_INS9_IKS3_NSE_15default_value_tERSQ_EENS8_INS9_ISD_NSE_9env_var_tESG_EENS9_ISD_NSE_13description_tESG_EEEEEEEEEEEESC_RKT_
FNDA:1,_ZN5boost7runtime14enum_parameterINS_9unit_test9log_levelELNS0_11args_amountE0EEC2INS_3nfp23named_parameter_combineINS7_15named_parameterIKNS2_13basic_cstringIKcEENS0_12_GLOBAL__N_16help_tERSD_EENS8_INS9_IKSt16initializer_listISt4pairISD_S3_EENSE_13enum_values_tERSM_EENS8_INS9_IKS3_NSE_15default_value_tERSQ_EENS8_INS9_ISD_NSE_9env_var_tESG_EENS9_ISD_NSE_13description_tESG_EEEEEEEEEEEESC_RKT_
FN:423,_ZN5boost7runtime14enum_parameterINS_9unit_test13output_formatELNS0_11args_amountE0EEC2INS_3nfp23named_parameter_combineINS7_15named_parameterIKNS2_13basic_cstringIKcEENS0_12_GLOBAL__N_16help_tERSD_EENS8_INS9_IKSt16initializer_listISt4pairISD_S3_EENSE_13enum_values_tERSM_EENS8_INS9_IKS3_NSE_15default_value_tERSQ_EENS8_INS9_ISD_NSE_9env_var_tESG_EENS9_ISD_NSE_13description_tESG_EEEEEEEEEEEESC_RKT_
FNDA:2,_ZN5boost7runtime14enum_parameterINS_9unit_test13output_formatELNS0_11args_amountE0EEC2INS_3nfp23named_parameter_combineINS7_15named_parameterIKNS2_13basic_cstringIKcEENS0_12_GLOBAL__N_16help_tERSD_EENS8_INS9_IKSt16initializer_listISt4pairISD_S3_EENSE_13enum_values_tERSM_EENS8_INS9_IKS3_NSE_15default_value_tERSQ_EENS8_INS9_ISD_NSE_9env_var_tESG_EENS9_ISD_NSE_13description_tESG_EEEEEEEEEEEESC_RKT_
FN:423,_ZN5boost7runtime14enum_parameterINS_9unit_test13output_formatELNS0_11args_amountE0EEC2INS_3nfp23named_parameter_combineINS7_15named_parameterIKNS2_13basic_cstringIKcEENS0_12_GLOBAL__N_16help_tERSD_EENS8_INS9_IKSt16initializer_listISt4pairISD_S3_EENSE_13enum_values_tERSM_EENS8_INS9_IKS3_NSE_16optional_value_tERSQ_EENS8_INS9_ISQ_NSE_15default_value_tESS_EENS8_INS9_ISD_NSE_9env_var_tESG_EENS9_ISD_NSE_13description_tESG_EEEEEEEEEEEEEESC_RKT_
FNDA:1,_ZN5boost7runtime14enum_parameterINS_9unit_test13output_formatELNS0_11args_amountE0EEC2INS_3nfp23named_parameter_combineINS7_15named_parameterIKNS2_13basic_cstringIKcEENS0_12_GLOBAL__N_16help_tERSD_EENS8_INS9_IKSt16initializer_listISt4pairISD_S3_EENSE_13enum_values_tERSM_EENS8_INS9_IKS3_NSE_16optional_value_tERSQ_EENS8_INS9_ISQ_NSE_15default_value_tESS_EENS8_INS9_ISD_NSE_9env_var_tESG_EENS9_ISD_NSE_13description_tESG_EEEEEEEEEEEEEESC_RKT_
FN:423,_ZN5boost7runtime14enum_parameterINS_9unit_test12report_levelELNS0_11args_amountE0EEC2INS_3nfp23named_parameter_combineINS7_15named_parameterIKNS2_13basic_cstringIKcEENS0_12_GLOBAL__N_16help_tERSD_EENS8_INS9_IKSt16initializer_listISt4pairISD_S3_EENSE_13enum_values_tERSM_EENS8_INS9_IKS3_NSE_15default_value_tERSQ_EENS8_INS9_ISD_NSE_9env_var_tESG_EENS9_ISD_NSE_13description_tESG_EEEEEEEEEEEESC_RKT_
FNDA:1,_ZN5boost7runtime14enum_parameterINS_9unit_test12report_levelELNS0_11args_amountE0EEC2INS_3nfp23named_parameter_combineINS7_15named_parameterIKNS2_13basic_cstringIKcEENS0_12_GLOBAL__N_16help_tERSD_EENS8_INS9_IKSt16initializer_listISt4pairISD_S3_EENSE_13enum_values_tERSM_EENS8_INS9_IKS3_NSE_15default_value_tERSQ_EENS8_INS9_ISD_NSE_9env_var_tESG_EENS9_ISD_NSE_13description_tESG_EEEEEEEEEEEESC_RKT_
FN:444,_ZNK5boost7runtime14enum_parameterINS_9unit_test13output_formatELNS0_11args_amountE0EE5cloneEv
FNDA:4,_ZNK5boost7runtime14enum_parameterINS_9unit_test13output_formatELNS0_11args_amountE0EE5cloneEv
FN:444,_ZNK5boost7runtime14enum_parameterINS_9unit_test9log_levelELNS0_11args_amountE0EE5cloneEv
FNDA:1,_ZNK5boost7runtime14enum_parameterINS_9unit_test9log_levelELNS0_11args_amountE0EE5cloneEv
FN:444,_ZNK5boost7runtime14enum_parameterINS_9unit_test12report_levelELNS0_11args_amountE0EE5cloneEv
FNDA:1,_ZNK5boost7runtime14enum_parameterINS_9unit_test12report_levelELNS0_11args_amountE0EE5cloneEv
FN:449,_ZNK5boost7runtime14enum_parameterINS_9unit_test13output_formatELNS0_11args_amountE0EE10value_helpERSo
FNDA:0,_ZNK5boost7runtime14enum_parameterINS_9unit_test13output_formatELNS0_11args_amountE0EE10value_helpERSo
FN:449,_ZNK5boost7runtime14enum_parameterINS_9unit_test9log_levelELNS0_11args_amountE0EE10value_helpERSo
FNDA:0,_ZNK5boost7runtime14enum_parameterINS_9unit_test9log_levelELNS0_11args_amountE0EE10value_helpERSo
FN:449,_ZNK5boost7runtime14enum_parameterINS_9unit_test12report_levelELNS0_11args_amountE0EE10value_helpERSo
FNDA:0,_ZNK5boost7runtime14enum_parameterINS_9unit_test12report_levelELNS0_11args_amountE0EE10value_helpERSo
FN:478,_ZNK5boost7runtime16parameters_store10lg_compareclENS_9unit_test13basic_cstringIKcEES6_
FNDA:186,_ZNK5boost7runtime16parameters_store10lg_compareclENS_9unit_test13basic_cstringIKcEES6_
FN:489,_ZN5boost7runtime16parameters_store3addERKNS0_11basic_paramE
FNDA:28,_ZN5boost7runtime16parameters_store3addERKNS0_11basic_paramE
FN:498,_ZNK5boost7runtime16parameters_store8is_emptyEv
FNDA:1,_ZNK5boost7runtime16parameters_store8is_emptyEv
FN:500,_ZNK5boost7runtime16parameters_store3allEv
FNDA:522,_ZNK5boost7runtime16parameters_store3allEv
DA:42,0
DA:47,0
DA:49,0
DA:51,0
DA:54,0
DA:55,0
DA:57,0
DA:59,0
DA:60,0
DA:61,0
DA:62,0
DA:63,0
DA:64,0
DA:65,0
DA:68,0
DA:69,0
DA:72,0
DA:81,71
DA:82,71
DA:83,71
DA:84,71
DA:85,71
DA:88,71
DA:92,71
DA:96,71
DA:99,71
DA:101,184
DA:103,184
DA:105,54
DA:107,54
DA:109,678
DA:111,678
DA:135,1
DA:136,1
DA:137,1
DA:138,1
DA:139,1
DA:140,1
DA:141,1
DA:142,1
DA:143,1
DA:144,1
DA:145,2
DA:147,1
DA:148,1
DA:135,1
DA:136,1
DA:137,1
DA:138,1
DA:139,1
DA:140,1
DA:141,1
DA:142,1
DA:143,1
DA:144,1
DA:145,2
DA:147,1
DA:148,1
DA:135,1
DA:136,1
DA:137,1
DA:138,1
DA:139,1
DA:140,1
DA:141,1
DA:142,1
DA:143,1
DA:144,1
DA:145,2
DA:147,1
DA:148,1
DA:135,2
DA:136,2
DA:137,2
DA:138,2
DA:139,2
DA:140,2
DA:141,2
DA:142,2
DA:143,2
DA:144,2
DA:145,4
DA:147,2
DA:148,2
DA:135,1
DA:136,1
DA:137,1
DA:138,1
DA:139,1
DA:140,1
DA:141,1
DA:142,1
DA:143,1
DA:144,1
DA:145,2
DA:147,1
DA:148,1
DA:135,2
DA:136,2
DA:137,2
DA:138,2
DA:139,2
DA:140,2
DA:141,2
DA:142,2
DA:143,2
DA:144,2
DA:145,4
DA:147,2
DA:148,2
DA:135,1
DA:136,1
DA:137,1
DA:138,1
DA:139,1
DA:140,1
DA:141,1
DA:142,1
DA:143,1
DA:144,1
DA:145,2
DA:147,1
DA:148,1
DA:135,1
DA:136,1
DA:137,1
DA:138,1
DA:139,1
DA:140,1
DA:141,1
DA:142,1
DA:143,1
DA:144,1
DA:145,2
DA:147,1
DA:148,1
DA:135,1
DA:136,1
DA:137,1
DA:138,1
DA:139,1
DA:140,1
DA:141,1
DA:142,1
DA:143,1
DA:144,1
DA:145,2
DA:147,1
DA:148,1
DA:135,4
DA:136,4
DA:137,4
DA:138,4
DA:139,4
DA:140,4
DA:141,4
DA:142,4
DA:143,4
DA:144,4
DA:145,8
DA:147,4
DA:148,4
DA:135,1
DA:136,1
DA:137,1
DA:138,1
DA:139,1
DA:140,1
DA:141,1
DA:142,1
DA:143,1
DA:144,1
DA:145,2
DA:147,1
DA:148,1
DA:135,4
DA:136,4
DA:137,4
DA:138,4
DA:139,4
DA:140,4
DA:141,4
DA:142,4
DA:143,4
DA:144,4
DA:145,8
DA:147,4
DA:148,4
DA:135,1
DA:136,1
DA:137,1
DA:138,1
DA:139,1
DA:140,1
DA:141,1
DA:142,1
DA:143,1
DA:144,1
DA:145,2
DA:147,1
DA:148,1
DA:135,7
DA:136,7
DA:137,7
DA:138,7
DA:139,7
DA:140,7
DA:141,7
DA:142,7
DA:143,7
DA:144,7
DA:145,14
DA:147,7
DA:148,7
DA:151,0
DA:151,56
DA:169,594
DA:170,51
DA:172,51
DA:173,51
DA:180,0
DA:186,0
DA:189,0
DA:190,0
DA:191,0
DA:193,0
DA:195,0
DA:196,0
DA:199,0
DA:200,0
DA:201,0
DA:203,0
DA:205,0
DA:206,0
DA:208,0
DA:210,0
DA:211,0
DA:213,0
DA:214,0
DA:215,0
DA:219,0
DA:220,0
DA:222,0
DA:225,0
DA:227,0
DA:228,0
DA:230,0
DA:231,0
DA:232,0
DA:234,0
DA:236,0
DA:238,0
DA:239,0
DA:240,0
DA:242,0
DA:245,71
DA:251,71
DA:254,71
DA:258,71
DA:263,71
DA:264,71
DA:268,71
DA:269,71
DA:273,0
DA:275,0
DA:276,0
DA:277,0
DA:279,0
DA:280,0
DA:282,0
DA:283,0
DA:307,1
DA:313,1
DA:315,1
DA:319,1
DA:322,1
DA:307,1
DA:313,1
DA:315,1
DA:319,1
DA:322,1
DA:307,1
DA:313,1
DA:315,1
DA:319,1
DA:322,1
DA:307,2
DA:313,2
DA:315,2
DA:319,2
DA:322,2
DA:307,1
DA:313,1
DA:315,1
DA:319,1
DA:322,1
DA:307,1
DA:313,1
DA:315,1
DA:319,1
DA:322,1
DA:307,1
DA:313,1
DA:315,1
DA:319,1
DA:322,1
DA:307,1
DA:313,1
DA:315,1
DA:319,1
DA:322,1
DA:307,2
DA:313,2
DA:315,2
DA:319,2
DA:322,2
DA:307,2
DA:313,2
DA:315,2
DA:319,2
DA:322,2
DA:307,1
DA:313,1
DA:315,1
DA:319,1
DA:322,1
DA:307,1
DA:313,1
DA:315,1
DA:319,1
DA:322,1
DA:325,5
DA:327,5
DA:325,1
DA:327,1
DA:325,0
DA:327,0
DA:325,0
DA:327,0
DA:325,2
DA:327,2
DA:325,1
DA:327,1
DA:325,0
DA:327,0
DA:329,0
DA:331,0
DA:332,0
DA:329,0
DA:331,0
DA:332,0
DA:329,0
DA:331,0
DA:332,0
DA:329,0
DA:331,0
DA:332,0
DA:329,0
DA:331,0
DA:332,0
DA:329,0
DA:331,0
DA:332,0
DA:329,0
DA:331,0
DA:332,0
DA:333,1
DA:335,1
DA:336,0
DA:338,1
DA:333,1
DA:335,1
DA:336,0
DA:338,1
DA:333,3
DA:335,3
DA:336,0
DA:338,3
DA:333,1
DA:335,1
DA:336,0
DA:338,1
DA:333,2
DA:335,2
DA:336,0
DA:338,2
DA:333,1
DA:335,1
DA:336,0
DA:338,1
DA:333,1
DA:335,1
DA:336,0
DA:338,1
DA:353,2
DA:359,2
DA:361,2
DA:353,4
DA:359,4
DA:361,4
DA:353,7
DA:359,7
DA:361,7
DA:363,20
DA:365,20
DA:366,20
DA:369,13
DA:371,13
DA:374,0
DA:376,0
DA:377,0
DA:379,0
DA:382,0
DA:384,0
DA:386,13
DA:388,13
DA:389,13
DA:390,0
DA:395,0
DA:396,0
DA:397,0
DA:398,0
DA:399,0
DA:400,0
DA:401,0
DA:403,0
DA:404,0
DA:406,0
DA:407,0
DA:423,1
DA:428,1
DA:431,1
DA:432,1
DA:437,5
DA:438,4
DA:439,4
DA:441,1
DA:423,1
DA:428,1
DA:431,1
DA:432,1
DA:437,4
DA:438,3
DA:439,3
DA:441,1
DA:423,1
DA:428,1
DA:431,1
DA:432,1
DA:437,12
DA:438,11
DA:439,11
DA:441,1
DA:423,2
DA:428,2
DA:431,2
DA:432,2
DA:437,9
DA:438,7
DA:439,7
DA:441,2
DA:423,1
DA:428,1
DA:431,1
DA:432,1
DA:437,3
DA:438,2
DA:439,2
DA:441,1
DA:444,4
DA:446,4
DA:444,1
DA:446,1
DA:444,1
DA:446,1
DA:449,0
DA:451,0
DA:452,0
DA:453,0
DA:454,0
DA:455,0
DA:456,0
DA:458,0
DA:459,0
DA:461,0
DA:464,0
DA:465,0
DA:449,0
DA:451,0
DA:452,0
DA:453,0
DA:454,0
DA:455,0
DA:456,0
DA:458,0
DA:459,0
DA:461,0
DA:464,0
DA:465,0
DA:449,0
DA:451,0
DA:452,0
DA:453,0
DA:454,0
DA:455,0
DA:456,0
DA:458,0
DA:459,0
DA:461,0
DA:464,0
DA:465,0
DA:478,186
DA:480,186
DA:481,186
DA:489,28
DA:491,28
DA:493,28
DA:495,28
DA:498,1
DA:500,522
end_of_record
SF:/usr/include/c++/11/iomanip
FN:225,_ZSt4setwi
FNDA:0,_ZSt4setwi
DA:225,0
DA:226,0
end_of_record
SF:/usr/include/boost/test/impl/progress_monitor.ipp
FN:43,_ZN5boost9unit_test16progress_displayC2EmRSo
FNDA:0,_ZN5boost9unit_test16progress_displayC2EmRSo
FN:59,_ZN5boost9unit_test16progress_displaypLEm
FNDA:0,_ZN5boost9unit_test16progress_displaypLEm
FN:85,_ZN5boost9unit_test16progress_displayppEv
FNDA:0,_ZN5boost9unit_test16progress_displayppEv
FN:86,_ZNK5boost9unit_test16progress_display5countEv
FNDA:0,_ZNK5boost9unit_test16progress_display5countEv
FN:104,_ZN5boost9unit_test12_GLOBAL__N_121progress_monitor_implC2Ev
FNDA:0,_ZN5boost9unit_test12_GLOBAL__N_121progress_monitor_implC2Ev
FN:115,_ZN5boost9unit_test12_GLOBAL__N_19s_pm_implEv
FNDA:0,_ZN5boost9unit_test12_GLOBAL__N_19s_pm_implEv
FN:124,_ZN5boost9unit_test18progress_monitor_t8instanceEv
FNDA:1,_ZN5boost9unit_test18progress_monitor_t8instanceEv
FN:129,_ZN5boost9unit_test18progress_monitor_t10test_startEmm
FNDA:0,_ZN5boost9unit_test18progress_monitor_t10test_startEmm
FN:141,_ZN5boost9unit_test18progress_monitor_t12test_abortedEv
FNDA:0,_ZN5boost9unit_test18progress_monitor_t12test_abortedEv
FN:151,_ZN5boost9unit_test18progress_monitor_t16test_unit_finishERKNS0_9test_unitEm
FNDA:0,_ZN5boost9unit_test18progress_monitor_t16test_unit_finishERKNS0_9test_unitEm
FN:162,_ZN5boost9unit_test18progress_monitor_t17test_unit_skippedERKNS0_9test_unitENS0_13basic_cstringIKcEE
FNDA:0,_ZN5boost9unit_test18progress_monitor_t17test_unit_skippedERKNS0_9test_unitENS0_13basic_cstringIKcEE
FN:175,_ZN5boost9unit_test18progress_monitor_t10set_streamERSo
FNDA:0,_ZN5boost9unit_test18progress_monitor_t10set_streamERSo
DA:43,0
DA:44,0
DA:45,0
DA:46,0
DA:47,0
DA:48,0
DA:51,0
DA:52,0
DA:53,0
DA:55,0
DA:56,0
DA:57,0
DA:59,0
DA:61,0
DA:62,0
DA:67,0
DA:68,0
DA:71,0
DA:72,0
DA:74,0
DA:76,0
DA:77,0
DA:78,0
DA:80,0
DA:83,0
DA:85,0
DA:86,0
DA:104,0
DA:105,0
DA:106,0
DA:108,0
DA:115,0
DA:124,1
DA:129,0
DA:131,0
DA:133,0
DA:135,0
DA:136,0
DA:141,0
DA:143,0
DA:145,0
DA:146,0
DA:151,0
DA:153,0
DA:155,0
DA:156,0
DA:157,0
DA:162,0
DA:164,0
DA:166,0
DA:167,0
DA:169,0
DA:170,0
DA:175,0
DA:177,0
DA:178,0
end_of_record
SF:/usr/include/boost/core/ref.hpp
DA:74,675
DA:94,0
DA:100,0
DA:140,675
end_of_record
SF:/usr/include/boost/test/unit_test_suite.hpp
FN:390,_Z20init_unit_test_suiteiPPc
FNDA:1,_Z20init_unit_test_suiteiPPc
DA:390,1
DA:397,1
end_of_record
SF:/usr/include/boost/test/tree/test_unit.hpp
FN:62,_ZN5boost9unit_test9test_unit19readonly_property62C2Em
FNDA:10,_ZN5boost9unit_test9test_unit19readonly_property62C2Em
FN:63,_ZN5boost9unit_test9test_unit19readonly_property63C2Em
FNDA:10,_ZN5boost9unit_test9test_unit19readonly_property63C2Em
FN:64,_ZN5boost9unit_test9test_unit19readonly_property64C2Ev
FNDA:10,_ZN5boost9unit_test9test_unit19readonly_property64C2Ev
FN:66,_ZN5boost9unit_test9test_unit19readonly_property66C2Ev
FNDA:10,_ZN5boost9unit_test9test_unit19readonly_property66C2Ev
FN:69,_ZN5boost9unit_test9test_unit19readonly_property69C2Ev
FNDA:10,_ZN5boost9unit_test9test_unit19readonly_property69C2Ev
FN:82,_ZNK5boost9unit_test9test_unit10is_enabledEv
FNDA:74,_ZNK5boost9unit_test9test_unit10is_enabledEv
FN:144,_ZN5boost9unit_test9test_case20readonly_property144C2ERKNS_8functionIFvvEEE
FNDA:8,_ZN5boost9unit_test9test_case20readonly_property144C2ERKNS_8functionIFvvEEE
FN:150,_ZN5boost9unit_test9test_caseD2Ev
FNDA:8,_ZN5boost9unit_test9test_caseD2Ev
FN:204,_ZN5boost9unit_test10test_suiteD0Ev
FNDA:1,_ZN5boost9unit_test10test_suiteD0Ev
FN:204,_ZN5boost9unit_test10test_suiteD2Ev
FNDA:2,_ZN5boost9unit_test10test_suiteD2Ev
FN:263,_ZN5boost9unit_test14make_test_caseERKNS_8functionIFvvEEENS0_13basic_cstringIKcEES8_m
FNDA:8,_ZN5boost9unit_test14make_test_caseERKNS_8functionIFvvEEENS0_13basic_cstringIKcEES8_m
DA:62,10
DA:63,10
DA:64,10
DA:66,10
DA:69,10
DA:82,74
DA:144,8
DA:150,8
DA:204,1
DA:204,2
DA:263,8
DA:265,8
end_of_record
SF:/usr/include/boost/bind/bind.hpp
FN:122,_ZN5boost3_bi5valueImEC2ERKm
FNDA:3,_ZN5boost3_bi5valueImEC2ERKm
FN:122,_ZN5boost3_bi5valueINS_9unit_test17test_case_counter19readonly_property43EEC2ERKS4_
FNDA:3,_ZN5boost3_bi5valueINS_9unit_test17test_case_counter19readonly_property43EEC2ERKS4_
FN:122,_ZN5boost3_bi5valueIPNS_9unit_test13test_observerEEC2ERKS4_
FNDA:3,_ZN5boost3_bi5valueIPNS_9unit_test13test_observerEEC2ERKS4_
FN:122,_ZN5boost3_bi5valueIPFPNS_9unit_test10test_suiteEiPPcEEC2ERKS8_
FNDA:1,_ZN5boost3_bi5valueIPFPNS_9unit_test10test_suiteEiPPcEEC2ERKS8_
FN:122,_ZN5boost3_bi5valueINS_9unit_test13output_formatEEC2ERKS3_
FNDA:0,_ZN5boost3_bi5valueINS_9unit_test13output_formatEEC2ERKS3_
FN:122,_ZN5boost3_bi5valueIPNS_9unit_test15unit_test_log_tEEC2ERKS4_
FNDA:0,_ZN5boost3_bi5valueIPNS_9unit_test15unit_test_log_tEEC2ERKS4_
FN:122,_ZN5boost3_bi5valueINS_10shared_ptrINS_9unit_test17test_unit_fixtureEEEEC2ERKS5_
FNDA:0,_ZN5boost3_bi5valueINS_10shared_ptrINS_9unit_test17test_unit_fixtureEEEEC2ERKS5_
FN:124,_ZN5boost3_bi5valueINS_9unit_test17test_case_counter19readonly_property43EE3getEv
FNDA:3,_ZN5boost3_bi5valueINS_9unit_test17test_case_counter19readonly_property43EE3getEv
FN:124,_ZN5boost3_bi5valueImE3getEv
FNDA:3,_ZN5boost3_bi5valueImE3getEv
FN:124,_ZN5boost3_bi5valueINS_10shared_ptrINS_9unit_test17test_unit_fixtureEEEE3getEv
FNDA:0,_ZN5boost3_bi5valueINS_10shared_ptrINS_9unit_test17test_unit_fixtureEEEE3getEv
FN:124,_ZN5boost3_bi5valueIPNS_9unit_test15unit_test_log_tEE3getEv
FNDA:0,_ZN5boost3_bi5valueIPNS_9unit_test15unit_test_log_tEE3getEv
FN:124,_ZN5boost3_bi5valueINS_9unit_test13output_formatEE3getEv
FNDA:0,_ZN5boost3_bi5valueINS_9unit_test13output_formatEE3getEv
FN:124,_ZN5boost3_bi5valueIPFPNS_9unit_test10test_suiteEiPPcEE3getEv
FNDA:1,_ZN5boost3_bi5valueIPFPNS_9unit_test10test_suiteEiPPcEE3getEv
FN:124,_ZN5boost3_bi5valueIPNS_9unit_test13test_observerEE3getEv
FNDA:3,_ZN5boost3_bi5valueIPNS_9unit_test13test_observerEE3getEv
FN:152,_ZN5boost3_bi9unwrapperINS_4_mfi3mf2IvNS_9unit_test13test_observerEmmEEE6unwrapERS6_l
FNDA:3,_ZN5boost3_bi9unwrapperINS_4_mfi3mf2IvNS_9unit_test13test_observerEmmEEE6unwrapERS6_l
FN:152,_ZN5boost3_bi9unwrapperIPFvPFPNS_9unit_test10test_suiteEiPPcEEE6unwrapERSA_l
FNDA:1,_ZN5boost3_bi9unwrapperIPFvPFPNS_9unit_test10test_suiteEiPPcEEE6unwrapERSA_l
FN:152,_ZN5boost3_bi9unwrapperIPFvRSoEE6unwrapERS4_l
FNDA:0,_ZN5boost3_bi9unwrapperIPFvRSoEE6unwrapERS4_l
FN:152,_ZN5boost3_bi9unwrapperINS_4_mfi3mf2IvNS_9unit_test15unit_test_log_tENS4_13output_formatERSoEEE6unwrapERS8_l
FNDA:0,_ZN5boost3_bi9unwrapperINS_4_mfi3mf2IvNS_9unit_test15unit_test_log_tENS4_13output_formatERSoEEE6unwrapERS8_l
FN:152,_ZN5boost3_bi9unwrapperINS_4_mfi3mf1IvNS_9unit_test15unit_test_log_tERSoEEE6unwrapERS7_l
FNDA:0,_ZN5boost3_bi9unwrapperINS_4_mfi3mf1IvNS_9unit_test15unit_test_log_tERSoEEE6unwrapERS7_l
FN:152,_ZN5boost3_bi9unwrapperINS_4_mfi3mf0IvNS_9unit_test17test_unit_fixtureEEEE6unwrapERS6_l
FNDA:0,_ZN5boost3_bi9unwrapperINS_4_mfi3mf0IvNS_9unit_test17test_unit_fixtureEEEE6unwrapERS6_l
FN:152,_ZN5boost3_bi9unwrapperINS_4_mfi4cmf1IbNS_9unit_test9framework4impl11name_filter9componentERKNS4_9test_unitEEEE6unwrapERSC_l
FNDA:0,_ZN5boost3_bi9unwrapperINS_4_mfi4cmf1IbNS_9unit_test9framework4impl11name_filter9componentERKNS4_9test_unitEEEE6unwrapERSC_l
FN:174,_ZN5boost3_bi5list0C2Ev
FNDA:4,_ZN5boost3_bi5list0C2Ev
FN:176,_ZNK5boost3_bi5list0ixINS_10shared_ptrINS_9unit_test17test_unit_fixtureEEEEERT_RNS0_5valueIS7_EE
FNDA:0,_ZNK5boost3_bi5list0ixINS_10shared_ptrINS_9unit_test17test_unit_fixtureEEEEERT_RNS0_5valueIS7_EE
FN:176,_ZNK5boost3_bi5list0ixImEERT_RNS0_5valueIS3_EE
FNDA:3,_ZNK5boost3_bi5list0ixImEERT_RNS0_5valueIS3_EE
FN:176,_ZNK5boost3_bi5list0ixINS_9unit_test17test_case_counter19readonly_property43EEERT_RNS0_5valueIS6_EE
FNDA:3,_ZNK5boost3_bi5list0ixINS_9unit_test17test_case_counter19readonly_property43EEERT_RNS0_5valueIS6_EE
FN:176,_ZNK5boost3_bi5list0ixIPNS_9unit_test13test_observerEEERT_RNS0_5valueIS6_EE
FNDA:3,_ZNK5boost3_bi5list0ixIPNS_9unit_test13test_observerEEERT_RNS0_5valueIS6_EE
FN:176,_ZNK5boost3_bi5list0ixIPFPNS_9unit_test10test_suiteEiPPcEEERT_RNS0_5valueISA_EE
FNDA:1,_ZNK5boost3_bi5list0ixIPFPNS_9unit_test10test_suiteEiPPcEEERT_RNS0_5valueISA_EE
FN:176,_ZNK5boost3_bi5list0ixINS_9unit_test13output_formatEEERT_RNS0_5valueIS5_EE
FNDA:0,_ZNK5boost3_bi5list0ixINS_9unit_test13output_formatEEERT_RNS0_5valueIS5_EE
FN:176,_ZNK5boost3_bi5list0ixIPNS_9unit_test15unit_test_log_tEEERT_RNS0_5valueIS6_EE
FNDA:0,_ZNK5boost3_bi5list0ixIPNS_9unit_test15unit_test_log_tEEERT_RNS0_5valueIS6_EE
FN:180,_ZNK5boost3_bi5list0ixISoEERT_RKNS_17reference_wrapperIS3_EE
FNDA:0,_ZNK5boost3_bi5list0ixISoEERT_RKNS_17reference_wrapperIS3_EE
FN:231,_ZN5boost3_bi5list1INS0_5valueINS_10shared_ptrINS_9unit_test17test_unit_fixtureEEEEEEC2ES7_
FNDA:0,_ZN5boost3_bi5list1INS0_5valueINS_10shared_ptrINS_9unit_test17test_unit_fixtureEEEEEEC2ES7_
FN:231,_ZN5boost3_bi5list1INS_17reference_wrapperISoEEEC2ES3_
FNDA:0,_ZN5boost3_bi5list1INS_17reference_wrapperISoEEEC2ES3_
FN:231,_ZN5boost3_bi5list1INS0_5valueIPFPNS_9unit_test10test_suiteEiPPcEEEEC2ESA_
FNDA:1,_ZN5boost3_bi5list1INS0_5valueIPFPNS_9unit_test10test_suiteEiPPcEEEEC2ESA_
FN:257,_ZN5boost3_bi5list1INS0_5valueINS_10shared_ptrINS_9unit_test17test_unit_fixtureEEEEEEclINS_4_mfi3mf0IvS5_EENS0_5list0EEEvNS0_4typeIvEERT_RT0_i
FNDA:0,_ZN5boost3_bi5list1INS0_5valueINS_10shared_ptrINS_9unit_test17test_unit_fixtureEEEEEEclINS_4_mfi3mf0IvS5_EENS0_5list0EEEvNS0_4typeIvEERT_RT0_i
FN:257,_ZN5boost3_bi5list1INS0_5valueIPFPNS_9unit_test10test_suiteEiPPcEEEEclIPFvS9_ENS0_5list0EEEvNS0_4typeIvEERT_RT0_i
FNDA:1,_ZN5boost3_bi5list1INS0_5valueIPFPNS_9unit_test10test_suiteEiPPcEEEEclIPFvS9_ENS0_5list0EEEvNS0_4typeIvEERT_RT0_i
FN:257,_ZN5boost3_bi5list1INS_17reference_wrapperISoEEEclIPFvRSoENS0_5list0EEEvNS0_4typeIvEERT_RT0_i
FNDA:0,_ZN5boost3_bi5list1INS_17reference_wrapperISoEEEclIPFvRSoENS0_5list0EEEvNS0_4typeIvEERT_RT0_i
FN:289,_ZN5boost3_bi5list2INS_3argILi1EEENS_17reference_wrapperIKNS_9unit_test9test_unitEEEEC2ES3_S8_
FNDA:0,_ZN5boost3_bi5list2INS_3argILi1EEENS_17reference_wrapperIKNS_9unit_test9test_unitEEEEC2ES3_S8_
FN:289,_ZN5boost3_bi5list2INS0_5valueIPNS_9unit_test15unit_test_log_tEEENS_17reference_wrapperISoEEEC2ES6_S8_
FNDA:0,_ZN5boost3_bi5list2INS0_5valueIPNS_9unit_test15unit_test_log_tEEENS_17reference_wrapperISoEEEC2ES6_S8_
FN:307,_ZN5boost3_bi5list2INS_3argILi1EEENS_17reference_wrapperIKNS_9unit_test9test_unitEEEEclIbNS_4_mfi4cmf1IbNS5_9framework4impl11name_filter9componentERS7_EENS0_7rrlist1IRKSG_EEEET_NS0_4typeISN_EERT0_RT1_l
FNDA:0,_ZN5boost3_bi5list2INS_3argILi1EEENS_17reference_wrapperIKNS_9unit_test9test_unitEEEEclIbNS_4_mfi4cmf1IbNS5_9framework4impl11name_filter9componentERS7_EENS0_7rrlist1IRKSG_EEEET_NS0_4typeISN_EERT0_RT1_l
FN:317,_ZN5boost3_bi5list2INS0_5valueIPNS_9unit_test15unit_test_log_tEEENS_17reference_wrapperISoEEEclINS_4_mfi3mf1IvS4_RSoEENS0_5list0EEEvNS0_4typeIvEERT_RT0_i
FNDA:0,_ZN5boost3_bi5list2INS0_5valueIPNS_9unit_test15unit_test_log_tEEENS_17reference_wrapperISoEEEclINS_4_mfi3mf1IvS4_RSoEENS0_5list0EEEvNS0_4typeIvEERT_RT0_i
FN:366,_ZN5boost3_bi5list3INS0_5valueIPNS_9unit_test13test_observerEEENS2_INS3_17test_case_counter19readonly_property43EEENS2_ImEEEC2ES6_S9_SA_
FNDA:3,_ZN5boost3_bi5list3INS0_5valueIPNS_9unit_test13test_observerEEENS2_INS3_17test_case_counter19readonly_property43EEENS2_ImEEEC2ES6_S9_SA_
FN:366,_ZN5boost3_bi5list3INS0_5valueIPNS_9unit_test15unit_test_log_tEEENS2_INS3_13output_formatEEENS_17reference_wrapperISoEEEC2ES6_S8_SA_
FNDA:0,_ZN5boost3_bi5list3INS0_5valueIPNS_9unit_test15unit_test_log_tEEENS2_INS3_13output_formatEEENS_17reference_wrapperISoEEEC2ES6_S8_SA_
FN:396,_ZN5boost3_bi5list3INS0_5valueIPNS_9unit_test15unit_test_log_tEEENS2_INS3_13output_formatEEENS_17reference_wrapperISoEEEclINS_4_mfi3mf2IvS4_S7_RSoEENS0_5list0EEEvNS0_4typeIvEERT_RT0_i
FNDA:0,_ZN5boost3_bi5list3INS0_5valueIPNS_9unit_test15unit_test_log_tEEENS2_INS3_13output_formatEEENS_17reference_wrapperISoEEEclINS_4_mfi3mf2IvS4_S7_RSoEENS0_5list0EEEvNS0_4typeIvEERT_RT0_i
FN:396,_ZN5boost3_bi5list3INS0_5valueIPNS_9unit_test13test_observerEEENS2_INS3_17test_case_counter19readonly_property43EEENS2_ImEEEclINS_4_mfi3mf2IvS4_mmEENS0_5list0EEEvNS0_4typeIvEERT_RT0_i
FNDA:3,_ZN5boost3_bi5list3INS0_5valueIPNS_9unit_test13test_observerEEENS2_INS3_17test_case_counter19readonly_property43EEENS2_ImEEEclINS_4_mfi3mf2IvS4_mmEENS0_5list0EEEvNS0_4typeIvEERT_RT0_i
FN:878,_ZN5boost3_bi7rrlist1IRKNS_9unit_test9framework4impl11name_filter9componentEEC2ES8_
FNDA:0,_ZN5boost3_bi7rrlist1IRKNS_9unit_test9framework4impl11name_filter9componentEEC2ES8_
FN:882,_ZNK5boost3_bi7rrlist1IRKNS_9unit_test9framework4impl11name_filter9componentEEixEPFNS_3argILi1EEEvE
FNDA:0,_ZNK5boost3_bi7rrlist1IRKNS_9unit_test9framework4impl11name_filter9componentEEixEPFNS_3argILi1EEEvE
FN:888,_ZNK5boost3_bi7rrlist1IRKNS_9unit_test9framework4impl11name_filter9componentEEixIKNS2_9test_unitEEERT_RKNS_17reference_wrapperISD_EE
FNDA:0,_ZNK5boost3_bi7rrlist1IRKNS_9unit_test9framework4impl11name_filter9componentEEixIKNS2_9test_unitEEERT_RKNS_17reference_wrapperISD_EE
FN:1287,_ZN5boost3_bi6bind_tIvPFvPFPNS_9unit_test10test_suiteEiPPcEENS0_5list1INS0_5valueIS8_EEEEEC2ESA_RKSE_
FNDA:1,_ZN5boost3_bi6bind_tIvPFvPFPNS_9unit_test10test_suiteEiPPcEENS0_5list1INS0_5valueIS8_EEEEEC2ESA_RKSE_
FN:1287,_ZN5boost3_bi6bind_tIvPFvRSoENS0_5list1INS_17reference_wrapperISoEEEEEC2ES4_RKS8_
FNDA:0,_ZN5boost3_bi6bind_tIvPFvRSoENS0_5list1INS_17reference_wrapperISoEEEEEC2ES4_RKS8_
FN:1287,_ZN5boost3_bi6bind_tIbNS_4_mfi4cmf1IbNS_9unit_test9framework4impl11name_filter9componentERKNS4_9test_unitEEENS0_5list2INS_3argILi1EEENS_17reference_wrapperISA_EEEEEC2ESC_RKSI_
FNDA:0,_ZN5boost3_bi6bind_tIbNS_4_mfi4cmf1IbNS_9unit_test9framework4impl11name_filter9componentERKNS4_9test_unitEEENS0_5list2INS_3argILi1EEENS_17reference_wrapperISA_EEEEEC2ESC_RKSI_
FN:1287,_ZN5boost3_bi6bind_tIvNS_4_mfi3mf2IvNS_9unit_test15unit_test_log_tENS4_13output_formatERSoEENS0_5list3INS0_5valueIPS5_EENSA_IS6_EENS_17reference_wrapperISoEEEEEC2ES8_RKSG_
FNDA:0,_ZN5boost3_bi6bind_tIvNS_4_mfi3mf2IvNS_9unit_test15unit_test_log_tENS4_13output_formatERSoEENS0_5list3INS0_5valueIPS5_EENSA_IS6_EENS_17reference_wrapperISoEEEEEC2ES8_RKSG_
FN:1287,_ZN5boost3_bi6bind_tIvNS_4_mfi3mf2IvNS_9unit_test13test_observerEmmEENS0_5list3INS0_5valueIPS5_EENS8_INS4_17test_case_counter19readonly_property43EEENS8_ImEEEEEC2ES6_RKSF_
FNDA:3,_ZN5boost3_bi6bind_tIvNS_4_mfi3mf2IvNS_9unit_test13test_observerEmmEENS0_5list3INS0_5valueIPS5_EENS8_INS4_17test_case_counter19readonly_property43EEENS8_ImEEEEEC2ES6_RKSF_
FN:1287,_ZN5boost3_bi6bind_tIvNS_4_mfi3mf1IvNS_9unit_test15unit_test_log_tERSoEENS0_5list2INS0_5valueIPS5_EENS_17reference_wrapperISoEEEEEC2ES7_RKSE_
FNDA:0,_ZN5boost3_bi6bind_tIvNS_4_mfi3mf1IvNS_9unit_test15unit_test_log_tERSoEENS0_5list2INS0_5valueIPS5_EENS_17reference_wrapperISoEEEEEC2ES7_RKSE_
FN:1287,_ZN5boost3_bi6bind_tIvNS_4_mfi3mf0IvNS_9unit_test17test_unit_fixtureEEENS0_5list1INS0_5valueINS_10shared_ptrIS5_EEEEEEEC2ES6_RKSC_
FNDA:0,_ZN5boost3_bi6bind_tIvNS_4_mfi3mf0IvNS_9unit_test17test_unit_fixtureEEENS0_5list1INS0_5valueINS_10shared_ptrIS5_EEEEEEEC2ES6_RKSC_
FN:1291,_ZN5boost3_bi6bind_tIvNS_4_mfi3mf2IvNS_9unit_test15unit_test_log_tENS4_13output_formatERSoEENS0_5list3INS0_5valueIPS5_EENSA_IS6_EENS_17reference_wrapperISoEEEEEclEv
FNDA:0,_ZN5boost3_bi6bind_tIvNS_4_mfi3mf2IvNS_9unit_test15unit_test_log_tENS4_13output_formatERSoEENS0_5list3INS0_5valueIPS5_EENSA_IS6_EENS_17reference_wrapperISoEEEEEclEv
FN:1291,_ZN5boost3_bi6bind_tIvNS_4_mfi3mf2IvNS_9unit_test13test_observerEmmEENS0_5list3INS0_5valueIPS5_EENS8_INS4_17test_case_counter19readonly_property43EEENS8_ImEEEEEclEv
FNDA:3,_ZN5boost3_bi6bind_tIvNS_4_mfi3mf2IvNS_9unit_test13test_observerEmmEENS0_5list3INS0_5valueIPS5_EENS8_INS4_17test_case_counter19readonly_property43EEENS8_ImEEEEEclEv
FN:1291,_ZN5boost3_bi6bind_tIvPFvPFPNS_9unit_test10test_suiteEiPPcEENS0_5list1INS0_5valueIS8_EEEEEclEv
FNDA:1,_ZN5boost3_bi6bind_tIvPFvPFPNS_9unit_test10test_suiteEiPPcEENS0_5list1INS0_5valueIS8_EEEEEclEv
FN:1291,_ZN5boost3_bi6bind_tIvPFvRSoENS0_5list1INS_17reference_wrapperISoEEEEEclEv
FNDA:0,_ZN5boost3_bi6bind_tIvPFvRSoENS0_5list1INS_17reference_wrapperISoEEEEEclEv
FN:1291,_ZN5boost3_bi6bind_tIvNS_4_mfi3mf1IvNS_9unit_test15unit_test_log_tERSoEENS0_5list2INS0_5valueIPS5_EENS_17reference_wrapperISoEEEEEclEv
FNDA:0,_ZN5boost3_bi6bind_tIvNS_4_mfi3mf1IvNS_9unit_test15unit_test_log_tERSoEENS0_5list2INS0_5valueIPS5_EENS_17reference_wrapperISoEEEEEclEv
FN:1291,_ZN5boost3_bi6bind_tIvNS_4_mfi3mf0IvNS_9unit_test17test_unit_fixtureEEENS0_5list1INS0_5valueINS_10shared_ptrIS5_EEEEEEEclEv
FNDA:0,_ZN5boost3_bi6bind_tIvNS_4_mfi3mf0IvNS_9unit_test17test_unit_fixtureEEENS0_5list1INS0_5valueINS_10shared_ptrIS5_EEEEEEEclEv
FN:1303,_ZN5boost3_bi6bind_tIbNS_4_mfi4cmf1IbNS_9unit_test9framework4impl11name_filter9componentERKNS4_9test_unitEEENS0_5list2INS_3argILi1EEENS_17reference_wrapperISA_EEEEEclIRKS8_EEbOT_
FNDA:0,_ZN5boost3_bi6bind_tIbNS_4_mfi4cmf1IbNS_9unit_test9framework4impl11name_filter9componentERKNS4_9test_unitEEENS0_5list2INS_3argILi1EEENS_17reference_wrapperISA_EEEEEclIRKS8_EEbOT_
DA:122,3
DA:122,3
DA:122,3
DA:122,1
DA:122,0
DA:122,0
DA:122,0
DA:124,3
DA:124,3
DA:124,3
DA:124,1
DA:124,0
DA:124,0
DA:124,0
DA:152,3
DA:154,3
DA:152,1
DA:154,1
DA:152,0
DA:154,0
DA:152,0
DA:154,0
DA:152,0
DA:154,0
DA:152,0
DA:154,0
DA:152,0
DA:154,0
DA:174,4
DA:176,3
DA:176,3
DA:176,3
DA:176,1
DA:176,0
DA:176,0
DA:176,0
DA:180,0
DA:231,1
DA:231,0
DA:231,0
DA:257,1
DA:259,1
DA:260,1
DA:257,0
DA:259,0
DA:260,0
DA:257,0
DA:259,0
DA:260,0
DA:289,0
DA:289,0
DA:307,0
DA:309,0
DA:317,0
DA:319,0
DA:320,0
DA:366,3
DA:366,0
DA:396,3
DA:398,3
DA:399,3
DA:396,0
DA:398,0
DA:399,0
DA:878,0
DA:882,0
DA:888,0
DA:1287,3
DA:1287,1
DA:1287,0
DA:1287,0
DA:1287,0
DA:1287,0
DA:1287,0
DA:1291,3
DA:1293,3
DA:1294,6
DA:1291,1
DA:1293,1
DA:1294,2
DA:1291,0
DA:1293,0
DA:1294,0
DA:1291,0
DA:1293,0
DA:1294,0
DA:1291,0
DA:1293,0
DA:1294,0
DA:1291,0
DA:1293,0
DA:1294,0
DA:1303,0
DA:1305,0
DA:1306,0
end_of_record
SF:/usr/include/boost/test/utils/iterator/input_iterator_facade.hpp
FN:39,_ZN5boost9unit_test5utils26input_iterator_core_access3getINS1_27basic_string_token_iteratorIcNS1_9ut_detail20default_char_compareIcEEEEEEbRT_
FNDA:0,_ZN5boost9unit_test5utils26input_iterator_core_access3getINS1_27basic_string_token_iteratorIcNS1_9ut_detail20default_char_compareIcEEEEEEbRT_
FN:61,_ZN5boost9unit_test5utils21input_iterator_facadeINS1_27basic_string_token_iteratorIcNS1_9ut_detail20default_char_compareIcEEEENS0_13basic_cstringIKcEESA_NS_9iterators21forward_traversal_tagEEC2Ev
FNDA:0,_ZN5boost9unit_test5utils21input_iterator_facadeINS1_27basic_string_token_iteratorIcNS1_9ut_detail20default_char_compareIcEEEENS0_13basic_cstringIKcEESA_NS_9iterators21forward_traversal_tagEEC2Ev
FN:64,_ZN5boost9unit_test5utils21input_iterator_facadeINS1_27basic_string_token_iteratorIcNS1_9ut_detail20default_char_compareIcEEEENS0_13basic_cstringIKcEESA_NS_9iterators21forward_traversal_tagEE4initEv
FNDA:0,_ZN5boost9unit_test5utils21input_iterator_facadeINS1_27basic_string_token_iteratorIcNS1_9ut_detail20default_char_compareIcEEEENS0_13basic_cstringIKcEESA_NS_9iterators21forward_traversal_tagEE4initEv
FN:78,_ZN5boost9unit_test5utils21input_iterator_facadeINS1_27basic_string_token_iteratorIcNS1_9ut_detail20default_char_compareIcEEEENS0_13basic_cstringIKcEESA_NS_9iterators21forward_traversal_tagEE9incrementEv
FNDA:0,_ZN5boost9unit_test5utils21input_iterator_facadeINS1_27basic_string_token_iteratorIcNS1_9ut_detail20default_char_compareIcEEEENS0_13basic_cstringIKcEESA_NS_9iterators21forward_traversal_tagEE9incrementEv
FN:84,_ZNK5boost9unit_test5utils21input_iterator_facadeINS1_27basic_string_token_iteratorIcNS1_9ut_detail20default_char_compareIcEEEENS0_13basic_cstringIKcEESA_NS_9iterators21forward_traversal_tagEE11dereferenceEv
FNDA:0,_ZNK5boost9unit_test5utils21input_iterator_facadeINS1_27basic_string_token_iteratorIcNS1_9ut_detail20default_char_compareIcEEEENS0_13basic_cstringIKcEESA_NS_9iterators21forward_traversal_tagEE11dereferenceEv
FN:90,_ZNK5boost9unit_test5utils21input_iterator_facadeINS1_27basic_string_token_iteratorIcNS1_9ut_detail20default_char_compareIcEEEENS0_13basic_cstringIKcEESA_NS_9iterators21forward_traversal_tagEE5equalERKSD_
FNDA:0,_ZNK5boost9unit_test5utils21input_iterator_facadeINS1_27basic_string_token_iteratorIcNS1_9ut_detail20default_char_compareIcEEEENS0_13basic_cstringIKcEESA_NS_9iterators21forward_traversal_tagEE5equalERKSD_
DA:39,0
DA:41,0
DA:61,0
DA:64,0
DA:66,0
DA:67,0
DA:68,0
DA:78,0
DA:81,0
DA:82,0
DA:83,0
DA:84,0
DA:86,0
DA:90,0
DA:93,0
end_of_record
SF:/usr/include/boost/function/function_template.hpp
FN:112,_ZN5boost6detail8function22void_function_invoker1IPFvRKNS_5debug16dbg_startup_infoEEvS6_E6invokeERNS1_15function_bufferES6_
FNDA:0,_ZN5boost6detail8function22void_function_invoker1IPFvRKNS_5debug16dbg_startup_infoEEvS6_E6invokeERNS1_15function_bufferES6_
FN:112,_ZN5boost6detail8function22void_function_invoker0IPFvvEvE6invokeERNS1_15function_bufferE
FNDA:8,_ZN5boost6detail8function22void_function_invoker0IPFvvEvE6invokeERNS1_15function_bufferE
FN:128,_ZN5boost6detail8function21function_obj_invoker0INS0_7forwardEiE6invokeERNS1_15function_bufferE
FNDA:12,_ZN5boost6detail8function21function_obj_invoker0INS0_7forwardEiE6invokeERNS1_15function_bufferE
FN:149,_ZN5boost6detail8function26void_function_obj_invoker0INS_3_bi6bind_tIvNS_4_mfi3mf2IvNS_9unit_test13test_observerEmmEENS3_5list3INS3_5valueIPS8_EENSB_INS7_17test_case_counter19readonly_property43EEENSB_ImEEEEEEvE6invokeERNS1_15function_bufferE
FNDA:3,_ZN5boost6detail8function26void_function_obj_invoker0INS_3_bi6bind_tIvNS_4_mfi3mf2IvNS_9unit_test13test_observerEmmEENS3_5list3INS3_5valueIPS8_EENSB_INS7_17test_case_counter19readonly_property43EEENSB_ImEEEEEEvE6invokeERNS1_15function_bufferE
FN:149,_ZN5boost6detail8function26void_function_obj_invoker0INS_3_bi6bind_tIvPFvRSoENS3_5list1INS_17reference_wrapperISoEEEEEEvE6invokeERNS1_15function_bufferE
FNDA:0,_ZN5boost6detail8function26void_function_obj_invoker0INS_3_bi6bind_tIvPFvRSoENS3_5list1INS_17reference_wrapperISoEEEEEEvE6invokeERNS1_15function_bufferE
FN:149,_ZN5boost6detail8function26void_function_obj_invoker1IZNS_9unit_test14runtime_config12_GLOBAL__N_119register_parametersERNS_7runtime16parameters_storeEEUlNS3_13basic_cstringIKcEEE_vSB_E6invokeERNS1_15function_bufferESB_
FNDA:0,_ZN5boost6detail8function26void_function_obj_invoker1IZNS_9unit_test14runtime_config12_GLOBAL__N_119register_parametersERNS_7runtime16parameters_storeEEUlNS3_13basic_cstringIKcEEE_vSB_E6invokeERNS1_15function_bufferESB_
FN:149,_ZN5boost6detail8function26void_function_obj_invoker0INS_3_bi6bind_tIvNS_4_mfi3mf2IvNS_9unit_test15unit_test_log_tENS7_13output_formatERSoEENS3_5list3INS3_5valueIPS8_EENSD_IS9_EENS_17reference_wrapperISoEEEEEEvE6invokeERNS1_15function_bufferE
FNDA:0,_ZN5boost6detail8function26void_function_obj_invoker0INS_3_bi6bind_tIvNS_4_mfi3mf2IvNS_9unit_test15unit_test_log_tENS7_13output_formatERSoEENS3_5list3INS3_5valueIPS8_EENSD_IS9_EENS_17reference_wrapperISoEEEEEEvE6invokeERNS1_15function_bufferE
FN:149,_ZN5boost6detail8function26void_function_obj_invoker0INS_3_bi6bind_tIvNS_4_mfi3mf1IvNS_9unit_test15unit_test_log_tERSoEENS3_5list2INS3_5valueIPS8_EENS_17reference_wrapperISoEEEEEEvE6invokeERNS1_15function_bufferE
FNDA:0,_ZN5boost6detail8function26void_function_obj_invoker0INS_3_bi6bind_tIvNS_4_mfi3mf1IvNS_9unit_test15unit_test_log_tERSoEENS3_5list2INS3_5valueIPS8_EENS_17reference_wrapperISoEEEEEEvE6invokeERNS1_15function_bufferE
FN:149,_ZN5boost6detail8function26void_function_obj_invoker0INS_3_bi6bind_tIvNS_4_mfi3mf0IvNS_9unit_test17test_unit_fixtureEEENS3_5list1INS3_5valueINS_10shared_ptrIS8_EEEEEEEEvE6invokeERNS1_15function_bufferE
FNDA:0,_ZN5boost6detail8function26void_function_obj_invoker0INS_3_bi6bind_tIvNS_4_mfi3mf0IvNS_9unit_test17test_unit_fixtureEEENS3_5list1INS3_5valueINS_10shared_ptrIS8_EEEEEEEEvE6invokeERNS1_15function_bufferE
FN:149,_ZN5boost6detail8function26void_function_obj_invoker0INS_3_bi6bind_tIvPFvPFPNS_9unit_test10test_suiteEiPPcEENS3_5list1INS3_5valueISB_EEEEEEvE6invokeERNS1_15function_bufferE
FNDA:1,_ZN5boost6detail8function26void_function_obj_invoker0INS_3_bi6bind_tIvPFvPFPNS_9unit_test10test_suiteEiPPcEENS3_5list1INS3_5valueISB_EEEEEEvE6invokeERNS1_15function_bufferE
FN:490,_ZNK5boost6detail8function13basic_vtable0IvE9assign_toINS_3_bi6bind_tIvPFvRSoENS5_5list1INS_17reference_wrapperISoEEEEEEEEbT_RNS1_15function_bufferE
FNDA:0,_ZNK5boost6detail8function13basic_vtable0IvE9assign_toINS_3_bi6bind_tIvPFvRSoENS5_5list1INS_17reference_wrapperISoEEEEEEEEbT_RNS1_15function_bufferE
FN:490,_ZNK5boost6detail8function13basic_vtable0IvE9assign_toINS_3_bi6bind_tIvNS_4_mfi3mf2IvNS_9unit_test15unit_test_log_tENS9_13output_formatERSoEENS5_5list3INS5_5valueIPSA_EENSF_ISB_EENS_17reference_wrapperISoEEEEEEEEbT_RNS1_15function_bufferE
FNDA:0,_ZNK5boost6detail8function13basic_vtable0IvE9assign_toINS_3_bi6bind_tIvNS_4_mfi3mf2IvNS_9unit_test15unit_test_log_tENS9_13output_formatERSoEENS5_5list3INS5_5valueIPSA_EENSF_ISB_EENS_17reference_wrapperISoEEEEEEEEbT_RNS1_15function_bufferE
FN:490,_ZNK5boost6detail8function13basic_vtable0IvE9assign_toINS_3_bi6bind_tIvNS_4_mfi3mf1IvNS_9unit_test15unit_test_log_tERSoEENS5_5list2INS5_5valueIPSA_EENS_17reference_wrapperISoEEEEEEEEbT_RNS1_15function_bufferE
FNDA:0,_ZNK5boost6detail8function13basic_vtable0IvE9assign_toINS_3_bi6bind_tIvNS_4_mfi3mf1IvNS_9unit_test15unit_test_log_tERSoEENS5_5list2INS5_5valueIPSA_EENS_17reference_wrapperISoEEEEEEEEbT_RNS1_15function_bufferE
FN:490,_ZNK5boost6detail8function13basic_vtable0IvE9assign_toINS_3_bi6bind_tIvNS_4_mfi3mf0IvNS_9unit_test17test_unit_fixtureEEENS5_5list1INS5_5valueINS_10shared_ptrISA_EEEEEEEEEEbT_RNS1_15function_bufferE
FNDA:0,_ZNK5boost6detail8function13basic_vtable0IvE9assign_toINS_3_bi6bind_tIvNS_4_mfi3mf0IvNS_9unit_test17test_unit_fixtureEEENS5_5list1INS5_5valueINS_10shared_ptrISA_EEEEEEEEEEbT_RNS1_15function_bufferE
FN:490,_ZNK5boost6detail8function13basic_vtable1IvRKNS_5debug16dbg_startup_infoEE9assign_toIPFvS6_EEEbT_RNS1_15function_bufferE
FNDA:9,_ZNK5boost6detail8function13basic_vtable1IvRKNS_5debug16dbg_startup_infoEE9assign_toIPFvS6_EEEbT_RNS1_15function_bufferE
FN:490,_ZNK5boost6detail8function13basic_vtable0IvE9assign_toIPFvvEEEbT_RNS1_15function_bufferE
FNDA:8,_ZNK5boost6detail8function13basic_vtable0IvE9assign_toIPFvvEEEbT_RNS1_15function_bufferE
FN:490,_ZNK5boost6detail8function13basic_vtable0IvE9assign_toINS_3_bi6bind_tIvPFvPFPNS_9unit_test10test_suiteEiPPcEENS5_5list1INS5_5valueISD_EEEEEEEEbT_RNS1_15function_bufferE
FNDA:1,_ZNK5boost6detail8function13basic_vtable0IvE9assign_toINS_3_bi6bind_tIvPFvPFPNS_9unit_test10test_suiteEiPPcEENS5_5list1INS5_5valueISD_EEEEEEEEbT_RNS1_15function_bufferE
FN:490,_ZNK5boost6detail8function13basic_vtable0IiE9assign_toINS0_7forwardEEEbT_RNS1_15function_bufferE
FNDA:12,_ZNK5boost6detail8function13basic_vtable0IiE9assign_toINS0_7forwardEEEbT_RNS1_15function_bufferE
FN:490,_ZNK5boost6detail8function13basic_vtable0IvE9assign_toINS_3_bi6bind_tIvNS_4_mfi3mf2IvNS_9unit_test13test_observerEmmEENS5_5list3INS5_5valueIPSA_EENSD_INS9_17test_case_counter19readonly_property43EEENSD_ImEEEEEEEEbT_RNS1_15function_bufferE
FNDA:3,_ZNK5boost6detail8function13basic_vtable0IvE9assign_toINS_3_bi6bind_tIvNS_4_mfi3mf2IvNS_9unit_test13test_observerEmmEENS5_5list3INS5_5valueIPSA_EENSD_INS9_17test_case_counter19readonly_property43EEENSD_ImEEEEEEEEbT_RNS1_15function_bufferE
FN:490,_ZNK5boost6detail8function13basic_vtable1IvNS_9unit_test13basic_cstringIKcEEE9assign_toIZNS3_14runtime_config12_GLOBAL__N_119register_parametersERNS_7runtime16parameters_storeEEUlS6_E_EEbT_RNS1_15function_bufferE
FNDA:1,_ZNK5boost6detail8function13basic_vtable1IvNS_9unit_test13basic_cstringIKcEEE9assign_toIZNS3_14runtime_config12_GLOBAL__N_119register_parametersERNS_7runtime16parameters_storeEEUlS6_E_EEbT_RNS1_15function_bufferE
FN:502,_ZNK5boost6detail8function13basic_vtable1IvNS_9unit_test13basic_cstringIKcEEE5clearERNS1_15function_bufferE
FNDA:0,_ZNK5boost6detail8function13basic_vtable1IvNS_9unit_test13basic_cstringIKcEEE5clearERNS1_15function_bufferE
FN:502,_ZNK5boost6detail8function13basic_vtable0IiE5clearERNS1_15function_bufferE
FNDA:0,_ZNK5boost6detail8function13basic_vtable0IiE5clearERNS1_15function_bufferE
FN:502,_ZNK5boost6detail8function13basic_vtable1IvRKNS_5debug16dbg_startup_infoEE5clearERNS1_15function_bufferE
FNDA:9,_ZNK5boost6detail8function13basic_vtable1IvRKNS_5debug16dbg_startup_infoEE5clearERNS1_15function_bufferE
FN:502,_ZNK5boost6detail8function13basic_vtable1INS_10test_tools16assertion_resultEmE5clearERNS1_15function_bufferE
FNDA:0,_ZNK5boost6detail8function13basic_vtable1INS_10test_tools16assertion_resultEmE5clearERNS1_15function_bufferE
FN:502,_ZNK5boost6detail8function13basic_vtable0IvE5clearERNS1_15function_bufferE
FNDA:11,_ZNK5boost6detail8function13basic_vtable0IvE5clearERNS1_15function_bufferE
FN:512,_ZNK5boost6detail8function13basic_vtable0IvE9assign_toIPFvvEEEbT_RNS1_15function_bufferENS1_16function_ptr_tagE
FNDA:8,_ZNK5boost6detail8function13basic_vtable0IvE9assign_toIPFvvEEEbT_RNS1_15function_bufferENS1_16function_ptr_tagE
FN:512,_ZNK5boost6detail8function13basic_vtable1IvRKNS_5debug16dbg_startup_infoEE9assign_toIPFvS6_EEEbT_RNS1_15function_bufferENS1_16function_ptr_tagE
FNDA:9,_ZNK5boost6detail8function13basic_vtable1IvRKNS_5debug16dbg_startup_infoEE9assign_toIPFvS6_EEEbT_RNS1_15function_bufferENS1_16function_ptr_tagE
FN:565,_ZNK5boost6detail8function13basic_vtable0IvE14assign_functorINS_3_bi6bind_tIvPFvRSoENS5_5list1INS_17reference_wrapperISoEEEEEEEEvT_RNS1_15function_bufferENS_17integral_constantIbLb1EEE
FNDA:0,_ZNK5boost6detail8function13basic_vtable0IvE14assign_functorINS_3_bi6bind_tIvPFvRSoENS5_5list1INS_17reference_wrapperISoEEEEEEEEvT_RNS1_15function_bufferENS_17integral_constantIbLb1EEE
FN:565,_ZNK5boost6detail8function13basic_vtable0IvE14assign_functorINS_3_bi6bind_tIvPFvPFPNS_9unit_test10test_suiteEiPPcEENS5_5list1INS5_5valueISD_EEEEEEEEvT_RNS1_15function_bufferENS_17integral_constantIbLb1EEE
FNDA:1,_ZNK5boost6detail8function13basic_vtable0IvE14assign_functorINS_3_bi6bind_tIvPFvPFPNS_9unit_test10test_suiteEiPPcEENS5_5list1INS5_5valueISD_EEEEEEEEvT_RNS1_15function_bufferENS_17integral_constantIbLb1EEE
FN:565,_ZNK5boost6detail8function13basic_vtable0IiE14assign_functorINS0_7forwardEEEvT_RNS1_15function_bufferENS_17integral_constantIbLb1EEE
FNDA:12,_ZNK5boost6detail8function13basic_vtable0IiE14assign_functorINS0_7forwardEEEvT_RNS1_15function_bufferENS_17integral_constantIbLb1EEE
FN:565,_ZNK5boost6detail8function13basic_vtable1IvNS_9unit_test13basic_cstringIKcEEE14assign_functorIZNS3_14runtime_config12_GLOBAL__N_119register_parametersERNS_7runtime16parameters_storeEEUlS6_E_EEvT_RNS1_15function_bufferENS_17integral_constantIbLb1EEE
FNDA:1,_ZNK5boost6detail8function13basic_vtable1IvNS_9unit_test13basic_cstringIKcEEE14assign_functorIZNS3_14runtime_config12_GLOBAL__N_119register_parametersERNS_7runtime16parameters_storeEEUlS6_E_EEvT_RNS1_15function_bufferENS_17integral_constantIbLb1EEE
FN:579,_ZNK5boost6detail8function13basic_vtable0IvE14assign_functorINS_3_bi6bind_tIvNS_4_mfi3mf0IvNS_9unit_test17test_unit_fixtureEEENS5_5list1INS5_5valueINS_10shared_ptrISA_EEEEEEEEEEvT_RNS1_15function_bufferENS_17integral_constantIbLb0EEE
FNDA:0,_ZNK5boost6detail8function13basic_vtable0IvE14assign_functorINS_3_bi6bind_tIvNS_4_mfi3mf0IvNS_9unit_test17test_unit_fixtureEEENS5_5list1INS5_5valueINS_10shared_ptrISA_EEEEEEEEEEvT_RNS1_15function_bufferENS_17integral_constantIbLb0EEE
FN:579,_ZNK5boost6detail8function13basic_vtable0IvE14assign_functorINS_3_bi6bind_tIvNS_4_mfi3mf1IvNS_9unit_test15unit_test_log_tERSoEENS5_5list2INS5_5valueIPSA_EENS_17reference_wrapperISoEEEEEEEEvT_RNS1_15function_bufferENS_17integral_constantIbLb0EEE
FNDA:0,_ZNK5boost6detail8function13basic_vtable0IvE14assign_functorINS_3_bi6bind_tIvNS_4_mfi3mf1IvNS_9unit_test15unit_test_log_tERSoEENS5_5list2INS5_5valueIPSA_EENS_17reference_wrapperISoEEEEEEEEvT_RNS1_15function_bufferENS_17integral_constantIbLb0EEE
FN:579,_ZNK5boost6detail8function13basic_vtable0IvE14assign_functorINS_3_bi6bind_tIvNS_4_mfi3mf2IvNS_9unit_test15unit_test_log_tENS9_13output_formatERSoEENS5_5list3INS5_5valueIPSA_EENSF_ISB_EENS_17reference_wrapperISoEEEEEEEEvT_RNS1_15function_bufferENS_17integral_constantIbLb0EEE
FNDA:0,_ZNK5boost6detail8function13basic_vtable0IvE14assign_functorINS_3_bi6bind_tIvNS_4_mfi3mf2IvNS_9unit_test15unit_test_log_tENS9_13output_formatERSoEENS5_5list3INS5_5valueIPSA_EENSF_ISB_EENS_17reference_wrapperISoEEEEEEEEvT_RNS1_15function_bufferENS_17integral_constantIbLb0EEE
FN:579,_ZNK5boost6detail8function13basic_vtable0IvE14assign_functorINS_3_bi6bind_tIvNS_4_mfi3mf2IvNS_9unit_test13test_observerEmmEENS5_5list3INS5_5valueIPSA_EENSD_INS9_17test_case_counter19readonly_property43EEENSD_ImEEEEEEEEvT_RNS1_15function_bufferENS_17integral_constantIbLb0EEE
FNDA:3,_ZNK5boost6detail8function13basic_vtable0IvE14assign_functorINS_3_bi6bind_tIvNS_4_mfi3mf2IvNS_9unit_test13test_observerEmmEENS5_5list3INS5_5valueIPSA_EENSD_INS9_17test_case_counter19readonly_property43EEENSD_ImEEEEEEEEvT_RNS1_15function_bufferENS_17integral_constantIbLb0EEE
FN:609,_ZNK5boost6detail8function13basic_vtable1IvNS_9unit_test13basic_cstringIKcEEE9assign_toIZNS3_14runtime_config12_GLOBAL__N_119register_parametersERNS_7runtime16parameters_storeEEUlS6_E_EEbT_RNS1_15function_bufferENS1_16function_obj_tagE
FNDA:1,_ZNK5boost6detail8function13basic_vtable1IvNS_9unit_test13basic_cstringIKcEEE9assign_toIZNS3_14runtime_config12_GLOBAL__N_119register_parametersERNS_7runtime16parameters_storeEEUlS6_E_EEbT_RNS1_15function_bufferENS1_16function_obj_tagE
FN:609,_ZNK5boost6detail8function13basic_vtable0IvE9assign_toINS_3_bi6bind_tIvNS_4_mfi3mf0IvNS_9unit_test17test_unit_fixtureEEENS5_5list1INS5_5valueINS_10shared_ptrISA_EEEEEEEEEEbT_RNS1_15function_bufferENS1_16function_obj_tagE
FNDA:0,_ZNK5boost6detail8function13basic_vtable0IvE9assign_toINS_3_bi6bind_tIvNS_4_mfi3mf0IvNS_9unit_test17test_unit_fixtureEEENS5_5list1INS5_5valueINS_10shared_ptrISA_EEEEEEEEEEbT_RNS1_15function_bufferENS1_16function_obj_tagE
FN:609,_ZNK5boost6detail8function13basic_vtable0IvE9assign_toINS_3_bi6bind_tIvNS_4_mfi3mf1IvNS_9unit_test15unit_test_log_tERSoEENS5_5list2INS5_5valueIPSA_EENS_17reference_wrapperISoEEEEEEEEbT_RNS1_15function_bufferENS1_16function_obj_tagE
FNDA:0,_ZNK5boost6detail8function13basic_vtable0IvE9assign_toINS_3_bi6bind_tIvNS_4_mfi3mf1IvNS_9unit_test15unit_test_log_tERSoEENS5_5list2INS5_5valueIPSA_EENS_17reference_wrapperISoEEEEEEEEbT_RNS1_15function_bufferENS1_16function_obj_tagE
FN:609,_ZNK5boost6detail8function13basic_vtable0IvE9assign_toINS_3_bi6bind_tIvNS_4_mfi3mf2IvNS_9unit_test15unit_test_log_tENS9_13output_formatERSoEENS5_5list3INS5_5valueIPSA_EENSF_ISB_EENS_17reference_wrapperISoEEEEEEEEbT_RNS1_15function_bufferENS1_16function_obj_tagE
FNDA:0,_ZNK5boost6detail8function13basic_vtable0IvE9assign_toINS_3_bi6bind_tIvNS_4_mfi3mf2IvNS_9unit_test15unit_test_log_tENS9_13output_formatERSoEENS5_5list3INS5_5valueIPSA_EENSF_ISB_EENS_17reference_wrapperISoEEEEEEEEbT_RNS1_15function_bufferENS1_16function_obj_tagE
FN:609,_ZNK5boost6detail8function13basic_vtable0IvE9assign_toINS_3_bi6bind_tIvPFvRSoENS5_5list1INS_17reference_wrapperISoEEEEEEEEbT_RNS1_15function_bufferENS1_16function_obj_tagE
FNDA:0,_ZNK5boost6detail8function13basic_vtable0IvE9assign_toINS_3_bi6bind_tIvPFvRSoENS5_5list1INS_17reference_wrapperISoEEEEEEEEbT_RNS1_15function_bufferENS1_16function_obj_tagE
FN:609,_ZNK5boost6detail8function13basic_vtable0IvE9assign_toINS_3_bi6bind_tIvPFvPFPNS_9unit_test10test_suiteEiPPcEENS5_5list1INS5_5valueISD_EEEEEEEEbT_RNS1_15function_bufferENS1_16function_obj_tagE
FNDA:1,_ZNK5boost6detail8function13basic_vtable0IvE9assign_toINS_3_bi6bind_tIvPFvPFPNS_9unit_test10test_suiteEiPPcEENS5_5list1INS5_5valueISD_EEEEEEEEbT_RNS1_15function_bufferENS1_16function_obj_tagE
FN:609,_ZNK5boost6detail8function13basic_vtable0IvE9assign_toINS_3_bi6bind_tIvNS_4_mfi3mf2IvNS_9unit_test13test_observerEmmEENS5_5list3INS5_5valueIPSA_EENSD_INS9_17test_case_counter19readonly_property43EEENSD_ImEEEEEEEEbT_RNS1_15function_bufferENS1_16function_obj_tagE
FNDA:3,_ZNK5boost6detail8function13basic_vtable0IvE9assign_toINS_3_bi6bind_tIvNS_4_mfi3mf2IvNS_9unit_test13test_observerEmmEENS5_5list3INS5_5valueIPSA_EENSD_INS9_17test_case_counter19readonly_property43EEENSD_ImEEEEEEEEbT_RNS1_15function_bufferENS1_16function_obj_tagE
FN:609,_ZNK5boost6detail8function13basic_vtable0IiE9assign_toINS0_7forwardEEEbT_RNS1_15function_bufferENS1_16function_obj_tagE
FNDA:12,_ZNK5boost6detail8function13basic_vtable0IiE9assign_toINS0_7forwardEEEbT_RNS1_15function_bufferENS1_16function_obj_tagE
FN:677,_ZNK5boost9function0IvE10get_vtableEv
FNDA:15,_ZNK5boost9function0IvE10get_vtableEv
FN:677,_ZNK5boost9function1IvRKNS_5debug16dbg_startup_infoEE10get_vtableEv
FNDA:0,_ZNK5boost9function1IvRKNS_5debug16dbg_startup_infoEE10get_vtableEv
FN:677,_ZNK5boost9function1INS_10test_tools16assertion_resultEmE10get_vtableEv
FNDA:0,_ZNK5boost9function1INS_10test_tools16assertion_resultEmE10get_vtableEv
FN:677,_ZNK5boost9function1IvNS_9unit_test13basic_cstringIKcEEE10get_vtableEv
FNDA:0,_ZNK5boost9function1IvNS_9unit_test13basic_cstringIKcEEE10get_vtableEv
FN:677,_ZNK5boost9function0IiE10get_vtableEv
FNDA:12,_ZNK5boost9function0IiE10get_vtableEv
FN:706,_ZN5boost9function0IvEC2Ev
FNDA:1,_ZN5boost9function0IvEC2Ev
FN:706,_ZN5boost9function1IvRKNS_5debug16dbg_startup_infoEEC2Ev
FNDA:18,_ZN5boost9function1IvRKNS_5debug16dbg_startup_infoEEC2Ev
FN:706,_ZN5boost9function1IvNS_9unit_test13basic_cstringIKcEEEC2Ev
FNDA:29,_ZN5boost9function1IvNS_9unit_test13basic_cstringIKcEEEC2Ev
FN:711,_ZN5boost9function1IvNS_9unit_test13basic_cstringIKcEEEC2IZNS1_14runtime_config12_GLOBAL__N_119register_parametersERNS_7runtime16parameters_storeEEUlS4_E_EET_NS_10enable_if_IXntsrNS_11is_integralISD_EE5valueEiE4typeE
FNDA:1,_ZN5boost9function1IvNS_9unit_test13basic_cstringIKcEEEC2IZNS1_14runtime_config12_GLOBAL__N_119register_parametersERNS_7runtime16parameters_storeEEUlS4_E_EET_NS_10enable_if_IXntsrNS_11is_integralISD_EE5valueEiE4typeE
FN:711,_ZN5boost9function0IiEC2INS_6detail7forwardEEET_NS_10enable_if_IXntsrNS_11is_integralIS5_EE5valueEiE4typeE
FNDA:12,_ZN5boost9function0IiEC2INS_6detail7forwardEEET_NS_10enable_if_IXntsrNS_11is_integralIS5_EE5valueEiE4typeE
FN:711,_ZN5boost9function0IvEC2INS_3_bi6bind_tIvNS_4_mfi3mf2IvNS_9unit_test13test_observerEmmEENS3_5list3INS3_5valueIPS8_EENSB_INS7_17test_case_counter19readonly_property43EEENSB_ImEEEEEEEET_NS_10enable_if_IXntsrNS_11is_integralISK_EE5valueEiE4typeE
FNDA:3,_ZN5boost9function0IvEC2INS_3_bi6bind_tIvNS_4_mfi3mf2IvNS_9unit_test13test_observerEmmEENS3_5list3INS3_5valueIPS8_EENSB_INS7_17test_case_counter19readonly_property43EEENSB_ImEEEEEEEET_NS_10enable_if_IXntsrNS_11is_integralISK_EE5valueEiE4typeE
FN:711,_ZN5boost9function0IvEC2INS_3_bi6bind_tIvPFvPFPNS_9unit_test10test_suiteEiPPcEENS3_5list1INS3_5valueISB_EEEEEEEET_NS_10enable_if_IXntsrNS_11is_integralISJ_EE5valueEiE4typeE
FNDA:1,_ZN5boost9function0IvEC2INS_3_bi6bind_tIvPFvPFPNS_9unit_test10test_suiteEiPPcEENS3_5list1INS3_5valueISB_EEEEEEEET_NS_10enable_if_IXntsrNS_11is_integralISJ_EE5valueEiE4typeE
FN:711,_ZN5boost9function0IvEC2INS_3_bi6bind_tIvPFvRSoENS3_5list1INS_17reference_wrapperISoEEEEEEEET_NS_10enable_if_IXntsrNS_11is_integralISD_EE5valueEiE4typeE
FNDA:0,_ZN5boost9function0IvEC2INS_3_bi6bind_tIvPFvRSoENS3_5list1INS_17reference_wrapperISoEEEEEEEET_NS_10enable_if_IXntsrNS_11is_integralISD_EE5valueEiE4typeE
FN:711,_ZN5boost9function0IvEC2INS_3_bi6bind_tIvNS_4_mfi3mf2IvNS_9unit_test15unit_test_log_tENS7_13output_formatERSoEENS3_5list3INS3_5valueIPS8_EENSD_IS9_EENS_17reference_wrapperISoEEEEEEEET_NS_10enable_if_IXntsrNS_11is_integralISL_EE5valueEiE4typeE
FNDA:0,_ZN5boost9function0IvEC2INS_3_bi6bind_tIvNS_4_mfi3mf2IvNS_9unit_test15unit_test_log_tENS7_13output_formatERSoEENS3_5list3INS3_5valueIPS8_EENSD_IS9_EENS_17reference_wrapperISoEEEEEEEET_NS_10enable_if_IXntsrNS_11is_integralISL_EE5valueEiE4typeE
FN:711,_ZN5boost9function0IvEC2INS_3_bi6bind_tIvNS_4_mfi3mf1IvNS_9unit_test15unit_test_log_tERSoEENS3_5list2INS3_5valueIPS8_EENS_17reference_wrapperISoEEEEEEEET_NS_10enable_if_IXntsrNS_11is_integralISJ_EE5valueEiE4typeE
FNDA:0,_ZN5boost9function0IvEC2INS_3_bi6bind_tIvNS_4_mfi3mf1IvNS_9unit_test15unit_test_log_tERSoEENS3_5list2INS3_5valueIPS8_EENS_17reference_wrapperISoEEEEEEEET_NS_10enable_if_IXntsrNS_11is_integralISJ_EE5valueEiE4typeE
FN:711,_ZN5boost9function0IvEC2IPFvvEEET_NS_10enable_if_IXntsrNS_11is_integralIS5_EE5valueEiE4typeE
FNDA:8,_ZN5boost9function0IvEC2IPFvvEEET_NS_10enable_if_IXntsrNS_11is_integralIS5_EE5valueEiE4typeE
FN:711,_ZN5boost9function0IvEC2INS_3_bi6bind_tIvNS_4_mfi3mf0IvNS_9unit_test17test_unit_fixtureEEENS3_5list1INS3_5valueINS_10shared_ptrIS8_EEEEEEEEEET_NS_10enable_if_IXntsrNS_11is_integralISH_EE5valueEiE4typeE
FNDA:0,_ZN5boost9function0IvEC2INS_3_bi6bind_tIvNS_4_mfi3mf0IvNS_9unit_test17test_unit_fixtureEEENS3_5list1INS3_5valueINS_10shared_ptrIS8_EEEEEEEEEET_NS_10enable_if_IXntsrNS_11is_integralISH_EE5valueEiE4typeE
FN:711,_ZN5boost9function1IvRKNS_5debug16dbg_startup_infoEEC2IPFvS4_EEET_NS_10enable_if_IXntsrNS_11is_integralIS9_EE5valueEiE4typeE
FNDA:9,_ZN5boost9function1IvRKNS_5debug16dbg_startup_infoEEC2IPFvS4_EEET_NS_10enable_if_IXntsrNS_11is_integralIS9_EE5valueEiE4typeE
FN:744,_ZN5boost9function0IvEC2ERKS1_
FNDA:8,_ZN5boost9function0IvEC2ERKS1_
FN:744,_ZN5boost9function1INS_10test_tools16assertion_resultEmEC2ERKS3_
FNDA:0,_ZN5boost9function1INS_10test_tools16assertion_resultEmEC2ERKS3_
FN:744,_ZN5boost9function1IvRKNS_5debug16dbg_startup_infoEEC2ERKS5_
FNDA:0,_ZN5boost9function1IvRKNS_5debug16dbg_startup_infoEEC2ERKS5_
FN:744,_ZN5boost9function1IvNS_9unit_test13basic_cstringIKcEEEC2ERKS5_
FNDA:28,_ZN5boost9function1IvNS_9unit_test13basic_cstringIKcEEEC2ERKS5_
FN:750,_ZN5boost9function1IvNS_9unit_test13basic_cstringIKcEEEC2EOS5_
FNDA:28,_ZN5boost9function1IvNS_9unit_test13basic_cstringIKcEEEC2EOS5_
FN:756,_ZN5boost9function0IvED2Ev
FNDA:21,_ZN5boost9function0IvED2Ev
FN:756,_ZN5boost9function1IvNS_9unit_test13basic_cstringIKcEEED2Ev
FNDA:86,_ZN5boost9function1IvNS_9unit_test13basic_cstringIKcEEED2Ev
FN:756,_ZN5boost9function0IiED2Ev
FNDA:12,_ZN5boost9function0IiED2Ev
FN:756,_ZN5boost9function1INS_10test_tools16assertion_resultEmED2Ev
FNDA:0,_ZN5boost9function1INS_10test_tools16assertion_resultEmED2Ev
FN:756,_ZN5boost9function1IvRKNS_5debug16dbg_startup_infoEED2Ev
FNDA:27,_ZN5boost9function1IvRKNS_5debug16dbg_startup_infoEED2Ev
FN:758,_ZNK5boost9function1IvRKNS_5debug16dbg_startup_infoEEclES4_
FNDA:0,_ZNK5boost9function1IvRKNS_5debug16dbg_startup_infoEEclES4_
FN:758,_ZNK5boost9function1IvNS_9unit_test13basic_cstringIKcEEEclES4_
FNDA:0,_ZNK5boost9function1IvNS_9unit_test13basic_cstringIKcEEEclES4_
FN:758,_ZNK5boost9function1INS_10test_tools16assertion_resultEmEclEm
FNDA:0,_ZNK5boost9function1INS_10test_tools16assertion_resultEmEclEm
FN:758,_ZNK5boost9function0IvEclEv
FNDA:12,_ZNK5boost9function0IvEclEv
FN:758,_ZNK5boost9function0IiEclEv
FNDA:12,_ZNK5boost9function0IiEclEv
FN:856,_ZN5boost9function1IvNS_9unit_test13basic_cstringIKcEEE4swapERS5_
FNDA:1,_ZN5boost9function1IvNS_9unit_test13basic_cstringIKcEEE4swapERS5_
FN:856,_ZN5boost9function1IvRKNS_5debug16dbg_startup_infoEE4swapERS5_
FNDA:9,_ZN5boost9function1IvRKNS_5debug16dbg_startup_infoEE4swapERS5_
FN:868,_ZN5boost9function0IvE5clearEv
FNDA:21,_ZN5boost9function0IvE5clearEv
FN:868,_ZN5boost9function1IvNS_9unit_test13basic_cstringIKcEEE5clearEv
FNDA:114,_ZN5boost9function1IvNS_9unit_test13basic_cstringIKcEEE5clearEv
FN:868,_ZN5boost9function0IiE5clearEv
FNDA:12,_ZN5boost9function0IiE5clearEv
FN:868,_ZN5boost9function1INS_10test_tools16assertion_resultEmE5clearEv
FNDA:0,_ZN5boost9function1INS_10test_tools16assertion_resultEmE5clearEv
FN:868,_ZN5boost9function1IvRKNS_5debug16dbg_startup_infoEE5clearEv
FNDA:36,_ZN5boost9function1IvRKNS_5debug16dbg_startup_infoEE5clearEv
FN:883,_ZN5boost9function0IvE5dummy7nonnullEv
FNDA:0,_ZN5boost9function0IvE5dummy7nonnullEv
FN:889,_ZNK5boost9function0IvEcvMNS1_5dummyEFvvEEv
FNDA:1,_ZNK5boost9function0IvEcvMNS1_5dummyEFvvEEv
FN:892,_ZNK5boost9function1IvRKNS_5debug16dbg_startup_infoEEntEv
FNDA:0,_ZNK5boost9function1IvRKNS_5debug16dbg_startup_infoEEntEv
FN:892,_ZNK5boost9function1IvNS_9unit_test13basic_cstringIKcEEEntEv
FNDA:23,_ZNK5boost9function1IvNS_9unit_test13basic_cstringIKcEEEntEv
FN:897,_ZN5boost9function1INS_10test_tools16assertion_resultEmE13assign_to_ownERKS3_
FNDA:0,_ZN5boost9function1INS_10test_tools16assertion_resultEmE13assign_to_ownERKS3_
FN:897,_ZN5boost9function1IvNS_9unit_test13basic_cstringIKcEEE13assign_to_ownERKS5_
FNDA:28,_ZN5boost9function1IvNS_9unit_test13basic_cstringIKcEEE13assign_to_ownERKS5_
FN:897,_ZN5boost9function0IvE13assign_to_ownERKS1_
FNDA:8,_ZN5boost9function0IvE13assign_to_ownERKS1_
FN:897,_ZN5boost9function1IvRKNS_5debug16dbg_startup_infoEE13assign_to_ownERKS5_
FNDA:0,_ZN5boost9function1IvRKNS_5debug16dbg_startup_infoEE13assign_to_ownERKS5_
FN:921,_ZN5boost9function0IvE9assign_toIPFvvEEEvT_
FNDA:8,_ZN5boost9function0IvE9assign_toIPFvvEEEvT_
FN:921,_ZN5boost9function0IvE9assign_toINS_3_bi6bind_tIvPFvRSoENS3_5list1INS_17reference_wrapperISoEEEEEEEEvT_
FNDA:0,_ZN5boost9function0IvE9assign_toINS_3_bi6bind_tIvPFvRSoENS3_5list1INS_17reference_wrapperISoEEEEEEEEvT_
FN:921,_ZN5boost9function0IvE9assign_toINS_3_bi6bind_tIvNS_4_mfi3mf2IvNS_9unit_test15unit_test_log_tENS7_13output_formatERSoEENS3_5list3INS3_5valueIPS8_EENSD_IS9_EENS_17reference_wrapperISoEEEEEEEEvT_
FNDA:0,_ZN5boost9function0IvE9assign_toINS_3_bi6bind_tIvNS_4_mfi3mf2IvNS_9unit_test15unit_test_log_tENS7_13output_formatERSoEENS3_5list3INS3_5valueIPS8_EENSD_IS9_EENS_17reference_wrapperISoEEEEEEEEvT_
FN:921,_ZN5boost9function0IvE9assign_toINS_3_bi6bind_tIvNS_4_mfi3mf1IvNS_9unit_test15unit_test_log_tERSoEENS3_5list2INS3_5valueIPS8_EENS_17reference_wrapperISoEEEEEEEEvT_
FNDA:0,_ZN5boost9function0IvE9assign_toINS_3_bi6bind_tIvNS_4_mfi3mf1IvNS_9unit_test15unit_test_log_tERSoEENS3_5list2INS3_5valueIPS8_EENS_17reference_wrapperISoEEEEEEEEvT_
FN:921,_ZN5boost9function0IvE9assign_toINS_3_bi6bind_tIvNS_4_mfi3mf0IvNS_9unit_test17test_unit_fixtureEEENS3_5list1INS3_5valueINS_10shared_ptrIS8_EEEEEEEEEEvT_
FNDA:0,_ZN5boost9function0IvE9assign_toINS_3_bi6bind_tIvNS_4_mfi3mf0IvNS_9unit_test17test_unit_fixtureEEENS3_5list1INS3_5valueINS_10shared_ptrIS8_EEEEEEEEEEvT_
FN:921,_ZN5boost9function0IvE9assign_toINS_3_bi6bind_tIvPFvPFPNS_9unit_test10test_suiteEiPPcEENS3_5list1INS3_5valueISB_EEEEEEEEvT_
FNDA:1,_ZN5boost9function0IvE9assign_toINS_3_bi6bind_tIvPFvPFPNS_9unit_test10test_suiteEiPPcEENS3_5list1INS3_5valueISB_EEEEEEEEvT_
FN:921,_ZN5boost9function0IvE9assign_toINS_3_bi6bind_tIvNS_4_mfi3mf2IvNS_9unit_test13test_observerEmmEENS3_5list3INS3_5valueIPS8_EENSB_INS7_17test_case_counter19readonly_property43EEENSB_ImEEEEEEEEvT_
FNDA:3,_ZN5boost9function0IvE9assign_toINS_3_bi6bind_tIvNS_4_mfi3mf2IvNS_9unit_test13test_observerEmmEENS3_5list3INS3_5valueIPS8_EENSB_INS7_17test_case_counter19readonly_property43EEENSB_ImEEEEEEEEvT_
FN:921,_ZN5boost9function0IiE9assign_toINS_6detail7forwardEEEvT_
FNDA:12,_ZN5boost9function0IiE9assign_toINS_6detail7forwardEEEvT_
FN:921,_ZN5boost9function1IvNS_9unit_test13basic_cstringIKcEEE9assign_toIZNS1_14runtime_config12_GLOBAL__N_119register_parametersERNS_7runtime16parameters_storeEEUlS4_E_EEvT_
FNDA:1,_ZN5boost9function1IvNS_9unit_test13basic_cstringIKcEEE9assign_toIZNS1_14runtime_config12_GLOBAL__N_119register_parametersERNS_7runtime16parameters_storeEEUlS4_E_EEvT_
FN:921,_ZN5boost9function1IvRKNS_5debug16dbg_startup_infoEE9assign_toIPFvS4_EEEvT_
FNDA:9,_ZN5boost9function1IvRKNS_5debug16dbg_startup_infoEE9assign_toIPFvS4_EEEvT_
FN:991,_ZN5boost9function1IvRKNS_5debug16dbg_startup_infoEE11move_assignERS5_
FNDA:27,_ZN5boost9function1IvRKNS_5debug16dbg_startup_infoEE11move_assignERS5_
FN:991,_ZN5boost9function1IvNS_9unit_test13basic_cstringIKcEEE11move_assignERS5_
FNDA:31,_ZN5boost9function1IvNS_9unit_test13basic_cstringIKcEEE11move_assignERS5_
FN:1076,_ZN5boost8functionIFvRKNS_5debug16dbg_startup_infoEEEC2Ev
FNDA:9,_ZN5boost8functionIFvRKNS_5debug16dbg_startup_infoEEEC2Ev
FN:1076,_ZN5boost8functionIFvNS_9unit_test13basic_cstringIKcEEEEC2Ev
FNDA:28,_ZN5boost8functionIFvNS_9unit_test13basic_cstringIKcEEEEC2Ev
FN:1076,_ZN5boost8functionIFvvEEC2Ev
FNDA:1,_ZN5boost8functionIFvvEEC2Ev
FN:1079,_ZN5boost8functionIFvNS_9unit_test13basic_cstringIKcEEEEC2IZNS1_14runtime_config12_GLOBAL__N_119register_parametersERNS_7runtime16parameters_storeEEUlS4_E_EET_NS_10enable_if_IXntsrNS_11is_integralISE_EE5valueEiE4typeE
FNDA:1,_ZN5boost8functionIFvNS_9unit_test13basic_cstringIKcEEEEC2IZNS1_14runtime_config12_GLOBAL__N_119register_parametersERNS_7runtime16parameters_storeEEUlS4_E_EET_NS_10enable_if_IXntsrNS_11is_integralISE_EE5valueEiE4typeE
FN:1079,_ZN5boost8functionIFvvEEC2INS_3_bi6bind_tIvNS_4_mfi3mf1IvNS_9unit_test15unit_test_log_tERSoEENS4_5list2INS4_5valueIPS9_EENS_17reference_wrapperISoEEEEEEEET_NS_10enable_if_IXntsrNS_11is_integralISK_EE5valueEiE4typeE
FNDA:0,_ZN5boost8functionIFvvEEC2INS_3_bi6bind_tIvNS_4_mfi3mf1IvNS_9unit_test15unit_test_log_tERSoEENS4_5list2INS4_5valueIPS9_EENS_17reference_wrapperISoEEEEEEEET_NS_10enable_if_IXntsrNS_11is_integralISK_EE5valueEiE4typeE
FN:1079,_ZN5boost8functionIFvRKNS_5debug16dbg_startup_infoEEEC2IPS5_EET_NS_10enable_if_IXntsrNS_11is_integralIS9_EE5valueEiE4typeE
FNDA:9,_ZN5boost8functionIFvRKNS_5debug16dbg_startup_infoEEEC2IPS5_EET_NS_10enable_if_IXntsrNS_11is_integralIS9_EE5valueEiE4typeE
FN:1079,_ZN5boost8functionIFvvEEC2IPS1_EET_NS_10enable_if_IXntsrNS_11is_integralIS5_EE5valueEiE4typeE
FNDA:8,_ZN5boost8functionIFvvEEC2IPS1_EET_NS_10enable_if_IXntsrNS_11is_integralIS5_EE5valueEiE4typeE
FN:1079,_ZN5boost8functionIFvvEEC2INS_3_bi6bind_tIvNS_4_mfi3mf2IvNS_9unit_test15unit_test_log_tENS8_13output_formatERSoEENS4_5list3INS4_5valueIPS9_EENSE_ISA_EENS_17reference_wrapperISoEEEEEEEET_NS_10enable_if_IXntsrNS_11is_integralISM_EE5valueEiE4typeE
FNDA:0,_ZN5boost8functionIFvvEEC2INS_3_bi6bind_tIvNS_4_mfi3mf2IvNS_9unit_test15unit_test_log_tENS8_13output_formatERSoEENS4_5list3INS4_5valueIPS9_EENSE_ISA_EENS_17reference_wrapperISoEEEEEEEET_NS_10enable_if_IXntsrNS_11is_integralISM_EE5valueEiE4typeE
FN:1079,_ZN5boost8functionIFvvEEC2INS_3_bi6bind_tIvPFvRSoENS4_5list1INS_17reference_wrapperISoEEEEEEEET_NS_10enable_if_IXntsrNS_11is_integralISE_EE5valueEiE4typeE
FNDA:0,_ZN5boost8functionIFvvEEC2INS_3_bi6bind_tIvPFvRSoENS4_5list1INS_17reference_wrapperISoEEEEEEEET_NS_10enable_if_IXntsrNS_11is_integralISE_EE5valueEiE4typeE
FN:1079,_ZN5boost8functionIFvvEEC2INS_3_bi6bind_tIvPFvPFPNS_9unit_test10test_suiteEiPPcEENS4_5list1INS4_5valueISC_EEEEEEEET_NS_10enable_if_IXntsrNS_11is_integralISK_EE5valueEiE4typeE
FNDA:1,_ZN5boost8functionIFvvEEC2INS_3_bi6bind_tIvPFvPFPNS_9unit_test10test_suiteEiPPcEENS4_5list1INS4_5valueISC_EEEEEEEET_NS_10enable_if_IXntsrNS_11is_integralISK_EE5valueEiE4typeE
FN:1079,_ZN5boost8functionIFvvEEC2INS_3_bi6bind_tIvNS_4_mfi3mf0IvNS_9unit_test17test_unit_fixtureEEENS4_5list1INS4_5valueINS_10shared_ptrIS9_EEEEEEEEEET_NS_10enable_if_IXntsrNS_11is_integralISI_EE5valueEiE4typeE
FNDA:0,_ZN5boost8functionIFvvEEC2INS_3_bi6bind_tIvNS_4_mfi3mf0IvNS_9unit_test17test_unit_fixtureEEENS4_5list1INS4_5valueINS_10shared_ptrIS9_EEEEEEEEEET_NS_10enable_if_IXntsrNS_11is_integralISI_EE5valueEiE4typeE
FN:1079,_ZN5boost8functionIFvvEEC2INS_3_bi6bind_tIvNS_4_mfi3mf2IvNS_9unit_test13test_observerEmmEENS4_5list3INS4_5valueIPS9_EENSC_INS8_17test_case_counter19readonly_property43EEENSC_ImEEEEEEEET_NS_10enable_if_IXntsrNS_11is_integralISL_EE5valueEiE4typeE
FNDA:3,_ZN5boost8functionIFvvEEC2INS_3_bi6bind_tIvNS_4_mfi3mf2IvNS_9unit_test13test_observerEmmEENS4_5list3INS4_5valueIPS9_EENSC_INS8_17test_case_counter19readonly_property43EEENSC_ImEEEEEEEET_NS_10enable_if_IXntsrNS_11is_integralISL_EE5valueEiE4typeE
FN:1079,_ZN5boost8functionIFivEEC2INS_6detail7forwardEEET_NS_10enable_if_IXntsrNS_11is_integralIS6_EE5valueEiE4typeE
FNDA:12,_ZN5boost8functionIFivEEC2INS_6detail7forwardEEET_NS_10enable_if_IXntsrNS_11is_integralIS6_EE5valueEiE4typeE
FN:1105,_ZN5boost8functionIFNS_10test_tools16assertion_resultEmEEC2ERKS4_
FNDA:0,_ZN5boost8functionIFNS_10test_tools16assertion_resultEmEEC2ERKS4_
FN:1105,_ZN5boost8functionIFvNS_9unit_test13basic_cstringIKcEEEEC2ERKS6_
FNDA:28,_ZN5boost8functionIFvNS_9unit_test13basic_cstringIKcEEEEC2ERKS6_
FN:1105,_ZN5boost8functionIFvvEEC2ERKS2_
FNDA:8,_ZN5boost8functionIFvvEEC2ERKS2_
FN:1105,_ZN5boost8functionIFvRKNS_5debug16dbg_startup_infoEEEC2ERKS6_
FNDA:0,_ZN5boost8functionIFvRKNS_5debug16dbg_startup_infoEEEC2ERKS6_
FN:1111,_ZN5boost8functionIFvNS_9unit_test13basic_cstringIKcEEEEC2EOS6_
FNDA:28,_ZN5boost8functionIFvNS_9unit_test13basic_cstringIKcEEEEC2EOS6_
FN:1115,_ZN5boost8functionIFvRKNS_5debug16dbg_startup_infoEEEaSERKS6_
FNDA:0,_ZN5boost8functionIFvRKNS_5debug16dbg_startup_infoEEEaSERKS6_
FN:1137,_ZN5boost8functionIFvRKNS_5debug16dbg_startup_infoEEEaSIPS5_EENS_10enable_if_IXntsrNS_11is_integralIT_EE5valueERS6_E4typeESB_
FNDA:9,_ZN5boost8functionIFvRKNS_5debug16dbg_startup_infoEEEaSIPS5_EENS_10enable_if_IXntsrNS_11is_integralIT_EE5valueERS6_E4typeESB_
FN:1137,_ZN5boost8functionIFvNS_9unit_test13basic_cstringIKcEEEEaSIZNS1_14runtime_config12_GLOBAL__N_119register_parametersERNS_7runtime16parameters_storeEEUlS4_E_EENS_10enable_if_IXntsrNS_11is_integralIT_EE5valueERS6_E4typeESG_
FNDA:1,_ZN5boost8functionIFvNS_9unit_test13basic_cstringIKcEEEEaSIZNS1_14runtime_config12_GLOBAL__N_119register_parametersERNS_7runtime16parameters_storeEEUlS4_E_EENS_10enable_if_IXntsrNS_11is_integralIT_EE5valueERS6_E4typeESG_
DA:112,0
DA:116,0
DA:117,0
DA:118,0
DA:112,8
DA:116,8
DA:117,8
DA:118,8
DA:128,12
DA:134,12
DA:137,12
DA:149,0
DA:155,0
DA:158,0
DA:159,0
DA:149,3
DA:157,3
DA:158,3
DA:159,3
DA:149,1
DA:155,1
DA:158,1
DA:159,1
DA:149,0
DA:155,0
DA:158,0
DA:159,0
DA:149,0
DA:157,0
DA:158,0
DA:159,0
DA:149,0
DA:157,0
DA:158,0
DA:159,0
DA:149,0
DA:157,0
DA:158,0
DA:159,0
DA:490,1
DA:493,1
DA:490,9
DA:493,9
DA:490,8
DA:493,8
DA:490,12
DA:493,12
DA:490,3
DA:493,3
DA:490,1
DA:493,1
DA:490,0
DA:493,0
DA:490,0
DA:493,0
DA:490,0
DA:493,0
DA:490,0
DA:493,0
DA:502,0
DA:504,0
DA:505,0
DA:506,0
DA:502,0
DA:504,0
DA:505,0
DA:506,0
DA:502,9
DA:504,9
DA:505,9
DA:506,9
DA:502,0
DA:504,0
DA:505,0
DA:506,0
DA:502,11
DA:504,11
DA:505,11
DA:506,11
DA:512,9
DA:514,9
DA:515,9
DA:518,9
DA:519,9
DA:521,0
DA:512,8
DA:514,8
DA:515,8
DA:518,8
DA:519,8
DA:521,0
DA:565,1
DA:567,1
DA:568,1
DA:565,12
DA:567,12
DA:568,12
DA:565,1
DA:567,1
DA:568,1
DA:565,0
DA:567,0
DA:568,0
DA:579,3
DA:581,3
DA:582,3
DA:579,0
DA:581,0
DA:582,0
DA:579,0
DA:581,0
DA:582,0
DA:579,0
DA:581,0
DA:582,0
DA:609,1
DA:611,1
DA:612,1
DA:614,1
DA:616,0
DA:609,12
DA:611,12
DA:612,12
DA:614,12
DA:616,0
DA:609,3
DA:611,3
DA:612,3
DA:614,3
DA:616,0
DA:609,1
DA:611,1
DA:612,1
DA:614,1
DA:616,0
DA:609,0
DA:611,0
DA:612,0
DA:614,0
DA:616,0
DA:609,0
DA:611,0
DA:612,0
DA:614,0
DA:616,0
DA:609,0
DA:611,0
DA:612,0
DA:614,0
DA:616,0
DA:609,0
DA:611,0
DA:612,0
DA:614,0
DA:616,0
DA:677,12
DA:679,12
DA:677,0
DA:679,0
DA:677,0
DA:679,0
DA:677,0
DA:679,0
DA:677,15
DA:679,15
DA:706,29
DA:706,18
DA:706,1
DA:711,1
DA:718,1
DA:720,1
DA:721,1
DA:711,9
DA:718,9
DA:720,9
DA:721,9
DA:711,8
DA:718,8
DA:720,8
DA:721,8
DA:711,12
DA:718,12
DA:720,12
DA:721,12
DA:711,3
DA:718,3
DA:720,3
DA:721,3
DA:711,1
DA:718,1
DA:720,1
DA:721,1
DA:711,0
DA:718,0
DA:720,0
DA:721,0
DA:711,0
DA:718,0
DA:720,0
DA:721,0
DA:711,0
DA:718,0
DA:720,0
DA:721,0
DA:711,0
DA:718,0
DA:720,0
DA:721,0
DA:744,28
DA:746,28
DA:747,28
DA:744,0
DA:746,0
DA:747,0
DA:744,0
DA:746,0
DA:747,0
DA:744,8
DA:746,8
DA:747,8
DA:750,28
DA:752,28
DA:753,28
DA:756,86
DA:756,12
DA:756,27
DA:756,0
DA:756,21
DA:758,12
DA:760,12
DA:761,0
DA:763,12
DA:764,12
DA:758,0
DA:760,0
DA:761,0
DA:763,0
DA:764,0
DA:758,0
DA:760,0
DA:761,0
DA:763,0
DA:764,0
DA:758,0
DA:760,0
DA:761,0
DA:763,0
DA:764,0
DA:758,12
DA:760,12
DA:761,0
DA:763,12
DA:764,12
DA:856,1
DA:858,1
DA:859,0
DA:861,1
DA:862,1
DA:863,1
DA:864,1
DA:865,1
DA:856,9
DA:858,9
DA:859,0
DA:861,9
DA:862,9
DA:863,9
DA:864,9
DA:865,9
DA:868,114
DA:870,114
DA:871,2
DA:872,0
DA:873,2
DA:875,114
DA:868,12
DA:870,12
DA:871,12
DA:872,0
DA:873,12
DA:875,12
DA:868,36
DA:870,36
DA:871,9
DA:872,0
DA:873,9
DA:875,36
DA:868,0
DA:870,0
DA:871,0
DA:872,0
DA:873,0
DA:875,0
DA:868,21
DA:870,21
DA:871,20
DA:872,3
DA:873,20
DA:875,21
DA:883,0
DA:889,1
DA:890,1
DA:892,23
DA:893,23
DA:892,0
DA:893,0
DA:897,28
DA:899,28
DA:900,1
DA:901,1
DA:910,1
DA:915,0
DA:918,28
DA:897,0
DA:899,0
DA:900,0
DA:901,0
DA:910,0
DA:915,0
DA:918,0
DA:897,0
DA:899,0
DA:900,0
DA:901,0
DA:910,0
DA:915,0
DA:918,0
DA:897,8
DA:899,8
DA:900,8
DA:901,8
DA:910,8
DA:915,0
DA:918,8
DA:921,1
DA:942,1
DA:943,1
DA:948,1
DA:949,1
DA:951,0
DA:952,1
DA:921,9
DA:942,9
DA:943,9
DA:948,9
DA:949,9
DA:951,0
DA:952,9
DA:921,8
DA:942,8
DA:943,8
DA:948,8
DA:949,8
DA:951,0
DA:952,8
DA:921,12
DA:942,12
DA:943,12
DA:948,12
DA:949,12
DA:951,0
DA:952,12
DA:921,3
DA:942,3
DA:943,3
DA:949,3
DA:951,0
DA:952,3
DA:921,1
DA:942,1
DA:943,1
DA:948,1
DA:949,1
DA:951,0
DA:952,1
DA:921,0
DA:942,0
DA:943,0
DA:948,0
DA:949,0
DA:951,0
DA:952,0
DA:921,0
DA:942,0
DA:943,0
DA:949,0
DA:951,0
DA:952,0
DA:921,0
DA:942,0
DA:943,0
DA:949,0
DA:951,0
DA:952,0
DA:921,0
DA:942,0
DA:943,0
DA:949,0
DA:951,0
DA:952,0
DA:991,31
DA:993,31
DA:994,0
DA:997,31
DA:998,3
DA:999,3
DA:1008,3
DA:1013,0
DA:1015,3
DA:1017,28
DA:1019,0
DA:1020,0
DA:1021,0
DA:991,27
DA:993,27
DA:994,0
DA:997,27
DA:998,18
DA:999,18
DA:1008,18
DA:1013,0
DA:1015,18
DA:1017,9
DA:1019,0
DA:1020,0
DA:1021,0
DA:1076,28
DA:1076,9
DA:1076,1
DA:1079,1
DA:1086,1
DA:1088,1
DA:1079,9
DA:1086,9
DA:1088,9
DA:1079,8
DA:1086,8
DA:1088,8
DA:1079,12
DA:1086,12
DA:1088,12
DA:1079,3
DA:1086,3
DA:1088,3
DA:1079,1
DA:1086,1
DA:1088,1
DA:1079,0
DA:1086,0
DA:1088,0
DA:1079,0
DA:1086,0
DA:1088,0
DA:1079,0
DA:1086,0
DA:1088,0
DA:1079,0
DA:1086,0
DA:1088,0
DA:1105,28
DA:1105,0
DA:1105,0
DA:1105,8
DA:1111,28
DA:1115,0
DA:1117,0
DA:1118,0
DA:1137,1
DA:1139,1
DA:1140,1
DA:1137,9
DA:1139,9
DA:1140,9
end_of_record
SF:/usr/include/boost/test/utils/basic_cstring/basic_cstring.hpp
FN:83,_ZN5boost9unit_test13basic_cstringIKcEC2IiEEPS2_T_
FNDA:142,_ZN5boost9unit_test13basic_cstringIKcEC2IiEEPS2_T_
FN:83,_ZN5boost9unit_test13basic_cstringIcEC2ImEEPcT_
FNDA:0,_ZN5boost9unit_test13basic_cstringIcEC2ImEEPcT_
FN:83,_ZN5boost9unit_test13basic_cstringIKcEC2ImEEPS2_T_
FNDA:100,_ZN5boost9unit_test13basic_cstringIKcEC2ImEEPS2_T_
FN:83,_ZN5boost9unit_test13basic_cstringIKcEC2IlEEPS2_T_
FNDA:72,_ZN5boost9unit_test13basic_cstringIKcEC2IlEEPS2_T_
FN:142,_ZN5boost9unit_test13basic_cstringIKcE6assignIlEERS3_PS2_T_
FNDA:72,_ZN5boost9unit_test13basic_cstringIKcE6assignIlEERS3_PS2_T_
FN:206,_ZN5boost9unit_test13basic_cstringIKcE8null_strEv
FNDA:288,_ZN5boost9unit_test13basic_cstringIKcE8null_strEv
FN:215,_ZN5boost9unit_test13basic_cstringIKcEC2Ev
FNDA:263,_ZN5boost9unit_test13basic_cstringIKcEC2Ev
FN:225,_ZN5boost9unit_test13basic_cstringIKcEC2ERKS3_
FNDA:1900,_ZN5boost9unit_test13basic_cstringIKcEC2ERKS3_
FN:235,_ZN5boost9unit_test13basic_cstringIKcEC2ERKNSt7__cxx1112basic_stringIcSt11char_traitsIcESaIcEEE
FNDA:447,_ZN5boost9unit_test13basic_cstringIKcEC2ERKNSt7__cxx1112basic_stringIcSt11char_traitsIcESaIcEEE
FN:245,_ZN5boost9unit_test13basic_cstringIKcEC2EPS2_
FNDA:366,_ZN5boost9unit_test13basic_cstringIKcEC2EPS2_
FN:255,_ZN5boost9unit_test13basic_cstringIKcEC2EPS2_S4_
FNDA:84,_ZN5boost9unit_test13basic_cstringIKcEC2EPS2_S4_
FN:265,_ZNK5boost9unit_test13basic_cstringIKcEixEm
FNDA:9,_ZNK5boost9unit_test13basic_cstringIKcEixEm
FN:286,_ZNK5boost9unit_test13basic_cstringIKcE4sizeEv
FNDA:5507,_ZNK5boost9unit_test13basic_cstringIKcE4sizeEv
FN:286,_ZNK5boost9unit_test13basic_cstringIcE4sizeEv
FNDA:0,_ZNK5boost9unit_test13basic_cstringIcE4sizeEv
FN:295,_ZNK5boost9unit_test13basic_cstringIKcE8is_emptyEv
FNDA:563,_ZNK5boost9unit_test13basic_cstringIKcE8is_emptyEv
FN:304,_ZNK5boost9unit_test13basic_cstringIKcE5emptyEv
FNDA:69,_ZNK5boost9unit_test13basic_cstringIKcE5emptyEv
FN:313,_ZN5boost9unit_test13basic_cstringIKcE5clearEv
FNDA:44,_ZN5boost9unit_test13basic_cstringIKcE5clearEv
FN:313,_ZN5boost9unit_test13basic_cstringIcE5clearEv
FNDA:0,_ZN5boost9unit_test13basic_cstringIcE5clearEv
FN:332,_ZN5boost9unit_test13basic_cstringIcE9trim_leftEm
FNDA:0,_ZN5boost9unit_test13basic_cstringIcE9trim_leftEm
FN:332,_ZN5boost9unit_test13basic_cstringIKcE9trim_leftEm
FNDA:0,_ZN5boost9unit_test13basic_cstringIKcE9trim_leftEm
FN:345,_ZN5boost9unit_test13basic_cstringIKcE9trim_leftEPS2_
FNDA:74,_ZN5boost9unit_test13basic_cstringIKcE9trim_leftEPS2_
FN:358,_ZN5boost9unit_test13basic_cstringIKcE9trim_leftES3_
FNDA:73,_ZN5boost9unit_test13basic_cstringIKcE9trim_leftES3_
FN:389,_ZN5boost9unit_test13basic_cstringIKcE10trim_rightEPS2_
FNDA:73,_ZN5boost9unit_test13basic_cstringIKcE10trim_rightEPS2_
FN:402,_ZN5boost9unit_test13basic_cstringIKcE10trim_rightES3_
FNDA:73,_ZN5boost9unit_test13basic_cstringIKcE10trim_rightES3_
FN:421,_ZN5boost9unit_test13basic_cstringIKcE4trimES3_
FNDA:73,_ZN5boost9unit_test13basic_cstringIKcE4trimES3_
FN:433,_ZN5boost9unit_test13basic_cstringIKcEaSERKS3_
FNDA:358,_ZN5boost9unit_test13basic_cstringIKcEaSERKS3_
FN:454,_ZN5boost9unit_test13basic_cstringIKcEaSEPS2_
FNDA:1,_ZN5boost9unit_test13basic_cstringIKcEaSEPS2_
FN:481,_ZN5boost9unit_test13basic_cstringIKcE6assignEPS2_S4_
FNDA:84,_ZN5boost9unit_test13basic_cstringIKcE6assignEPS2_S4_
FN:507,_ZN5boost9unit_test13basic_cstringIKcE5beginEv
FNDA:1377,_ZN5boost9unit_test13basic_cstringIKcE5beginEv
FN:507,_ZN5boost9unit_test13basic_cstringIcE5beginEv
FNDA:0,_ZN5boost9unit_test13basic_cstringIcE5beginEv
FN:516,_ZNK5boost9unit_test13basic_cstringIKcE5beginEv
FNDA:1106,_ZNK5boost9unit_test13basic_cstringIKcE5beginEv
FN:525,_ZN5boost9unit_test13basic_cstringIKcE3endEv
FNDA:566,_ZN5boost9unit_test13basic_cstringIKcE3endEv
FN:534,_ZNK5boost9unit_test13basic_cstringIKcE3endEv
FNDA:72,_ZNK5boost9unit_test13basic_cstringIKcE3endEv
FN:543,_ZNK5boost9unit_test13basic_cstringIKcE4findES3_
FNDA:84,_ZNK5boost9unit_test13basic_cstringIKcE4findES3_
FN:587,_ZNK5boost9unit_test13basic_cstringIKcE6substrEmm
FNDA:0,_ZNK5boost9unit_test13basic_cstringIKcE6substrEmm
FN:600,_ZN5boost9unit_test13basic_cstringIKcE15default_trim_exEv
FNDA:142,_ZN5boost9unit_test13basic_cstringIKcE15default_trim_exEv
FN:615,_ZN5boost9unit_testeqIKcS2_EEbRKNS0_13basic_cstringIT_EERKNS3_IT0_EE
FNDA:1,_ZN5boost9unit_testeqIKcS2_EEbRKNS0_13basic_cstringIT_EERKNS3_IT0_EE
FN:626,_ZN5boost9unit_testeqIKcS2_EEbRKNS0_13basic_cstringIT_EEPT0_
FNDA:1,_ZN5boost9unit_testeqIKcS2_EEbRKNS0_13basic_cstringIT_EEPT0_
FN:639,_ZN5boost9unit_testeqIKcEEbRKNS0_13basic_cstringIT_EERKNS5_10std_stringE
FNDA:0,_ZN5boost9unit_testeqIKcEEbRKNS0_13basic_cstringIT_EERKNS5_10std_stringE
FN:657,_ZN5boost9unit_testeqIKcEEbRKNS0_13basic_cstringIT_E10std_stringERKS5_
FNDA:0,_ZN5boost9unit_testeqIKcEEbRKNS0_13basic_cstringIT_E10std_stringERKS5_
FN:684,_ZN5boost9unit_testneIKcEEbRKNS0_13basic_cstringIT_EES7_
FNDA:0,_ZN5boost9unit_testneIKcEEbRKNS0_13basic_cstringIT_EES7_
FN:715,_ZN5boost9unit_test10first_charIKcEENS0_13basic_cstringIT_E14value_ret_typeES5_
FNDA:0,_ZN5boost9unit_test10first_charIKcEENS0_13basic_cstringIT_E14value_ret_typeES5_
FN:730,_ZN5boost9unit_test9last_charIKcEENS0_13basic_cstringIT_E14value_ret_typeES5_
FNDA:0,_ZN5boost9unit_test9last_charIKcEENS0_13basic_cstringIT_E14value_ret_typeES5_
FN:745,_ZN5boost9unit_test9assign_opIcKcEEvRNSt7__cxx1112basic_stringIT_St11char_traitsIS5_ESaIS5_EEENS0_13basic_cstringIT0_EEi
FNDA:167,_ZN5boost9unit_test9assign_opIcKcEEvRNSt7__cxx1112basic_stringIT_St11char_traitsIS5_ESaIS5_EEENS0_13basic_cstringIT0_EEi
FN:754,_ZN5boost9unit_testpLIcKcEERNSt7__cxx1112basic_stringIT_St11char_traitsIS5_ESaIS5_EEESA_RKNS0_13basic_cstringIT0_EE
FNDA:0,_ZN5boost9unit_testpLIcKcEERNSt7__cxx1112basic_stringIT_St11char_traitsIS5_ESaIS5_EEESA_RKNS0_13basic_cstringIT0_EE
FN:764,_ZN5boost9unit_testplIcKcEENSt7__cxx1112basic_stringIT_St11char_traitsIS5_ESaIS5_EEERKS9_RKNS0_13basic_cstringIT0_EE
FNDA:0,_ZN5boost9unit_testplIcKcEENSt7__cxx1112basic_stringIT_St11char_traitsIS5_ESaIS5_EEERKS9_RKNS0_13basic_cstringIT0_EE
DA:83,142
DA:83,72
DA:83,0
DA:83,100
DA:142,72
DA:144,72
DA:206,288
DA:208,288
DA:215,263
DA:216,263
DA:217,263
DA:219,263
DA:225,1900
DA:226,1900
DA:227,1900
DA:229,1900
DA:235,447
DA:236,447
DA:237,447
DA:239,447
DA:245,366
DA:246,366
DA:247,366
DA:249,366
DA:255,84
DA:256,84
DA:257,84
DA:259,84
DA:265,9
DA:267,9
DA:286,0
DA:288,0
DA:286,5507
DA:288,5507
DA:295,563
DA:297,563
DA:304,69
DA:306,69
DA:313,0
DA:315,0
DA:316,0
DA:313,44
DA:315,44
DA:316,44
DA:332,0
DA:334,0
DA:335,0
DA:336,0
DA:338,0
DA:332,0
DA:334,0
DA:335,0
DA:336,0
DA:338,0
DA:345,74
DA:347,74
DA:348,74
DA:349,17
DA:351,74
DA:358,73
DA:360,73
DA:361,71
DA:364,90
DA:365,73
DA:366,56
DA:369,73
DA:389,73
DA:391,73
DA:392,73
DA:393,17
DA:395,73
DA:402,73
DA:404,73
DA:405,71
DA:409,73
DA:410,56
DA:411,56
DA:414,73
DA:421,73
DA:423,73
DA:424,73
DA:426,73
DA:433,358
DA:435,358
DA:436,358
DA:438,358
DA:454,1
DA:456,1
DA:481,84
DA:483,84
DA:507,0
DA:509,0
DA:507,1377
DA:509,1377
DA:516,1106
DA:518,1106
DA:525,566
DA:527,566
DA:534,72
DA:536,72
DA:543,84
DA:545,84
DA:546,12
DA:548,72
DA:549,72
DA:551,348
DA:552,276
DA:553,0
DA:555,276
DA:558,72
DA:587,0
DA:589,0
DA:591,0
DA:592,0
DA:593,0
DA:600,142
DA:604,142
DA:615,1
DA:618,2
DA:619,2
DA:626,1
DA:629,1
DA:639,0
DA:641,0
DA:657,0
DA:659,0
DA:684,0
DA:686,0
DA:715,0
DA:719,0
DA:730,0
DA:734,0
DA:745,167
DA:747,167
DA:748,167
DA:754,0
DA:756,0
DA:757,0
DA:764,0
DA:766,0
DA:768,0
DA:769,0
DA:770,0
end_of_record
SF:/usr/include/boost/test/impl/decorator.ipp
FN:38,_ZN5boost9unit_test9decorator11collector_t8instanceEv
FNDA:9,_ZN5boost9unit_test9decorator11collector_t8instanceEv
FN:42,_ZN5boost9unit_test9decorator11collector_tmlERKNS1_4baseE
FNDA:0,_ZN5boost9unit_test9decorator11collector_tmlERKNS1_4baseE
FN:52,_ZN5boost9unit_test9decorator11collector_t8store_inERNS0_9test_unitE
FNDA:9,_ZN5boost9unit_test9decorator11collector_t8store_inERNS0_9test_unitE
FN:63,_ZN5boost9unit_test9decorator11collector_t5resetEv
FNDA:9,_ZN5boost9unit_test9decorator11collector_t5resetEv
FN:75,_ZN5boost9unit_test9decorator11collector_t5stackEv
FNDA:0,_ZN5boost9unit_test9decorator11collector_t5stackEv
FN:84,_ZNK5boost9unit_test9decorator11collector_t19get_lazy_decoratorsEv
FNDA:0,_ZNK5boost9unit_test9decorator11collector_t19get_lazy_decoratorsEv
FN:96,_ZNK5boost9unit_test9decorator4basedeEv
FNDA:0,_ZNK5boost9unit_test9decorator4basedeEv
FN:106,_ZNK5boost9unit_test9decorator15stack_decoratordeEv
FNDA:0,_ZNK5boost9unit_test9decorator15stack_decoratordeEv
FN:114,_ZN5boost9unit_test9decorator15stack_decorator5applyERNS0_9test_unitE
FNDA:0,_ZN5boost9unit_test9decorator15stack_decorator5applyERNS0_9test_unitE
FN:124,_ZN5boost9unit_test9decorator5label5applyERNS0_9test_unitE
FNDA:0,_ZN5boost9unit_test9decorator5label5applyERNS0_9test_unitE
FN:136,_ZN5boost9unit_test9decorator17expected_failures5applyERNS0_9test_unitE
FNDA:0,_ZN5boost9unit_test9decorator17expected_failures5applyERNS0_9test_unitE
FN:148,_ZN5boost9unit_test9decorator7timeout5applyERNS0_9test_unitE
FNDA:0,_ZN5boost9unit_test9decorator7timeout5applyERNS0_9test_unitE
FN:160,_ZN5boost9unit_test9decorator11description5applyERNS0_9test_unitE
FNDA:0,_ZN5boost9unit_test9decorator11description5applyERNS0_9test_unitE
FN:172,_ZN5boost9unit_test9decorator10depends_on5applyERNS0_9test_unitE
FNDA:0,_ZN5boost9unit_test9decorator10depends_on5applyERNS0_9test_unitE
FN:203,_ZN5boost9unit_test9decorator14enable_if_impl10apply_implERNS0_9test_unitEb
FNDA:0,_ZN5boost9unit_test9decorator14enable_if_impl10apply_implERNS0_9test_unitEb
FN:219,_ZN5boost9unit_test9decorator9fixture_t5applyERNS0_9test_unitE
FNDA:0,_ZN5boost9unit_test9decorator9fixture_t5applyERNS0_9test_unitE
FN:231,_ZN5boost9unit_test9decorator12precondition5applyERNS0_9test_unitE
FNDA:0,_ZN5boost9unit_test9decorator12precondition5applyERNS0_9test_unitE
DA:38,9
DA:42,0
DA:44,0
DA:46,0
DA:52,9
DA:54,27
DA:55,9
DA:56,9
DA:57,9
DA:58,9
DA:63,9
DA:65,9
DA:66,0
DA:69,9
DA:70,9
DA:72,9
DA:75,0
DA:77,0
DA:78,0
DA:79,0
DA:84,0
DA:86,0
DA:96,0
DA:98,0
DA:106,0
DA:108,0
DA:109,0
DA:110,0
DA:114,0
DA:117,0
DA:124,0
DA:126,0
DA:127,0
DA:136,0
DA:138,0
DA:139,0
DA:148,0
DA:150,0
DA:151,0
DA:160,0
DA:162,0
DA:163,0
DA:172,0
DA:177,0
DA:179,0
DA:180,0
DA:181,0
DA:183,0
DA:185,0
DA:188,0
DA:189,0
DA:192,0
DA:194,0
DA:203,0
DA:205,0
DA:209,0
DA:210,0
DA:219,0
DA:221,0
DA:222,0
DA:231,0
DA:233,0
DA:234,0
end_of_record
SF:/usr/include/boost/test/detail/throw_exception.hpp
FN:48,_ZN5boost9unit_test9ut_detail15throw_exceptionINS_7runtime12format_errorEEEvRKT_
FNDA:0,_ZN5boost9unit_test9ut_detail15throw_exceptionINS_7runtime12format_errorEEEvRKT_
FN:48,_ZN5boost9unit_test9ut_detail15throw_exceptionINS_3nfp10nfp_detail27access_to_invalid_parameterEEEvRKT_
FNDA:0,_ZN5boost9unit_test9ut_detail15throw_exceptionINS_3nfp10nfp_detail27access_to_invalid_parameterEEEvRKT_
FN:48,_ZN5boost9unit_test9ut_detail15throw_exceptionINS0_9framework11setup_errorEEEvRKT_
FNDA:0,_ZN5boost9unit_test9ut_detail15throw_exceptionINS0_9framework11setup_errorEEEvRKT_
FN:48,_ZN5boost9unit_test9ut_detail15throw_exceptionINS_7runtime26access_to_missing_argumentEEEvRKT_
FNDA:0,_ZN5boost9unit_test9ut_detail15throw_exceptionINS_7runtime26access_to_missing_argumentEEEvRKT_
FN:48,_ZN5boost9unit_test9ut_detail15throw_exceptionINS0_9framework15nothing_to_testEEEvRKT_
FNDA:0,_ZN5boost9unit_test9ut_detail15throw_exceptionINS0_9framework15nothing_to_testEEEvRKT_
FN:48,_ZN5boost9unit_test9ut_detail15throw_exceptionINS0_9framework14internal_errorEEEvRKT_
FNDA:0,_ZN5boost9unit_test9ut_detail15throw_exceptionINS0_9framework14internal_errorEEEvRKT_
FN:48,_ZN5boost9unit_test9ut_detail15throw_exceptionINS_19execution_exceptionEEEvRKT_
FNDA:0,_ZN5boost9unit_test9ut_detail15throw_exceptionINS_19execution_exceptionEEEvRKT_
FN:48,_ZN5boost9unit_test9ut_detail15throw_exceptionINS_12system_errorEEEvRKT_
FNDA:0,_ZN5boost9unit_test9ut_detail15throw_exceptionINS_12system_errorEEEvRKT_
FN:48,_ZN5boost9unit_test9ut_detail15throw_exceptionINS_6detail23system_signal_exceptionEEEvRKT_
FNDA:0,_ZN5boost9unit_test9ut_detail15throw_exceptionINS_6detail23system_signal_exceptionEEEvRKT_
FN:48,_ZN5boost9unit_test9ut_detail15throw_exceptionINS_17execution_abortedEEEvRKT_
FNDA:0,_ZN5boost9unit_test9ut_detail15throw_exceptionINS_17execution_abortedEEEvRKT_
FN:48,_ZN5boost9unit_test9ut_detail15throw_exceptionINS_7runtime17arg_type_mismatchEEEvRKT_
FNDA:0,_ZN5boost9unit_test9ut_detail15throw_exceptionINS_7runtime17arg_type_mismatchEEEvRKT_
FN:48,_ZN5boost9unit_test9ut_detail15throw_exceptionINS_7runtime14invalid_cla_idEEEvRKT_
FNDA:0,_ZN5boost9unit_test9ut_detail15throw_exceptionINS_7runtime14invalid_cla_idEEEvRKT_
FN:48,_ZN5boost9unit_test9ut_detail15throw_exceptionINS_7runtime15duplicate_paramEEEvRKT_
FNDA:0,_ZN5boost9unit_test9ut_detail15throw_exceptionINS_7runtime15duplicate_paramEEEvRKT_
FN:48,_ZN5boost9unit_test9ut_detail15throw_exceptionINS_7runtime15missing_req_argEEEvRKT_
FNDA:0,_ZN5boost9unit_test9ut_detail15throw_exceptionINS_7runtime15missing_req_argEEEvRKT_
FN:48,_ZN5boost9unit_test9ut_detail15throw_exceptionINS_7runtime17conflicting_paramEEEvRKT_
FNDA:0,_ZN5boost9unit_test9ut_detail15throw_exceptionINS_7runtime17conflicting_paramEEEvRKT_
FN:48,_ZN5boost9unit_test9ut_detail15throw_exceptionINS_7runtime13duplicate_argEEEvRKT_
FNDA:0,_ZN5boost9unit_test9ut_detail15throw_exceptionINS_7runtime13duplicate_argEEEvRKT_
FN:48,_ZN5boost9unit_test9ut_detail15throw_exceptionINS_7runtime18unrecognized_paramEEEvRKT_
FNDA:0,_ZN5boost9unit_test9ut_detail15throw_exceptionINS_7runtime18unrecognized_paramEEEvRKT_
FN:48,_ZN5boost9unit_test9ut_detail15throw_exceptionINS_7runtime15ambiguous_paramEEEvRKT_
FNDA:0,_ZN5boost9unit_test9ut_detail15throw_exceptionINS_7runtime15ambiguous_paramEEEvRKT_
FN:48,_ZN5boost9unit_test9ut_detail15throw_exceptionINS_7runtime18invalid_param_specEEEvRKT_
FNDA:0,_ZN5boost9unit_test9ut_detail15throw_exceptionINS_7runtime18invalid_param_specEEEvRKT_
DA:48,0
DA:48,0
DA:48,0
DA:48,0
DA:48,0
DA:48,0
DA:48,0
DA:48,0
DA:48,0
DA:48,0
DA:48,0
DA:48,0
DA:48,0
DA:48,0
DA:48,0
DA:48,0
DA:48,0
DA:48,0
DA:48,0
end_of_record
SF:/usr/include/boost/test/utils/basic_cstring/bcs_char_traits.hpp
FN:60,_ZN5boost9unit_test9ut_detail20bcs_char_traits_implIKcE2eqEcc
FNDA:13222,_ZN5boost9unit_test9ut_detail20bcs_char_traits_implIKcE2eqEcc
FN:64,_ZN5boost9unit_test9ut_detail20bcs_char_traits_implIKcE2ltEcc
FNDA:422,_ZN5boost9unit_test9ut_detail20bcs_char_traits_implIKcE2ltEcc
FN:69,_ZN5boost9unit_test9ut_detail20bcs_char_traits_implIKcE7compareEPS3_S5_m
FNDA:793,_ZN5boost9unit_test9ut_detail20bcs_char_traits_implIKcE7compareEPS3_S5_m
FN:82,_ZN5boost9unit_test9ut_detail20bcs_char_traits_implIKcE6lengthEPS3_
FNDA:341,_ZN5boost9unit_test9ut_detail20bcs_char_traits_implIKcE6lengthEPS3_
FN:93,_ZN5boost9unit_test9ut_detail20bcs_char_traits_implIKcE4findEPS3_mc
FNDA:129,_ZN5boost9unit_test9ut_detail20bcs_char_traits_implIKcE4findEPS3_mc
DA:60,13222
DA:62,13222
DA:64,422
DA:66,422
DA:69,793
DA:71,4269
DA:72,3898
DA:73,422
DA:74,3476
DA:75,3476
DA:76,3476
DA:79,371
DA:82,341
DA:84,341
DA:86,341
DA:87,8979
DA:88,8638
DA:90,341
DA:93,129
DA:95,457
DA:96,345
DA:97,17
DA:99,328
DA:100,328
DA:102,112
end_of_record
SF:/usr/include/boost/type_index.hpp
FN:211,_ZN5boost9typeindex7type_idIZNS_9unit_test14runtime_config12_GLOBAL__N_119register_parametersERNS_7runtime16parameters_storeEEUlNS2_13basic_cstringIKcEEE_EENS0_14stl_type_indexEv
FNDA:0,_ZN5boost9typeindex7type_idIZNS_9unit_test14runtime_config12_GLOBAL__N_119register_parametersERNS_7runtime16parameters_storeEEUlNS2_13basic_cstringIKcEEE_EENS0_14stl_type_indexEv
FN:211,_ZN5boost9typeindex7type_idIPFvRKNS_5debug16dbg_startup_infoEEEENS0_14stl_type_indexEv
FNDA:0,_ZN5boost9typeindex7type_idIPFvRKNS_5debug16dbg_startup_infoEEEENS0_14stl_type_indexEv
FN:211,_ZN5boost9typeindex7type_idIPFvvEEENS0_14stl_type_indexEv
FNDA:0,_ZN5boost9typeindex7type_idIPFvvEEENS0_14stl_type_indexEv
FN:211,_ZN5boost9typeindex7type_idINS_6detail7forwardEEENS0_14stl_type_indexEv
FNDA:0,_ZN5boost9typeindex7type_idINS_6detail7forwardEEENS0_14stl_type_indexEv
FN:211,_ZN5boost9typeindex7type_idINS_3_bi6bind_tIvNS_4_mfi3mf2IvNS_9unit_test13test_observerEmmEENS2_5list3INS2_5valueIPS7_EENSA_INS6_17test_case_counter19readonly_property43EEENSA_ImEEEEEEEENS0_14stl_type_indexEv
FNDA:0,_ZN5boost9typeindex7type_idINS_3_bi6bind_tIvNS_4_mfi3mf2IvNS_9unit_test13test_observerEmmEENS2_5list3INS2_5valueIPS7_EENSA_INS6_17test_case_counter19readonly_property43EEENSA_ImEEEEEEEENS0_14stl_type_indexEv
FN:211,_ZN5boost9typeindex7type_idINS_3_bi6bind_tIvPFvPFPNS_9unit_test10test_suiteEiPPcEENS2_5list1INS2_5valueISA_EEEEEEEENS0_14stl_type_indexEv
FNDA:0,_ZN5boost9typeindex7type_idINS_3_bi6bind_tIvPFvPFPNS_9unit_test10test_suiteEiPPcEENS2_5list1INS2_5valueISA_EEEEEEEENS0_14stl_type_indexEv
FN:211,_ZN5boost9typeindex7type_idINS_3_bi6bind_tIvPFvRSoENS2_5list1INS_17reference_wrapperISoEEEEEEEENS0_14stl_type_indexEv
FNDA:0,_ZN5boost9typeindex7type_idINS_3_bi6bind_tIvPFvRSoENS2_5list1INS_17reference_wrapperISoEEEEEEEENS0_14stl_type_indexEv
FN:211,_ZN5boost9typeindex7type_idINS_3_bi6bind_tIvNS_4_mfi3mf2IvNS_9unit_test15unit_test_log_tENS6_13output_formatERSoEENS2_5list3INS2_5valueIPS7_EENSC_IS8_EENS_17reference_wrapperISoEEEEEEEENS0_14stl_type_indexEv
FNDA:0,_ZN5boost9typeindex7type_idINS_3_bi6bind_tIvNS_4_mfi3mf2IvNS_9unit_test15unit_test_log_tENS6_13output_formatERSoEENS2_5list3INS2_5valueIPS7_EENSC_IS8_EENS_17reference_wrapperISoEEEEEEEENS0_14stl_type_indexEv
FN:211,_ZN5boost9typeindex7type_idINS_3_bi6bind_tIvNS_4_mfi3mf1IvNS_9unit_test15unit_test_log_tERSoEENS2_5list2INS2_5valueIPS7_EENS_17reference_wrapperISoEEEEEEEENS0_14stl_type_indexEv
FNDA:0,_ZN5boost9typeindex7type_idINS_3_bi6bind_tIvNS_4_mfi3mf1IvNS_9unit_test15unit_test_log_tERSoEENS2_5list2INS2_5valueIPS7_EENS_17reference_wrapperISoEEEEEEEENS0_14stl_type_indexEv
FN:211,_ZN5boost9typeindex7type_idINS_3_bi6bind_tIvNS_4_mfi3mf0IvNS_9unit_test17test_unit_fixtureEEENS2_5list1INS2_5valueINS_10shared_ptrIS7_EEEEEEEEEENS0_14stl_type_indexEv
FNDA:0,_ZN5boost9typeindex7type_idINS_3_bi6bind_tIvNS_4_mfi3mf0IvNS_9unit_test17test_unit_fixtureEEENS2_5list1INS2_5valueINS_10shared_ptrIS7_EEEEEEEEEENS0_14stl_type_indexEv
DA:211,0
DA:212,0
DA:211,0
DA:212,0
DA:211,0
DA:212,0
DA:211,0
DA:212,0
DA:211,0
DA:212,0
DA:211,0
DA:212,0
DA:211,0
DA:212,0
DA:211,0
DA:212,0
DA:211,0
DA:212,0
DA:211,0
DA:212,0
end_of_record
SF:/usr/include/boost/bind/mem_fn_template.hpp
FN:38,_ZNK5boost4_mfi3mf0IvNS_9unit_test17test_unit_fixtureEE4callINS_10shared_ptrIS3_EEEEvRT_PKv
FNDA:0,_ZNK5boost4_mfi3mf0IvNS_9unit_test17test_unit_fixtureEE4callINS_10shared_ptrIS3_EEEEvRT_PKv
FN:45,_ZN5boost4_mfi3mf0IvNS_9unit_test17test_unit_fixtureEEC2EMS3_FvvE
FNDA:0,_ZN5boost4_mfi3mf0IvNS_9unit_test17test_unit_fixtureEEC2EMS3_FvvE
FN:52,_ZNK5boost4_mfi3mf0IvNS_9unit_test17test_unit_fixtureEEclINS_10shared_ptrIS3_EEEEvRT_
FNDA:0,_ZNK5boost4_mfi3mf0IvNS_9unit_test17test_unit_fixtureEEclINS_10shared_ptrIS3_EEEEvRT_
FN:161,_ZN5boost4_mfi3mf1IvNS_9unit_test15unit_test_log_tERSoEC2EMS3_FvS4_E
FNDA:0,_ZN5boost4_mfi3mf1IvNS_9unit_test15unit_test_log_tERSoEC2EMS3_FvS4_E
FN:163,_ZNK5boost4_mfi3mf1IvNS_9unit_test15unit_test_log_tERSoEclEPS3_S4_
FNDA:0,_ZNK5boost4_mfi3mf1IvNS_9unit_test15unit_test_log_tERSoEclEPS3_S4_
FN:227,_ZN5boost4_mfi4cmf1IbNS_9unit_test9framework4impl11name_filter9componentERKNS2_9test_unitEEC2EMS6_KFbS9_E
FNDA:0,_ZN5boost4_mfi4cmf1IbNS_9unit_test9framework4impl11name_filter9componentERKNS2_9test_unitEEC2EMS6_KFbS9_E
FN:235,_ZNK5boost4_mfi4cmf1IbNS_9unit_test9framework4impl11name_filter9componentERKNS2_9test_unitEEclERKS6_S9_
FNDA:0,_ZNK5boost4_mfi4cmf1IbNS_9unit_test9framework4impl11name_filter9componentERKNS2_9test_unitEEclERKS6_S9_
FN:276,_ZN5boost4_mfi3mf2IvNS_9unit_test13test_observerEmmEC2EMS3_FvmmE
FNDA:3,_ZN5boost4_mfi3mf2IvNS_9unit_test13test_observerEmmEC2EMS3_FvmmE
FN:276,_ZN5boost4_mfi3mf2IvNS_9unit_test15unit_test_log_tENS2_13output_formatERSoEC2EMS3_FvS4_S5_E
FNDA:0,_ZN5boost4_mfi3mf2IvNS_9unit_test15unit_test_log_tENS2_13output_formatERSoEC2EMS3_FvS4_S5_E
FN:278,_ZNK5boost4_mfi3mf2IvNS_9unit_test13test_observerEmmEclEPS3_mm
FNDA:3,_ZNK5boost4_mfi3mf2IvNS_9unit_test13test_observerEmmEclEPS3_mm
FN:278,_ZNK5boost4_mfi3mf2IvNS_9unit_test15unit_test_log_tENS2_13output_formatERSoEclEPS3_S4_S5_
FNDA:0,_ZNK5boost4_mfi3mf2IvNS_9unit_test15unit_test_log_tENS2_13output_formatERSoEclEPS3_S4_S5_
DA:38,0
DA:40,0
DA:45,0
DA:52,0
DA:54,0
DA:55,0
DA:161,0
DA:163,0
DA:165,0
DA:227,0
DA:235,0
DA:237,0
DA:276,3
DA:276,0
DA:278,3
DA:280,3
DA:278,0
DA:280,0
end_of_record
SF:/usr/include/boost/exception/info.hpp
FN:65,_ZN5boost16exception_detail25error_info_container_implC2Ev
FNDA:0,_ZN5boost16exception_detail25error_info_container_implC2Ev
FN:70,_ZN5boost16exception_detail25error_info_container_implD2Ev
FNDA:0,_ZN5boost16exception_detail25error_info_container_implD2Ev
FN:75,_ZN5boost16exception_detail25error_info_container_impl3setERKNS_10shared_ptrINS0_15error_info_baseEEERKNS0_10type_info_E
FNDA:0,_ZN5boost16exception_detail25error_info_container_impl3setERKNS_10shared_ptrINS0_15error_info_baseEEERKNS0_10type_info_E
FN:83,_ZNK5boost16exception_detail25error_info_container_impl3getERKNS0_10type_info_E
FNDA:0,_ZNK5boost16exception_detail25error_info_container_impl3getERKNS0_10type_info_E
FN:98,_ZNK5boost16exception_detail25error_info_container_impl22diagnostic_informationEPKc
FNDA:0,_ZNK5boost16exception_detail25error_info_container_impl22diagnostic_informationEPKc
FN:127,_ZNK5boost16exception_detail25error_info_container_impl7add_refEv
FNDA:0,_ZNK5boost16exception_detail25error_info_container_impl7add_refEv
FN:133,_ZNK5boost16exception_detail25error_info_container_impl7releaseEv
FNDA:0,_ZNK5boost16exception_detail25error_info_container_impl7releaseEv
FN:145,_ZNK5boost16exception_detail25error_info_container_impl5cloneEv
FNDA:0,_ZNK5boost16exception_detail25error_info_container_impl5cloneEv
DA:65,0
DA:66,0
DA:68,0
DA:70,0
DA:71,0
DA:72,0
DA:75,0
DA:77,0
DA:78,0
DA:79,0
DA:80,0
DA:83,0
DA:85,0
DA:86,0
DA:88,0
DA:90,0
DA:92,0
DA:94,0
DA:98,0
DA:100,0
DA:102,0
DA:103,0
DA:104,0
DA:106,0
DA:107,0
DA:109,0
DA:110,0
DA:111,0
DA:127,0
DA:129,0
DA:130,0
DA:133,0
DA:135,0
DA:136,0
DA:139,0
DA:140,0
DA:145,0
DA:147,0
DA:148,0
DA:149,0
DA:150,0
DA:152,0
DA:153,0
DA:154,0
DA:155,0
DA:156,0
end_of_record
SF:/usr/include/boost/exception/diagnostic_information.hpp
FN:71,_ZN5boost16exception_detail19get_boost_exceptionEPKNS_9exceptionE
FNDA:0,_ZN5boost16exception_detail19get_boost_exceptionEPKNS_9exceptionE
FN:92,_ZN5boost16exception_detail17get_std_exceptionEz
FNDA:0,_ZN5boost16exception_detail17get_std_exceptionEz
FN:99,_ZN5boost16exception_detail26get_diagnostic_informationERKNS_9exceptionEPKc
FNDA:0,_ZN5boost16exception_detail26get_diagnostic_informationERKNS_9exceptionEPKc
FN:122,_ZN5boost16exception_detail27diagnostic_information_implB5cxx11EPKNS_9exceptionEPKSt9exceptionbb
FNDA:0,_ZN5boost16exception_detail27diagnostic_information_implB5cxx11EPKNS_9exceptionEPKSt9exceptionbb
FN:180,_ZN5boost22diagnostic_informationINS_9exceptionEEENSt7__cxx1112basic_stringIcSt11char_traitsIcESaIcEEERKT_b
FNDA:0,_ZN5boost22diagnostic_informationINS_9exceptionEEENSt7__cxx1112basic_stringIcSt11char_traitsIcESaIcEEERKT_b
DA:71,0
DA:73,0
DA:92,0
DA:94,0
DA:99,0
DA:105,0
DA:106,0
DA:107,0
DA:108,0
DA:109,0
DA:110,0
DA:113,0
DA:115,0
DA:116,0
DA:122,0
DA:124,0
DA:125,0
DA:127,0
DA:128,0
DA:129,0
DA:130,0
DA:132,0
DA:133,0
DA:135,0
DA:136,0
DA:137,0
DA:139,0
DA:140,0
DA:142,0
DA:143,0
DA:144,0
DA:145,0
DA:146,0
DA:149,0
DA:151,0
DA:152,0
DA:153,0
DA:155,0
DA:156,0
DA:157,0
DA:159,0
DA:160,0
DA:164,0
DA:165,0
DA:166,0
DA:168,0
DA:169,0
DA:170,0
DA:171,0
DA:172,0
DA:173,0
DA:174,0
DA:175,0
DA:180,0
DA:182,0
end_of_record
SF:/usr/include/boost/type_index/type_index_facade.hpp
FN:154,_ZN5boost9typeindexeqINS0_14stl_type_indexESt9type_infoEEbRKNS0_17type_index_facadeIT_T0_EES9_
FNDA:0,_ZN5boost9typeindexeqINS0_14stl_type_indexESt9type_infoEEbRKNS0_17type_index_facadeIT_T0_EES9_
FN:187,_ZN5boost9typeindexeqINS0_14stl_type_indexESt9type_infoEEbRKT0_RKNS0_17type_index_facadeIT_S4_EE
FNDA:0,_ZN5boost9typeindexeqINS0_14stl_type_indexESt9type_infoEEbRKT0_RKNS0_17type_index_facadeIT_S4_EE
DA:154,0
DA:155,0
DA:187,0
DA:188,0
end_of_record
SF:/usr/include/boost/test/utils/basic_cstring/io.hpp
FN:51,_ZN5boost9unit_testlsIcSt11char_traitsIcEKcEERSt13basic_ostreamIT_T0_ES9_RKNS0_13basic_cstringIT1_EE
FNDA:0,_ZN5boost9unit_testlsIcSt11char_traitsIcEKcEERSt13basic_ostreamIT_T0_ES9_RKNS0_13basic_cstringIT1_EE
DA:51,0
DA:53,0
DA:54,0
DA:55,0
DA:57,0
end_of_record
SF:/usr/include/boost/test/utils/timer.hpp
FN:61,_ZN5boost9unit_test5timer21microsecond_wall_timeERKNS1_12elapsed_timeE
FNDA:26,_ZN5boost9unit_test5timer21microsecond_wall_timeERKNS1_12elapsed_timeE
FN:95,_ZN5boost9unit_test5timer5timerC2Ev
FNDA:10,_ZN5boost9unit_test5timer5timerC2Ev
FN:99,_ZN5boost9unit_test5timer5timer7restartEv
FNDA:10,_ZN5boost9unit_test5timer5timer7restartEv
FN:116,_ZNK5boost9unit_test5timer5timer7elapsedEv
FNDA:26,_ZNK5boost9unit_test5timer5timer7elapsedEv
DA:61,26
DA:63,26
DA:95,10
DA:96,10
DA:97,10
DA:98,10
DA:99,10
DA:101,10
DA:107,10
DA:109,0
DA:110,0
DA:113,10
DA:116,26
DA:123,26
DA:136,26
DA:137,26
DA:139,26
DA:143,26
end_of_record
SF:/usr/include/boost/test/tree/observer.hpp
FN:48,_ZN5boost9unit_test13test_observer10test_startEmm
FNDA:0,_ZN5boost9unit_test13test_observer10test_startEmm
FN:53,_ZN5boost9unit_test13test_observer11test_finishEv
FNDA:2,_ZN5boost9unit_test13test_observer11test_finishEv
FN:62,_ZN5boost9unit_test13test_observer12test_abortedEv
FNDA:0,_ZN5boost9unit_test13test_observer12test_abortedEv
FN:67,_ZN5boost9unit_test13test_observer15test_unit_startERKNS0_9test_unitE
FNDA:0,_ZN5boost9unit_test13test_observer15test_unit_startERKNS0_9test_unitE
FN:72,_ZN5boost9unit_test13test_observer16test_unit_finishERKNS0_9test_unitEm
FNDA:0,_ZN5boost9unit_test13test_observer16test_unit_finishERKNS0_9test_unitEm
FN:73,_ZN5boost9unit_test13test_observer17test_unit_skippedERKNS0_9test_unitENS0_13basic_cstringIKcEE
FNDA:0,_ZN5boost9unit_test13test_observer17test_unit_skippedERKNS0_9test_unitENS0_13basic_cstringIKcEE
FN:74,_ZN5boost9unit_test13test_observer17test_unit_skippedERKNS0_9test_unitE
FNDA:0,_ZN5boost9unit_test13test_observer17test_unit_skippedERKNS0_9test_unitE
FN:80,_ZN5boost9unit_test13test_observer19test_unit_timed_outERKNS0_9test_unitE
FNDA:0,_ZN5boost9unit_test13test_observer19test_unit_timed_outERKNS0_9test_unitE
FN:87,_ZN5boost9unit_test13test_observer17test_unit_abortedERKNS0_9test_unitE
FNDA:0,_ZN5boost9unit_test13test_observer17test_unit_abortedERKNS0_9test_unitE
FN:89,_ZN5boost9unit_test13test_observer16assertion_resultENS0_16assertion_resultE
FNDA:19,_ZN5boost9unit_test13test_observer16assertion_resultENS0_16assertion_resultE
FN:98,_ZN5boost9unit_test13test_observer16exception_caughtERKNS_19execution_exceptionE
FNDA:0,_ZN5boost9unit_test13test_observer16exception_caughtERKNS_19execution_exceptionE
FN:102,_ZN5boost9unit_test13test_observer8priorityEv
FNDA:0,_ZN5boost9unit_test13test_observer8priorityEv
FN:106,_ZN5boost9unit_test13test_observerD0Ev
FNDA:0,_ZN5boost9unit_test13test_observerD0Ev
FN:106,_ZN5boost9unit_test13test_observerD2Ev
FNDA:4,_ZN5boost9unit_test13test_observerD2Ev
DA:48,0
DA:53,2
DA:62,0
DA:67,0
DA:72,0
DA:73,0
DA:74,0
DA:80,0
DA:87,0
DA:89,19
DA:91,19
DA:98,0
DA:102,0
DA:106,0
DA:106,4
end_of_record
SF:/usr/include/boost/test/impl/debug.ipp
FN:182,_ZN5boost5debug12_GLOBAL__N_19fd_holderC2Ei
FNDA:84,_ZN5boost5debug12_GLOBAL__N_19fd_holderC2Ei
FN:183,_ZN5boost5debug12_GLOBAL__N_19fd_holderD2Ev
FNDA:84,_ZN5boost5debug12_GLOBAL__N_19fd_holderD2Ev
FN:189,_ZN5boost5debug12_GLOBAL__N_19fd_holdercviEv
FNDA:168,_ZN5boost5debug12_GLOBAL__N_19fd_holdercviEv
FN:206,_ZNK5boost5debug12_GLOBAL__N_112process_info10parent_pidEv
FNDA:168,_ZNK5boost5debug12_GLOBAL__N_112process_info10parent_pidEv
FN:207,_ZNK5boost5debug12_GLOBAL__N_112process_info11binary_nameEv
FNDA:84,_ZNK5boost5debug12_GLOBAL__N_112process_info11binary_nameEv
FN:208,_ZNK5boost5debug12_GLOBAL__N_112process_info11binary_pathEv
FNDA:0,_ZNK5boost5debug12_GLOBAL__N_112process_info11binary_pathEv
FN:227,_ZN5boost5debug12_GLOBAL__N_112process_infoC2Ei
FNDA:84,_ZN5boost5debug12_GLOBAL__N_112process_infoC2Ei
FN:310,_ZN5boost5debug12_GLOBAL__N_1L20prepare_window_titleERKNS0_16dbg_startup_infoE
FNDA:0,_ZN5boost5debug12_GLOBAL__N_1L20prepare_window_titleERKNS0_16dbg_startup_infoE
FN:340,_ZN5boost5debug12_GLOBAL__N_18copy_argERNS_9unit_test13basic_cstringIcEENS3_IKcEE
FNDA:0,_ZN5boost5debug12_GLOBAL__N_18copy_argERNS_9unit_test13basic_cstringIcEENS3_IKcEE
FN:357,_ZN5boost5debug12_GLOBAL__N_111safe_execlpEPKcz
FNDA:0,_ZN5boost5debug12_GLOBAL__N_111safe_execlpEPKcz
FN:405,_ZN5boost5debug12_GLOBAL__N_1L23start_debugger_in_emacsERKNS0_16dbg_startup_infoEPKcS6_
FNDA:0,_ZN5boost5debug12_GLOBAL__N_1L23start_debugger_in_emacsERKNS0_16dbg_startup_infoEPKcS6_
FN:424,_ZN5boost5debug12_GLOBAL__N_1L21prepare_gdb_cmnd_fileERKNS0_16dbg_startup_infoE
FNDA:0,_ZN5boost5debug12_GLOBAL__N_1L21prepare_gdb_cmnd_fileERKNS0_16dbg_startup_infoE
FN:466,_ZN5boost5debug12_GLOBAL__N_1L20start_gdb_in_consoleERKNS0_16dbg_startup_infoE
FNDA:0,_ZN5boost5debug12_GLOBAL__N_1L20start_gdb_in_consoleERKNS0_16dbg_startup_infoE
FN:479,_ZN5boost5debug12_GLOBAL__N_1L18start_gdb_in_xtermERKNS0_16dbg_startup_infoE
FNDA:0,_ZN5boost5debug12_GLOBAL__N_1L18start_gdb_in_xtermERKNS0_16dbg_startup_infoE
FN:495,_ZN5boost5debug12_GLOBAL__N_1L18start_gdb_in_emacsERKNS0_16dbg_startup_infoE
FNDA:0,_ZN5boost5debug12_GLOBAL__N_1L18start_gdb_in_emacsERKNS0_16dbg_startup_infoE
FN:510,_ZN5boost5debug12_GLOBAL__N_1L19start_gdb_in_xemacsERKNS0_16dbg_startup_infoE
FNDA:0,_ZN5boost5debug12_GLOBAL__N_1L19start_gdb_in_xemacsERKNS0_16dbg_startup_infoE
FN:522,_ZN5boost5debug12_GLOBAL__N_1L20prepare_dbx_cmd_lineERKNS0_16dbg_startup_infoEb
FNDA:0,_ZN5boost5debug12_GLOBAL__N_1L20prepare_dbx_cmd_lineERKNS0_16dbg_startup_infoEb
FN:537,_ZN5boost5debug12_GLOBAL__N_1L20start_dbx_in_consoleERKNS0_16dbg_startup_infoE
FNDA:0,_ZN5boost5debug12_GLOBAL__N_1L20start_dbx_in_consoleERKNS0_16dbg_startup_infoE
FN:548,_ZN5boost5debug12_GLOBAL__N_1L18start_dbx_in_xtermERKNS0_16dbg_startup_infoE
FNDA:0,_ZN5boost5debug12_GLOBAL__N_1L18start_dbx_in_xtermERKNS0_16dbg_startup_infoE
FN:565,_ZN5boost5debug12_GLOBAL__N_1L18start_dbx_in_emacsERKNS0_16dbg_startup_infoE
FNDA:0,_ZN5boost5debug12_GLOBAL__N_1L18start_dbx_in_emacsERKNS0_16dbg_startup_infoE
FN:577,_ZN5boost5debug12_GLOBAL__N_1L19start_dbx_in_xemacsERKNS0_16dbg_startup_infoE
FNDA:0,_ZN5boost5debug12_GLOBAL__N_1L19start_dbx_in_xemacsERKNS0_16dbg_startup_infoE
FN:585,_ZN5boost5debug12_GLOBAL__N_1L16start_dbx_in_dddERKNS0_16dbg_startup_infoE
FNDA:0,_ZN5boost5debug12_GLOBAL__N_1L16start_dbx_in_dddERKNS0_16dbg_startup_infoE
FN:617,_ZN5boost5debug12_GLOBAL__N_16info_tC2Ev
FNDA:1,_ZN5boost5debug12_GLOBAL__N_16info_tC2Ev
FN:646,_ZN5boost5debug14under_debuggerEv
FNDA:12,_ZN5boost5debug14under_debuggerEv
FN:713,_ZN5boost5debug14debugger_breakEv
FNDA:0,_ZN5boost5debug14debugger_breakEv
FN:766,_ZN5boost5debug12set_debuggerB5cxx11ENS_9unit_test13basic_cstringIKcEENS_8functionIFvRKNS0_16dbg_startup_infoEEEE
FNDA:0,_ZN5boost5debug12set_debuggerB5cxx11ENS_9unit_test13basic_cstringIKcEENS_8functionIFvRKNS0_16dbg_startup_infoEEEE
FN:818,_ZN5boost5debug15attach_debuggerEb
FNDA:0,_ZN5boost5debug15attach_debuggerEb
FN:995,_ZN5boost5debug19detect_memory_leaksEbNS_9unit_test13basic_cstringIKcEE
FNDA:1,_ZN5boost5debug19detect_memory_leaksEbNS_9unit_test13basic_cstringIKcEE
FN:1031,_ZN5boost5debug18break_memory_allocEl
FNDA:1,_ZN5boost5debug18break_memory_allocEl
DA:182,84
DA:183,84
DA:185,84
DA:186,84
DA:187,84
DA:189,168
DA:206,168
DA:207,84
DA:208,0
DA:227,84
DA:228,84
DA:267,84
DA:269,84
DA:271,84
DA:272,0
DA:274,84
DA:275,84
DA:276,0
DA:278,84
DA:280,84
DA:281,492
DA:282,408
DA:284,84
DA:285,576
DA:286,492
DA:288,84
DA:290,84
DA:292,84
DA:293,84
DA:295,84
DA:296,12
DA:298,72
DA:299,72
DA:301,84
DA:310,0
DA:316,0
DA:318,0
DA:321,0
DA:322,0
DA:324,0
DA:326,0
DA:328,0
DA:340,0
DA:342,0
DA:343,0
DA:345,0
DA:347,0
DA:349,0
DA:351,0
DA:357,0
DA:365,0
DA:367,0
DA:368,0
DA:369,0
DA:370,0
DA:373,0
DA:374,0
DA:375,0
DA:378,0
DA:379,0
DA:381,0
DA:383,0
DA:384,0
DA:385,0
DA:386,0
DA:387,0
DA:388,0
DA:391,0
DA:393,0
DA:395,0
DA:405,0
DA:407,0
DA:409,0
DA:410,0
DA:412,0
DA:413,0
DA:414,0
DA:424,0
DA:428,0
DA:429,0
DA:434,0
DA:435,0
DA:436,0
DA:438,0
DA:439,0
DA:444,0
DA:445,0
DA:446,0
DA:447,0
DA:448,0
DA:449,0
DA:450,0
DA:451,0
DA:452,0
DA:454,0
DA:455,0
DA:456,0
DA:457,0
DA:458,0
DA:460,0
DA:461,0
DA:466,0
DA:468,0
DA:470,0
DA:471,0
DA:473,0
DA:479,0
DA:481,0
DA:482,0
DA:484,0
DA:485,0
DA:487,0
DA:495,0
DA:497,0
DA:498,0
DA:499,0
DA:502,0
DA:504,0
DA:510,0
DA:513,0
DA:522,0
DA:526,0
DA:528,0
DA:531,0
DA:537,0
DA:540,0
DA:542,0
DA:543,0
DA:548,0
DA:550,0
DA:551,0
DA:552,0
DA:555,0
DA:557,0
DA:565,0
DA:572,0
DA:577,0
DA:580,0
DA:585,0
DA:587,0
DA:588,0
DA:589,0
DA:592,0
DA:594,0
DA:617,1
DA:619,1
DA:620,2
DA:621,1
DA:623,1
DA:624,1
DA:625,1
DA:626,1
DA:628,1
DA:629,1
DA:630,1
DA:631,1
DA:632,1
DA:633,1
DA:646,12
DA:655,12
DA:657,12
DA:659,96
DA:660,84
DA:663,84
DA:664,0
DA:666,84
DA:669,12
DA:713,0
DA:750,0
DA:755,0
DA:766,0
DA:768,0
DA:770,0
DA:772,0
DA:773,0
DA:775,0
DA:776,0
DA:818,0
DA:820,0
DA:821,0
DA:930,0
DA:931,0
DA:932,0
DA:933,0
DA:935,0
DA:936,0
DA:938,0
DA:940,0
DA:941,0
DA:943,0
DA:944,0
DA:946,0
DA:947,0
DA:948,0
DA:950,0
DA:951,0
DA:952,0
DA:953,0
DA:954,0
DA:956,0
DA:957,0
DA:958,0
DA:960,0
DA:962,0
DA:963,0
DA:967,0
DA:968,0
DA:970,0
DA:976,0
DA:977,0
DA:979,0
DA:986,0
DA:995,1
DA:1021,1
DA:1031,1
DA:1040,1
end_of_record
SF:/usr/include/boost/test/impl/execution_monitor.ipp
FN:240,_ZN5boost6detail7extractINS_10error_infoINS_11throw_file_EPKcEEEENT_10value_typeEPKNS_9exceptionE
FNDA:0,_ZN5boost6detail7extractINS_10error_infoINS_11throw_file_EPKcEEEENT_10value_typeEPKNS_9exceptionE
FN:240,_ZN5boost6detail7extractINS_10error_infoINS_11throw_line_EiEEEENT_10value_typeEPKNS_9exceptionE
FNDA:0,_ZN5boost6detail7extractINS_10error_infoINS_11throw_line_EiEEEENT_10value_typeEPKNS_9exceptionE
FN:240,_ZN5boost6detail7extractINS_10error_infoINS_15throw_function_EPKcEEEENT_10value_typeEPKNS_9exceptionE
FNDA:0,_ZN5boost6detail7extractINS_10error_infoINS_15throw_function_EPKcEEEENT_10value_typeEPKNS_9exceptionE
FN:254,_ZN5boost6detailL12report_errorENS_19execution_exception10error_codeEPKNS_9exceptionEPKcPA1_13__va_list_tag
FNDA:0,_ZN5boost6detailL12report_errorENS_19execution_exception10error_codeEPKNS_9exceptionEPKcPA1_13__va_list_tag
FN:273,_ZN5boost6detailL12report_errorENS_19execution_exception10error_codeEPKNS_9exceptionEPKcz
FNDA:0,_ZN5boost6detailL12report_errorENS_19execution_exception10error_codeEPKNS_9exceptionEPKcz
FN:287,_ZN5boost6detailL12report_errorENS_19execution_exception10error_codeEPKcz
FNDA:0,_ZN5boost6detailL12report_errorENS_19execution_exception10error_codeEPKcz
FN:299,_ZN5boost6detail9do_invokeINS_10shared_ptrINS0_22translator_holder_baseEEENS_8functionIFivEEEEEiRKT_RKT0_
FNDA:12,_ZN5boost6detail9do_invokeINS_10shared_ptrINS0_22translator_holder_baseEEENS_8functionIFivEEEEEiRKT_RKT0_
FN:307,_ZN5boost6detail16fpe_except_guardC2Ej
FNDA:12,_ZN5boost6detail16fpe_except_guardC2Ej
FN:315,_ZN5boost6detail16fpe_except_guardD2Ev
FNDA:12,_ZN5boost6detail16fpe_except_guardD2Ev
FN:335,_ZN5boost6detail11typeid_nameISt13runtime_errorEENSt7__cxx1112basic_stringIcSt11char_traitsIcESaIcEEERKT_
FNDA:0,_ZN5boost6detail11typeid_nameISt13runtime_errorEENSt7__cxx1112basic_stringIcSt11char_traitsIcESaIcEEERKT_
FN:335,_ZN5boost6detail11typeid_nameISt9bad_allocEENSt7__cxx1112basic_stringIcSt11char_traitsIcESaIcEEERKT_
FNDA:0,_ZN5boost6detail11typeid_nameISt9bad_allocEENSt7__cxx1112basic_stringIcSt11char_traitsIcESaIcEEERKT_
FN:335,_ZN5boost6detail11typeid_nameISt8bad_castEENSt7__cxx1112basic_stringIcSt11char_traitsIcESaIcEEERKT_
FNDA:0,_ZN5boost6detail11typeid_nameISt8bad_castEENSt7__cxx1112basic_stringIcSt11char_traitsIcESaIcEEERKT_
FN:335,_ZN5boost6detail11typeid_nameISt13bad_exceptionEENSt7__cxx1112basic_stringIcSt11char_traitsIcESaIcEEERKT_
FNDA:0,_ZN5boost6detail11typeid_nameISt13bad_exceptionEENSt7__cxx1112basic_stringIcSt11char_traitsIcESaIcEEERKT_
FN:335,_ZN5boost6detail11typeid_nameISt9exceptionEENSt7__cxx1112basic_stringIcSt11char_traitsIcESaIcEEERKT_
FNDA:0,_ZN5boost6detail11typeid_nameISt9exceptionEENSt7__cxx1112basic_stringIcSt11char_traitsIcESaIcEEERKT_
FN:335,_ZN5boost6detail11typeid_nameISt11logic_errorEENSt7__cxx1112basic_stringIcSt11char_traitsIcESaIcEEERKT_
FNDA:0,_ZN5boost6detail11typeid_nameISt11logic_errorEENSt7__cxx1112basic_stringIcSt11char_traitsIcESaIcEEERKT_
FN:335,_ZN5boost6detail11typeid_nameISt15underflow_errorEENSt7__cxx1112basic_stringIcSt11char_traitsIcESaIcEEERKT_
FNDA:0,_ZN5boost6detail11typeid_nameISt15underflow_errorEENSt7__cxx1112basic_stringIcSt11char_traitsIcESaIcEEERKT_
FN:335,_ZN5boost6detail11typeid_nameISt14overflow_errorEENSt7__cxx1112basic_stringIcSt11char_traitsIcESaIcEEERKT_
FNDA:0,_ZN5boost6detail11typeid_nameISt14overflow_errorEENSt7__cxx1112basic_stringIcSt11char_traitsIcESaIcEEERKT_
FN:335,_ZN5boost6detail11typeid_nameISt11range_errorEENSt7__cxx1112basic_stringIcSt11char_traitsIcESaIcEEERKT_
FNDA:0,_ZN5boost6detail11typeid_nameISt11range_errorEENSt7__cxx1112basic_stringIcSt11char_traitsIcESaIcEEERKT_
FN:335,_ZN5boost6detail11typeid_nameISt10bad_typeidEENSt7__cxx1112basic_stringIcSt11char_traitsIcESaIcEEERKT_
FNDA:0,_ZN5boost6detail11typeid_nameISt10bad_typeidEENSt7__cxx1112basic_stringIcSt11char_traitsIcESaIcEEERKT_
FN:335,_ZN5boost6detail11typeid_nameISt12domain_errorEENSt7__cxx1112basic_stringIcSt11char_traitsIcESaIcEEERKT_
FNDA:0,_ZN5boost6detail11typeid_nameISt12domain_errorEENSt7__cxx1112basic_stringIcSt11char_traitsIcESaIcEEERKT_
FN:335,_ZN5boost6detail11typeid_nameISt16invalid_argumentEENSt7__cxx1112basic_stringIcSt11char_traitsIcESaIcEEERKT_
FNDA:0,_ZN5boost6detail11typeid_nameISt16invalid_argumentEENSt7__cxx1112basic_stringIcSt11char_traitsIcESaIcEEERKT_
FN:335,_ZN5boost6detail11typeid_nameISt12length_errorEENSt7__cxx1112basic_stringIcSt11char_traitsIcESaIcEEERKT_
FNDA:0,_ZN5boost6detail11typeid_nameISt12length_errorEENSt7__cxx1112basic_stringIcSt11char_traitsIcESaIcEEERKT_
FN:335,_ZN5boost6detail11typeid_nameISt12out_of_rangeEENSt7__cxx1112basic_stringIcSt11char_traitsIcESaIcEEERKT_
FNDA:0,_ZN5boost6detail11typeid_nameISt12out_of_rangeEENSt7__cxx1112basic_stringIcSt11char_traitsIcESaIcEEERKT_
FN:358,_ZN5boost6detail23system_signal_exceptionC2Ev
FNDA:12,_ZN5boost6detail23system_signal_exceptionC2Ev
FN:364,_ZN5boost6detail23system_signal_exceptionclEP9siginfo_tPv
FNDA:0,_ZN5boost6detail23system_signal_exceptionclEP9siginfo_tPv
FN:380,_ZNK5boost6detail23system_signal_exception6reportEv
FNDA:0,_ZNK5boost6detail23system_signal_exception6reportEv
FN:668,_ZN5boost6detail13signal_actionC2Ev
FNDA:12,_ZN5boost6detail13signal_actionC2Ev
FN:674,_ZN5boost6detail13signal_actionC2EibbPc
FNDA:84,_ZN5boost6detail13signal_actionC2EibbPc
FN:705,_ZN5boost6detail13signal_actionD2Ev
FNDA:96,_ZN5boost6detail13signal_actionD2Ev
FN:730,_ZN5boost6detail14signal_handler11jump_bufferEv
FNDA:12,_ZN5boost6detail14signal_handler11jump_bufferEv
FN:737,_ZN5boost6detail14signal_handler7sys_sigEv
FNDA:0,_ZN5boost6detail14signal_handler7sys_sigEv
FN:771,_ZN5boost6detail14signal_handlerC2EbbmbPc
FNDA:12,_ZN5boost6detail14signal_handlerC2EbbmbPc
FN:814,_ZN5boost6detail14signal_handlerD2Ev
FNDA:12,_ZN5boost6detail14signal_handlerD2Ev
FN:852,boost_execution_monitor_jumping_signal_handler
FNDA:0,boost_execution_monitor_jumping_signal_handler
FN:861,boost_execution_monitor_attaching_signal_handler
FNDA:0,boost_execution_monitor_attaching_signal_handler
FN:881,_ZN5boost17execution_monitor13catch_signalsERKNS_8functionIFivEEE
FNDA:12,_ZN5boost17execution_monitor13catch_signalsERKNS_8functionIFivEEE
FN:1281,_ZN5boost17execution_monitorC2Ev
FNDA:2,_ZN5boost17execution_monitorC2Ev
FN:1292,_ZN5boost17execution_monitor7executeERKNS_8functionIFivEEE
FNDA:12,_ZN5boost17execution_monitor7executeERKNS_8functionIFivEEE
FN:1386,_ZN5boost6detail7forwardC2ERKNS_8functionIFvvEEE
FNDA:12,_ZN5boost6detail7forwardC2ERKNS_8functionIFvvEEE
FN:1388,_ZN5boost6detail7forwardclEv
FNDA:12,_ZN5boost6detail7forwardclEv
FN:1395,_ZN5boost17execution_monitor8vexecuteERKNS_8functionIFvvEEE
FNDA:12,_ZN5boost17execution_monitor8vexecuteERKNS_8functionIFvvEEE
FN:1404,_ZN5boost12system_errorC2EPKc
FNDA:0,_ZN5boost12system_errorC2EPKc
FN:1419,_ZN5boost19execution_exceptionC2ENS0_10error_codeENS_9unit_test13basic_cstringIKcEERKNS0_8locationE
FNDA:0,_ZN5boost19execution_exceptionC2ENS0_10error_codeENS_9unit_test13basic_cstringIKcEERKNS0_8locationE
FN:1427,_ZN5boost19execution_exception8locationC2EPKcmS3_
FNDA:0,_ZN5boost19execution_exception8locationC2EPKcmS3_
FN:1433,_ZN5boost19execution_exception8locationC2ENS_9unit_test13basic_cstringIKcEEmPS4_
FNDA:0,_ZN5boost19execution_exception8locationC2ENS_9unit_test13basic_cstringIKcEEmPS4_
FN:1448,_ZN5boost3fpe6enableEj
FNDA:12,_ZN5boost3fpe6enableEj
FN:1485,_ZN5boost3fpe7disableEj
FNDA:12,_ZN5boost3fpe7disableEj
DA:240,0
DA:242,0
DA:243,0
DA:245,0
DA:247,0
DA:240,0
DA:242,0
DA:243,0
DA:245,0
DA:247,0
DA:240,0
DA:242,0
DA:243,0
DA:245,0
DA:247,0
DA:254,0
DA:259,0
DA:260,0
DA:262,0
DA:264,0
DA:273,0
DA:276,0
DA:278,0
DA:279,0
DA:287,0
DA:290,0
DA:292,0
DA:293,0
DA:299,12
DA:301,12
DA:307,12
DA:308,12
DA:311,12
DA:312,12
DA:313,0
DA:314,12
DA:315,12
DA:317,12
DA:318,0
DA:319,12
DA:320,12
DA:321,12
DA:335,0
DA:337,0
DA:335,0
DA:337,0
DA:335,0
DA:337,0
DA:335,0
DA:337,0
DA:335,0
DA:337,0
DA:335,0
DA:337,0
DA:335,0
DA:337,0
DA:335,0
DA:337,0
DA:335,0
DA:337,0
DA:335,0
DA:337,0
DA:335,0
DA:337,0
DA:335,0
DA:337,0
DA:335,0
DA:337,0
DA:335,0
DA:337,0
DA:358,12
DA:359,12
DA:360,12
DA:361,12
DA:364,0
DA:366,0
DA:367,0
DA:368,0
DA:380,0
DA:382,0
DA:383,0
DA:385,0
DA:391,0
DA:392,0
DA:394,0
DA:395,0
DA:397,0
DA:398,0
DA:400,0
DA:401,0
DA:402,0
DA:404,0
DA:407,0
DA:408,0
DA:410,0
DA:413,0
DA:414,0
DA:416,0
DA:418,0
DA:419,0
DA:422,0
DA:423,0
DA:424,0
DA:426,0
DA:427,0
DA:429,0
DA:430,0
DA:431,0
DA:432,0
DA:434,0
DA:435,0
DA:436,0
DA:437,0
DA:439,0
DA:440,0
DA:441,0
DA:442,0
DA:444,0
DA:445,0
DA:447,0
DA:448,0
DA:450,0
DA:451,0
DA:452,0
DA:453,0
DA:455,0
DA:456,0
DA:457,0
DA:458,0
DA:460,0
DA:461,0
DA:462,0
DA:463,0
DA:465,0
DA:466,0
DA:467,0
DA:468,0
DA:470,0
DA:471,0
DA:473,0
DA:475,0
DA:476,0
DA:477,0
DA:478,0
DA:480,0
DA:481,0
DA:482,0
DA:483,0
DA:485,0
DA:486,0
DA:487,0
DA:488,0
DA:490,0
DA:491,0
DA:492,0
DA:493,0
DA:495,0
DA:496,0
DA:497,0
DA:498,0
DA:500,0
DA:501,0
DA:502,0
DA:503,0
DA:505,0
DA:506,0
DA:507,0
DA:508,0
DA:510,0
DA:511,0
DA:512,0
DA:513,0
DA:515,0
DA:516,0
DA:517,0
DA:518,0
DA:520,0
DA:521,0
DA:523,0
DA:525,0
DA:526,0
DA:528,0
DA:529,0
DA:531,0
DA:532,0
DA:533,0
DA:534,0
DA:536,0
DA:537,0
DA:539,0
DA:540,0
DA:542,0
DA:543,0
DA:545,0
DA:547,0
DA:548,0
DA:550,0
DA:551,0
DA:553,0
DA:554,0
DA:555,0
DA:556,0
DA:558,0
DA:559,0
DA:560,0
DA:561,0
DA:563,0
DA:564,0
DA:566,0
DA:567,0
DA:569,0
DA:570,0
DA:572,0
DA:576,0
DA:577,0
DA:579,0
DA:580,0
DA:582,0
DA:583,0
DA:584,0
DA:585,0
DA:587,0
DA:588,0
DA:589,0
DA:590,0
DA:592,0
DA:593,0
DA:594,0
DA:595,0
DA:597,0
DA:598,0
DA:599,0
DA:600,0
DA:602,0
DA:603,0
DA:612,0
DA:613,0
DA:615,0
DA:616,0
DA:618,0
DA:622,0
DA:623,0
DA:625,0
DA:627,0
DA:628,0
DA:630,0
DA:632,0
DA:633,0
DA:634,0
DA:668,12
DA:669,12
DA:670,12
DA:674,84
DA:675,84
DA:676,84
DA:678,84
DA:679,12
DA:681,72
DA:683,72
DA:685,72
DA:686,0
DA:687,0
DA:690,72
DA:691,72
DA:693,72
DA:696,72
DA:697,72
DA:700,72
DA:705,96
DA:707,96
DA:708,72
DA:709,96
DA:730,12
DA:732,12
DA:734,12
DA:737,0
DA:739,0
DA:741,0
DA:771,12
DA:775,12
DA:776,12
DA:777,12
DA:778,12
DA:779,12
DA:780,12
DA:781,12
DA:783,12
DA:785,12
DA:786,24
DA:788,12
DA:790,12
DA:791,0
DA:792,0
DA:796,12
DA:798,12
DA:800,12
DA:802,12
DA:803,12
DA:804,12
DA:805,12
DA:806,12
DA:810,12
DA:814,12
DA:816,12
DA:818,12
DA:819,0
DA:826,12
DA:831,12
DA:832,12
DA:833,12
DA:834,0
DA:835,0
DA:836,0
DA:837,0
DA:841,12
DA:842,12
DA:852,0
DA:854,0
DA:856,0
DA:861,0
DA:863,0
DA:864,0
DA:867,0
DA:868,0
DA:881,12
DA:890,12
DA:891,2
DA:897,12
DA:900,24
DA:902,12
DA:903,24
DA:905,0
DA:906,12
DA:1281,2
DA:1282,2
DA:1283,2
DA:1284,2
DA:1285,2
DA:1286,2
DA:1287,2
DA:1292,12
DA:1294,12
DA:1295,0
DA:1298,12
DA:1301,12
DA:1302,12
DA:1311,0
DA:1312,0
DA:1313,0
DA:1314,0
DA:1315,0
DA:1316,0
DA:1319,0
DA:1320,0
DA:1322,0
DA:1341,0
DA:1342,0
DA:1343,0
DA:1344,0
DA:1345,0
DA:1346,0
DA:1347,0
DA:1348,0
DA:1349,0
DA:1350,0
DA:1351,0
DA:1352,0
DA:1353,0
DA:1354,0
DA:1358,0
DA:1359,0
DA:1360,0
DA:1361,0
DA:1362,0
DA:1365,0
DA:1366,0
DA:1369,0
DA:1370,0
DA:1373,0
DA:1374,0
DA:1378,0
DA:1386,12
DA:1388,12
DA:1395,12
DA:1397,12
DA:1398,12
DA:1404,0
DA:1408,0
DA:1410,0
DA:1411,0
DA:1419,0
DA:1420,0
DA:1421,0
DA:1422,0
DA:1423,0
DA:1427,0
DA:1428,0
DA:1429,0
DA:1430,0
DA:1431,0
DA:1433,0
DA:1434,0
DA:1435,0
DA:1436,0
DA:1437,0
DA:1448,12
DA:1473,12
DA:1474,12
DA:1475,12
DA:1485,12
DA:1509,12
DA:1510,12
DA:1511,12
end_of_record
SF:/usr/include/c++/11/bits/stl_algobase.h
FN:230,_ZSt3minImERKT_S2_S2_
FNDA:1502,_ZSt3minImERKT_S2_S2_
FN:230,_ZSt3minIN5boost9unit_test9log_levelEERKT_S5_S5_
FNDA:3,_ZSt3minIN5boost9unit_test9log_levelEERKT_S5_S5_
FN:230,_ZSt3minIN5boost9unit_test19unit_test_monitor_t11error_levelEERKT_S6_S6_
FNDA:9,_ZSt3minIN5boost9unit_test19unit_test_monitor_t11error_levelEERKT_S6_S6_
FN:254,_ZSt3maxImERKT_S2_S2_
FNDA:750,_ZSt3maxImERKT_S2_S2_
FN:313,_ZSt12__niter_baseISt16ostream_iteratorINSt7__cxx1112basic_stringIcSt11char_traitsIcESaIcEEEcS4_EET_S8_
FNDA:0,_ZSt12__niter_baseISt16ostream_iteratorINSt7__cxx1112basic_stringIcSt11char_traitsIcESaIcEEEcS4_EET_S8_
FN:313,_ZSt12__niter_baseISt23_Rb_tree_const_iteratorINSt7__cxx1112basic_stringIcSt11char_traitsIcESaIcEEEEET_S8_
FNDA:0,_ZSt12__niter_baseISt23_Rb_tree_const_iteratorINSt7__cxx1112basic_stringIcSt11char_traitsIcESaIcEEEEET_S8_
FN:313,_ZSt12__niter_baseIPN5boost9unit_test6output10junit_impl16junit_log_helper15assertion_entryEET_S7_
FNDA:0,_ZSt12__niter_baseIPN5boost9unit_test6output10junit_impl16junit_log_helper15assertion_entryEET_S7_
FN:313,_ZSt12__niter_baseIPN5boost10shared_ptrINS0_9unit_test9decorator4baseEEEET_S7_
FNDA:0,_ZSt12__niter_baseIPN5boost10shared_ptrINS0_9unit_test9decorator4baseEEEET_S7_
FN:313,_ZSt12__niter_baseIPSt6vectorIN5boost10shared_ptrINS1_9unit_test9decorator4baseEEESaIS6_EEET_SA_
FNDA:0,_ZSt12__niter_baseIPSt6vectorIN5boost10shared_ptrINS1_9unit_test9decorator4baseEEESaIS6_EEET_SA_
FN:313,_ZSt12__niter_baseIPKcET_S2_
FNDA:744,_ZSt12__niter_baseIPKcET_S2_
FN:313,_ZSt12__niter_baseIPmET_S1_
FNDA:30,_ZSt12__niter_baseIPmET_S1_
FN:313,_ZSt12__niter_baseIPNSt7__cxx1112basic_stringIcSt11char_traitsIcESaIcEEEET_S7_
FNDA:0,_ZSt12__niter_baseIPNSt7__cxx1112basic_stringIcSt11char_traitsIcESaIcEEEET_S7_
FN:313,_ZSt12__niter_baseIPPN5boost9unit_test10test_suiteEET_S5_
FNDA:12,_ZSt12__niter_baseIPPN5boost9unit_test10test_suiteEET_S5_
FN:313,_ZSt12__niter_baseIPN5boost10shared_ptrINS0_9unit_test17test_unit_fixtureEEEET_S6_
FNDA:0,_ZSt12__niter_baseIPN5boost10shared_ptrINS0_9unit_test17test_unit_fixtureEEEET_S6_
FN:313,_ZSt12__niter_baseIPSt4pairIPKcPKN5boost9unit_test12lazy_ostreamEEET_SA_
FNDA:0,_ZSt12__niter_baseIPSt4pairIPKcPKN5boost9unit_test12lazy_ostreamEEET_SA_
FN:313,_ZSt12__niter_baseIPcET_S1_
FNDA:0,_ZSt12__niter_baseIPcET_S1_
FN:313,_ZSt12__niter_baseIPSt4pairIN5boost10shared_ptrINS1_9unit_test19test_unit_generatorEEESt6vectorINS2_INS3_9decorator4baseEEESaIS9_EEEET_SE_
FNDA:0,_ZSt12__niter_baseIPSt4pairIN5boost10shared_ptrINS1_9unit_test19test_unit_generatorEEESt6vectorINS2_INS3_9decorator4baseEEESaIS9_EEEET_SE_
FN:313,_ZSt12__niter_baseIPN5boost17reference_wrapperIKNS0_7runtime16parameter_cla_idEEEET_S7_
FNDA:3894,_ZSt12__niter_baseIPN5boost17reference_wrapperIKNS0_7runtime16parameter_cla_idEEEET_S7_
FN:313,_ZSt12__niter_baseIPN5boost10shared_ptrINS0_7runtime3cla13rt_cla_detail14parameter_trieEEEET_S8_
FNDA:0,_ZSt12__niter_baseIPN5boost10shared_ptrINS0_7runtime3cla13rt_cla_detail14parameter_trieEEEET_S8_
FN:313,_ZSt12__niter_baseIPN5boost7runtime16parameter_cla_idEET_S4_
FNDA:426,_ZSt12__niter_baseIPN5boost7runtime16parameter_cla_idEET_S4_
FN:313,_ZSt12__niter_baseIPN5boost9unit_test12_GLOBAL__N_130unit_test_log_data_helper_implEET_S5_
FNDA:18,_ZSt12__niter_baseIPN5boost9unit_test12_GLOBAL__N_130unit_test_log_data_helper_implEET_S5_
FN:313,_ZSt12__niter_baseIPSt6vectorIN5boost9unit_test9framework4impl11name_filter9componentESaIS6_EEET_SA_
FNDA:0,_ZSt12__niter_baseIPSt6vectorIN5boost9unit_test9framework4impl11name_filter9componentESaIS6_EEET_SA_
FN:313,_ZSt12__niter_baseIPN5boost9unit_test9framework5state13context_frameEET_S6_
FNDA:0,_ZSt12__niter_baseIPN5boost9unit_test9framework5state13context_frameEET_S6_
FN:313,_ZSt12__niter_baseIPPN5boost9unit_test12_GLOBAL__N_130unit_test_log_data_helper_implEET_S6_
FNDA:6,_ZSt12__niter_baseIPPN5boost9unit_test12_GLOBAL__N_130unit_test_log_data_helper_implEET_S6_
FN:328,_ZSt12__niter_wrapIN9__gnu_cxx17__normal_iteratorIPSt6vectorIN5boost10shared_ptrINS3_9unit_test9decorator4baseEEESaIS8_EES2_ISA_SaISA_EEEESB_ET_SF_T0_
FNDA:0,_ZSt12__niter_wrapIN9__gnu_cxx17__normal_iteratorIPSt6vectorIN5boost10shared_ptrINS3_9unit_test9decorator4baseEEESaIS8_EES2_ISA_SaISA_EEEESB_ET_SF_T0_
FN:328,_ZSt12__niter_wrapIN9__gnu_cxx17__normal_iteratorIPN5boost9unit_test9framework5state13context_frameESt6vectorIS6_SaIS6_EEEES7_ET_SC_T0_
FNDA:0,_ZSt12__niter_wrapIN9__gnu_cxx17__normal_iteratorIPN5boost9unit_test9framework5state13context_frameESt6vectorIS6_SaIS6_EEEES7_ET_SC_T0_
FN:328,_ZSt12__niter_wrapIN9__gnu_cxx17__normal_iteratorIPmSt6vectorImSaImEEEES2_ET_S7_T0_
FNDA:0,_ZSt12__niter_wrapIN9__gnu_cxx17__normal_iteratorIPmSt6vectorImSaImEEEES2_ET_S7_T0_
FN:328,_ZSt12__niter_wrapIN9__gnu_cxx17__normal_iteratorIPN5boost9unit_test12_GLOBAL__N_130unit_test_log_data_helper_implESt6vectorIS5_SaIS5_EEEES6_ET_SB_T0_
FNDA:0,_ZSt12__niter_wrapIN9__gnu_cxx17__normal_iteratorIPN5boost9unit_test12_GLOBAL__N_130unit_test_log_data_helper_implESt6vectorIS5_SaIS5_EEEES6_ET_SB_T0_
FN:328,_ZSt12__niter_wrapIN9__gnu_cxx17__normal_iteratorIPN5boost10shared_ptrINS2_9unit_test9decorator4baseEEESt6vectorIS7_SaIS7_EEEES8_ET_SD_T0_
FNDA:0,_ZSt12__niter_wrapIN9__gnu_cxx17__normal_iteratorIPN5boost10shared_ptrINS2_9unit_test9decorator4baseEEESt6vectorIS7_SaIS7_EEEES8_ET_SD_T0_
FN:335,_ZSt12__niter_wrapIPN5boost10shared_ptrINS0_9unit_test9decorator4baseEEEET_RKS7_S7_
FNDA:0,_ZSt12__niter_wrapIPN5boost10shared_ptrINS0_9unit_test9decorator4baseEEEET_RKS7_S7_
FN:335,_ZSt12__niter_wrapISt16ostream_iteratorINSt7__cxx1112basic_stringIcSt11char_traitsIcESaIcEEEcS4_EET_RKS8_S8_
FNDA:0,_ZSt12__niter_wrapISt16ostream_iteratorINSt7__cxx1112basic_stringIcSt11char_traitsIcESaIcEEEcS4_EET_RKS8_S8_
FN:335,_ZSt12__niter_wrapIPSt6vectorIN5boost10shared_ptrINS1_9unit_test9decorator4baseEEESaIS6_EEET_RKSA_SA_
FNDA:0,_ZSt12__niter_wrapIPSt6vectorIN5boost10shared_ptrINS1_9unit_test9decorator4baseEEESaIS6_EEET_RKSA_SA_
FN:335,_ZSt12__niter_wrapIPN5boost10shared_ptrINS0_9unit_test17test_unit_fixtureEEEET_RKS6_S6_
FNDA:0,_ZSt12__niter_wrapIPN5boost10shared_ptrINS0_9unit_test17test_unit_fixtureEEEET_RKS6_S6_
FN:350,_ZNSt11__copy_moveILb0ELb0ESt26bidirectional_iterator_tagE8__copy_mISt23_Rb_tree_const_iteratorINSt7__cxx1112basic_stringIcSt11char_traitsIcESaIcEEEESt16ostream_iteratorIS9_cS7_EEET0_T_SE_SD_
FNDA:0,_ZNSt11__copy_moveILb0ELb0ESt26bidirectional_iterator_tagE8__copy_mISt23_Rb_tree_const_iteratorINSt7__cxx1112basic_stringIcSt11char_traitsIcESaIcEEEESt16ostream_iteratorIS9_cS7_EEET0_T_SE_SD_
FN:380,_ZNSt11__copy_moveILb0ELb0ESt26random_access_iterator_tagE8__copy_mIPN5boost10shared_ptrINS3_9unit_test9decorator4baseEEES9_EET0_T_SB_SA_
FNDA:0,_ZNSt11__copy_moveILb0ELb0ESt26random_access_iterator_tagE8__copy_mIPN5boost10shared_ptrINS3_9unit_test9decorator4baseEEES9_EET0_T_SB_SA_
FN:400,_ZNSt11__copy_moveILb1ELb0ESt26random_access_iterator_tagE8__copy_mIPN5boost9unit_test9framework5state13context_frameES8_EET0_T_SA_S9_
FNDA:0,_ZNSt11__copy_moveILb1ELb0ESt26random_access_iterator_tagE8__copy_mIPN5boost9unit_test9framework5state13context_frameES8_EET0_T_SA_S9_
FN:400,_ZNSt11__copy_moveILb1ELb0ESt26random_access_iterator_tagE8__copy_mIPN5boost9unit_test12_GLOBAL__N_130unit_test_log_data_helper_implES7_EET0_T_S9_S8_
FNDA:0,_ZNSt11__copy_moveILb1ELb0ESt26random_access_iterator_tagE8__copy_mIPN5boost9unit_test12_GLOBAL__N_130unit_test_log_data_helper_implES7_EET0_T_S9_S8_
FN:400,_ZNSt11__copy_moveILb1ELb0ESt26random_access_iterator_tagE8__copy_mIPSt6vectorIN5boost10shared_ptrINS4_9unit_test9decorator4baseEEESaIS9_EESC_EET0_T_SE_SD_
FNDA:0,_ZNSt11__copy_moveILb1ELb0ESt26random_access_iterator_tagE8__copy_mIPSt6vectorIN5boost10shared_ptrINS4_9unit_test9decorator4baseEEESaIS9_EESC_EET0_T_SE_SD_
FN:420,_ZNSt11__copy_moveILb1ELb1ESt26random_access_iterator_tagE8__copy_mImEEPT_PKS3_S6_S4_
FNDA:0,_ZNSt11__copy_moveILb1ELb1ESt26random_access_iterator_tagE8__copy_mImEEPT_PKS3_S6_S4_
FN:486,_ZSt14__copy_move_a2ILb1EPSt6vectorIN5boost10shared_ptrINS1_9unit_test9decorator4baseEEESaIS6_EES9_ET1_T0_SB_SA_
FNDA:0,_ZSt14__copy_move_a2ILb1EPSt6vectorIN5boost10shared_ptrINS1_9unit_test9decorator4baseEEESaIS6_EES9_ET1_T0_SB_SA_
FN:486,_ZSt14__copy_move_a2ILb0ESt23_Rb_tree_const_iteratorINSt7__cxx1112basic_stringIcSt11char_traitsIcESaIcEEEESt16ostream_iteratorIS6_cS4_EET1_T0_SB_SA_
FNDA:0,_ZSt14__copy_move_a2ILb0ESt23_Rb_tree_const_iteratorINSt7__cxx1112basic_stringIcSt11char_traitsIcESaIcEEEESt16ostream_iteratorIS6_cS4_EET1_T0_SB_SA_
FN:486,_ZSt14__copy_move_a2ILb1EPN5boost9unit_test9framework5state13context_frameES5_ET1_T0_S7_S6_
FNDA:0,_ZSt14__copy_move_a2ILb1EPN5boost9unit_test9framework5state13context_frameES5_ET1_T0_S7_S6_
FN:486,_ZSt14__copy_move_a2ILb0EPN5boost10shared_ptrINS0_9unit_test9decorator4baseEEES6_ET1_T0_S8_S7_
FNDA:0,_ZSt14__copy_move_a2ILb0EPN5boost10shared_ptrINS0_9unit_test9decorator4baseEEES6_ET1_T0_S8_S7_
FN:486,_ZSt14__copy_move_a2ILb1EPmS0_ET1_T0_S2_S1_
FNDA:0,_ZSt14__copy_move_a2ILb1EPmS0_ET1_T0_S2_S1_
FN:486,_ZSt14__copy_move_a2ILb1EPN5boost9unit_test12_GLOBAL__N_130unit_test_log_data_helper_implES4_ET1_T0_S6_S5_
FNDA:0,_ZSt14__copy_move_a2ILb1EPN5boost9unit_test12_GLOBAL__N_130unit_test_log_data_helper_implES4_ET1_T0_S6_S5_
FN:521,_ZSt14__copy_move_a1ILb0EPN5boost10shared_ptrINS0_9unit_test9decorator4baseEEES6_ET1_T0_S8_S7_
FNDA:0,_ZSt14__copy_move_a1ILb0EPN5boost10shared_ptrINS0_9unit_test9decorator4baseEEES6_ET1_T0_S8_S7_
FN:521,_ZSt14__copy_move_a1ILb1EPN5boost9unit_test12_GLOBAL__N_130unit_test_log_data_helper_implES4_ET1_T0_S6_S5_
FNDA:0,_ZSt14__copy_move_a1ILb1EPN5boost9unit_test12_GLOBAL__N_130unit_test_log_data_helper_implES4_ET1_T0_S6_S5_
FN:521,_ZSt14__copy_move_a1ILb1EPmS0_ET1_T0_S2_S1_
FNDA:0,_ZSt14__copy_move_a1ILb1EPmS0_ET1_T0_S2_S1_
FN:521,_ZSt14__copy_move_a1ILb1EPN5boost9unit_test9framework5state13context_frameES5_ET1_T0_S7_S6_
FNDA:0,_ZSt14__copy_move_a1ILb1EPN5boost9unit_test9framework5state13context_frameES5_ET1_T0_S7_S6_
FN:521,_ZSt14__copy_move_a1ILb0ESt23_Rb_tree_const_iteratorINSt7__cxx1112basic_stringIcSt11char_traitsIcESaIcEEEESt16ostream_iteratorIS6_cS4_EET1_T0_SB_SA_
FNDA:0,_ZSt14__copy_move_a1ILb0ESt23_Rb_tree_const_iteratorINSt7__cxx1112basic_stringIcSt11char_traitsIcESaIcEEEESt16ostream_iteratorIS6_cS4_EET1_T0_SB_SA_
FN:521,_ZSt14__copy_move_a1ILb1EPSt6vectorIN5boost10shared_ptrINS1_9unit_test9decorator4baseEEESaIS6_EES9_ET1_T0_SB_SA_
FNDA:0,_ZSt14__copy_move_a1ILb1EPSt6vectorIN5boost10shared_ptrINS1_9unit_test9decorator4baseEEESaIS6_EES9_ET1_T0_SB_SA_
FN:527,_ZSt13__copy_move_aILb1EN9__gnu_cxx17__normal_iteratorIPSt6vectorIN5boost10shared_ptrINS3_9unit_test9decorator4baseEEESaIS8_EES2_ISA_SaISA_EEEESE_ET1_T0_SG_SF_
FNDA:0,_ZSt13__copy_move_aILb1EN9__gnu_cxx17__normal_iteratorIPSt6vectorIN5boost10shared_ptrINS3_9unit_test9decorator4baseEEESaIS8_EES2_ISA_SaISA_EEEESE_ET1_T0_SG_SF_
FN:527,_ZSt13__copy_move_aILb1EN9__gnu_cxx17__normal_iteratorIPN5boost9unit_test12_GLOBAL__N_130unit_test_log_data_helper_implESt6vectorIS5_SaIS5_EEEESA_ET1_T0_SC_SB_
FNDA:0,_ZSt13__copy_move_aILb1EN9__gnu_cxx17__normal_iteratorIPN5boost9unit_test12_GLOBAL__N_130unit_test_log_data_helper_implESt6vectorIS5_SaIS5_EEEESA_ET1_T0_SC_SB_
FN:527,_ZSt13__copy_move_aILb1EN9__gnu_cxx17__normal_iteratorIPmSt6vectorImSaImEEEES6_ET1_T0_S8_S7_
FNDA:0,_ZSt13__copy_move_aILb1EN9__gnu_cxx17__normal_iteratorIPmSt6vectorImSaImEEEES6_ET1_T0_S8_S7_
FN:527,_ZSt13__copy_move_aILb1EN9__gnu_cxx17__normal_iteratorIPN5boost9unit_test9framework5state13context_frameESt6vectorIS6_SaIS6_EEEESB_ET1_T0_SD_SC_
FNDA:0,_ZSt13__copy_move_aILb1EN9__gnu_cxx17__normal_iteratorIPN5boost9unit_test9framework5state13context_frameESt6vectorIS6_SaIS6_EEEESB_ET1_T0_SD_SC_
FN:527,_ZSt13__copy_move_aILb0EN9__gnu_cxx17__normal_iteratorIPN5boost10shared_ptrINS2_9unit_test9decorator4baseEEESt6vectorIS7_SaIS7_EEEESC_ET1_T0_SE_SD_
FNDA:0,_ZSt13__copy_move_aILb0EN9__gnu_cxx17__normal_iteratorIPN5boost10shared_ptrINS2_9unit_test9decorator4baseEEESt6vectorIS7_SaIS7_EEEESC_ET1_T0_SE_SD_
FN:527,_ZSt13__copy_move_aILb0ESt23_Rb_tree_const_iteratorINSt7__cxx1112basic_stringIcSt11char_traitsIcESaIcEEEESt16ostream_iteratorIS6_cS4_EET1_T0_SB_SA_
FNDA:0,_ZSt13__copy_move_aILb0ESt23_Rb_tree_const_iteratorINSt7__cxx1112basic_stringIcSt11char_traitsIcESaIcEEEESt16ostream_iteratorIS6_cS4_EET1_T0_SB_SA_
FN:611,_ZSt4copyISt23_Rb_tree_const_iteratorINSt7__cxx1112basic_stringIcSt11char_traitsIcESaIcEEEESt16ostream_iteratorIS6_cS4_EET0_T_SB_SA_
FNDA:0,_ZSt4copyISt23_Rb_tree_const_iteratorINSt7__cxx1112basic_stringIcSt11char_traitsIcESaIcEEEESt16ostream_iteratorIS6_cS4_EET0_T_SB_SA_
FN:611,_ZSt4copyIN9__gnu_cxx17__normal_iteratorIPN5boost10shared_ptrINS2_9unit_test9decorator4baseEEESt6vectorIS7_SaIS7_EEEESC_ET0_T_SE_SD_
FNDA:0,_ZSt4copyIN9__gnu_cxx17__normal_iteratorIPN5boost10shared_ptrINS2_9unit_test9decorator4baseEEESt6vectorIS7_SaIS7_EEEESC_ET0_T_SE_SD_
FN:644,_ZSt4moveIN9__gnu_cxx17__normal_iteratorIPN5boost9unit_test12_GLOBAL__N_130unit_test_log_data_helper_implESt6vectorIS5_SaIS5_EEEESA_ET0_T_SC_SB_
FNDA:0,_ZSt4moveIN9__gnu_cxx17__normal_iteratorIPN5boost9unit_test12_GLOBAL__N_130unit_test_log_data_helper_implESt6vectorIS5_SaIS5_EEEESA_ET0_T_SC_SB_
FN:644,_ZSt4moveIN9__gnu_cxx17__normal_iteratorIPmSt6vectorImSaImEEEES6_ET0_T_S8_S7_
FNDA:0,_ZSt4moveIN9__gnu_cxx17__normal_iteratorIPmSt6vectorImSaImEEEES6_ET0_T_S8_S7_
FN:644,_ZSt4moveIN9__gnu_cxx17__normal_iteratorIPN5boost9unit_test9framework5state13context_frameESt6vectorIS6_SaIS6_EEEESB_ET0_T_SD_SC_
FNDA:0,_ZSt4moveIN9__gnu_cxx17__normal_iteratorIPN5boost9unit_test9framework5state13context_frameESt6vectorIS6_SaIS6_EEEESB_ET0_T_SD_SC_
FN:644,_ZSt4moveIN9__gnu_cxx17__normal_iteratorIPSt6vectorIN5boost10shared_ptrINS3_9unit_test9decorator4baseEEESaIS8_EES2_ISA_SaISA_EEEESE_ET0_T_SG_SF_
FNDA:0,_ZSt4moveIN9__gnu_cxx17__normal_iteratorIPSt6vectorIN5boost10shared_ptrINS3_9unit_test9decorator4baseEEESaIS8_EES2_ISA_SaISA_EEEESE_ET0_T_SG_SF_
FN:714,_ZNSt20__copy_move_backwardILb1ELb0ESt26random_access_iterator_tagE13__copy_move_bIPSt6vectorIN5boost10shared_ptrINS4_9unit_test9decorator4baseEEESaIS9_EESC_EET0_T_SE_SD_
FNDA:0,_ZNSt20__copy_move_backwardILb1ELb0ESt26random_access_iterator_tagE13__copy_move_bIPSt6vectorIN5boost10shared_ptrINS4_9unit_test9decorator4baseEEESaIS9_EESC_EET0_T_SE_SD_
FN:714,_ZNSt20__copy_move_backwardILb1ELb0ESt26random_access_iterator_tagE13__copy_move_bIPN5boost10shared_ptrINS3_9unit_test17test_unit_fixtureEEES8_EET0_T_SA_S9_
FNDA:0,_ZNSt20__copy_move_backwardILb1ELb0ESt26random_access_iterator_tagE13__copy_move_bIPN5boost10shared_ptrINS3_9unit_test17test_unit_fixtureEEES8_EET0_T_SA_S9_
FN:714,_ZNSt20__copy_move_backwardILb1ELb0ESt26random_access_iterator_tagE13__copy_move_bIPN5boost10shared_ptrINS3_9unit_test9decorator4baseEEES9_EET0_T_SB_SA_
FNDA:0,_ZNSt20__copy_move_backwardILb1ELb0ESt26random_access_iterator_tagE13__copy_move_bIPN5boost10shared_ptrINS3_9unit_test9decorator4baseEEES9_EET0_T_SB_SA_
FN:750,_ZSt23__copy_move_backward_a2ILb1EPN5boost10shared_ptrINS0_9unit_test17test_unit_fixtureEEES5_ET1_T0_S7_S6_
FNDA:0,_ZSt23__copy_move_backward_a2ILb1EPN5boost10shared_ptrINS0_9unit_test17test_unit_fixtureEEES5_ET1_T0_S7_S6_
FN:750,_ZSt23__copy_move_backward_a2ILb1EPSt6vectorIN5boost10shared_ptrINS1_9unit_test9decorator4baseEEESaIS6_EES9_ET1_T0_SB_SA_
FNDA:0,_ZSt23__copy_move_backward_a2ILb1EPSt6vectorIN5boost10shared_ptrINS1_9unit_test9decorator4baseEEESaIS6_EES9_ET1_T0_SB_SA_
FN:750,_ZSt23__copy_move_backward_a2ILb1EPN5boost10shared_ptrINS0_9unit_test9decorator4baseEEES6_ET1_T0_S8_S7_
FNDA:0,_ZSt23__copy_move_backward_a2ILb1EPN5boost10shared_ptrINS0_9unit_test9decorator4baseEEES6_ET1_T0_S8_S7_
FN:768,_ZSt23__copy_move_backward_a1ILb1EPN5boost10shared_ptrINS0_9unit_test17test_unit_fixtureEEES5_ET1_T0_S7_S6_
FNDA:0,_ZSt23__copy_move_backward_a1ILb1EPN5boost10shared_ptrINS0_9unit_test17test_unit_fixtureEEES5_ET1_T0_S7_S6_
FN:768,_ZSt23__copy_move_backward_a1ILb1EPSt6vectorIN5boost10shared_ptrINS1_9unit_test9decorator4baseEEESaIS6_EES9_ET1_T0_SB_SA_
FNDA:0,_ZSt23__copy_move_backward_a1ILb1EPSt6vectorIN5boost10shared_ptrINS1_9unit_test9decorator4baseEEESaIS6_EES9_ET1_T0_SB_SA_
FN:768,_ZSt23__copy_move_backward_a1ILb1EPN5boost10shared_ptrINS0_9unit_test9decorator4baseEEES6_ET1_T0_S8_S7_
FNDA:0,_ZSt23__copy_move_backward_a1ILb1EPN5boost10shared_ptrINS0_9unit_test9decorator4baseEEES6_ET1_T0_S8_S7_
FN:796,_ZSt22__copy_move_backward_aILb1EPN5boost10shared_ptrINS0_9unit_test9decorator4baseEEES6_ET1_T0_S8_S7_
FNDA:0,_ZSt22__copy_move_backward_aILb1EPN5boost10shared_ptrINS0_9unit_test9decorator4baseEEES6_ET1_T0_S8_S7_
FN:796,_ZSt22__copy_move_backward_aILb1EPSt6vectorIN5boost10shared_ptrINS1_9unit_test9decorator4baseEEESaIS6_EES9_ET1_T0_SB_SA_
FNDA:0,_ZSt22__copy_move_backward_aILb1EPSt6vectorIN5boost10shared_ptrINS1_9unit_test9decorator4baseEEESaIS6_EES9_ET1_T0_SB_SA_
FN:796,_ZSt22__copy_move_backward_aILb1EPN5boost10shared_ptrINS0_9unit_test17test_unit_fixtureEEES5_ET1_T0_S7_S6_
FNDA:0,_ZSt22__copy_move_backward_aILb1EPN5boost10shared_ptrINS0_9unit_test17test_unit_fixtureEEES5_ET1_T0_S7_S6_
FN:884,_ZSt13move_backwardIPN5boost10shared_ptrINS0_9unit_test17test_unit_fixtureEEES5_ET0_T_S7_S6_
FNDA:0,_ZSt13move_backwardIPN5boost10shared_ptrINS0_9unit_test17test_unit_fixtureEEES5_ET0_T_S7_S6_
FN:884,_ZSt13move_backwardIPSt6vectorIN5boost10shared_ptrINS1_9unit_test9decorator4baseEEESaIS6_EES9_ET0_T_SB_SA_
FNDA:0,_ZSt13move_backwardIPSt6vectorIN5boost10shared_ptrINS1_9unit_test9decorator4baseEEESaIS6_EES9_ET0_T_SB_SA_
FN:884,_ZSt13move_backwardIPN5boost10shared_ptrINS0_9unit_test9decorator4baseEEES6_ET0_T_S8_S7_
FNDA:0,_ZSt13move_backwardIPN5boost10shared_ptrINS0_9unit_test9decorator4baseEEES6_ET0_T_S8_S7_
FN:1264,_ZNSt8__lc_raiISt26random_access_iterator_tagS0_E10__newlast1IPKcS4_EET_S5_S5_T0_S6_
FNDA:186,_ZNSt8__lc_raiISt26random_access_iterator_tagS0_E10__newlast1IPKcS4_EET_S5_S5_T0_S6_
FN:1276,_ZNSt8__lc_raiISt26random_access_iterator_tagS0_E6__cnd2IPKcEEbT_S5_
FNDA:382,_ZNSt8__lc_raiISt26random_access_iterator_tagS0_E6__cnd2IPKcEEbT_S5_
FN:1283,_ZSt30__lexicographical_compare_implIPKcS1_N9__gnu_cxx5__ops15_Iter_less_iterEEbT_S5_T0_S6_T1_
FNDA:186,_ZSt30__lexicographical_compare_implIPKcS1_N9__gnu_cxx5__ops15_Iter_less_iterEEbT_S5_T0_S6_T1_
FN:1309,_ZNSt25__lexicographical_compareILb0EE4__lcIPKcS3_EEbT_S4_T0_S5_
FNDA:186,_ZNSt25__lexicographical_compareILb0EE4__lcIPKcS3_EEbT_S4_T0_S5_
FN:1365,_ZSt30__lexicographical_compare_aux1IPKcS1_EbT_S2_T0_S3_
FNDA:186,_ZSt30__lexicographical_compare_aux1IPKcS1_EbT_S2_T0_S3_
FN:1414,_ZSt29__lexicographical_compare_auxIPKcS1_EbT_S2_T0_S3_
FNDA:186,_ZSt29__lexicographical_compare_auxIPKcS1_EbT_S2_T0_S3_
FN:1732,_ZSt23lexicographical_compareIPKcS1_EbT_S2_T0_S3_
FNDA:186,_ZSt23lexicographical_compareIPKcS1_EbT_S2_T0_S3_
FN:2061,_ZSt9__find_ifIN9__gnu_cxx17__normal_iteratorIPmSt6vectorImSaImEEEENS0_5__ops16_Iter_equals_valIKmEEET_SB_SB_T0_St26random_access_iterator_tag
FNDA:0,_ZSt9__find_ifIN9__gnu_cxx17__normal_iteratorIPmSt6vectorImSaImEEEENS0_5__ops16_Iter_equals_valIKmEEET_SB_SB_T0_St26random_access_iterator_tag
FN:2061,_ZSt9__find_ifIPKcN9__gnu_cxx5__ops16_Iter_equals_valIS0_EEET_S6_S6_T0_St26random_access_iterator_tag
FNDA:11,_ZSt9__find_ifIPKcN9__gnu_cxx5__ops16_Iter_equals_valIS0_EEET_S6_S6_T0_St26random_access_iterator_tag
FN:2061,_ZSt9__find_ifIN9__gnu_cxx17__normal_iteratorIPcNSt7__cxx1112basic_stringIcSt11char_traitsIcESaIcEEEEENS0_5__ops16_Iter_equals_valIKcEEET_SE_SE_T0_St26random_access_iterator_tag
FNDA:0,_ZSt9__find_ifIN9__gnu_cxx17__normal_iteratorIPcNSt7__cxx1112basic_stringIcSt11char_traitsIcESaIcEEEEENS0_5__ops16_Iter_equals_valIKcEEET_SE_SE_T0_St26random_access_iterator_tag
FN:2061,_ZSt9__find_ifIN9__gnu_cxx17__normal_iteratorIPKN5boost9unit_test9framework4impl11name_filter9componentESt6vectorIS7_SaIS7_EEEENS0_5__ops10_Iter_predINS2_3_bi6bind_tIbNS2_4_mfi4cmf1IbS7_RKNS3_9test_unitEEENSG_5list2INS2_3argILi1EEENS2_17reference_wrapperISL_EEEEEEEEET_SW_SW_T0_St26random_access_iterator_tag
FNDA:0,_ZSt9__find_ifIN9__gnu_cxx17__normal_iteratorIPKN5boost9unit_test9framework4impl11name_filter9componentESt6vectorIS7_SaIS7_EEEENS0_5__ops10_Iter_predINS2_3_bi6bind_tIbNS2_4_mfi4cmf1IbS7_RKNS3_9test_unitEEENSG_5list2INS2_3argILi1EEENS2_17reference_wrapperISL_EEEEEEEEET_SW_SW_T0_St26random_access_iterator_tag
FN:2061,_ZSt9__find_ifIN9__gnu_cxx17__normal_iteratorIPN5boost9unit_test9framework5state13context_frameESt6vectorIS6_SaIS6_EEEENS0_5__ops10_Iter_predINS4_13frame_with_idEEEET_SG_SG_T0_St26random_access_iterator_tag
FNDA:0,_ZSt9__find_ifIN9__gnu_cxx17__normal_iteratorIPN5boost9unit_test9framework5state13context_frameESt6vectorIS6_SaIS6_EEEENS0_5__ops10_Iter_predINS4_13frame_with_idEEEET_SG_SG_T0_St26random_access_iterator_tag
FN:2061,_ZSt9__find_ifIN9__gnu_cxx17__normal_iteratorIPKNSt7__cxx1112basic_stringIcSt11char_traitsIcESaIcEEESt6vectorIS7_SaIS7_EEEENS0_5__ops16_Iter_equals_valIKN5boost9unit_test13basic_cstringIKcEEEEET_SN_SN_T0_St26random_access_iterator_tag
FNDA:0,_ZSt9__find_ifIN9__gnu_cxx17__normal_iteratorIPKNSt7__cxx1112basic_stringIcSt11char_traitsIcESaIcEEESt6vectorIS7_SaIS7_EEEENS0_5__ops16_Iter_equals_valIKN5boost9unit_test13basic_cstringIKcEEEEET_SN_SN_T0_St26random_access_iterator_tag
FN:2112,_ZSt9__find_ifIN9__gnu_cxx17__normal_iteratorIPKNSt7__cxx1112basic_stringIcSt11char_traitsIcESaIcEEESt6vectorIS7_SaIS7_EEEENS0_5__ops16_Iter_equals_valIKN5boost9unit_test13basic_cstringIKcEEEEET_SN_SN_T0_
FNDA:0,_ZSt9__find_ifIN9__gnu_cxx17__normal_iteratorIPKNSt7__cxx1112basic_stringIcSt11char_traitsIcESaIcEEESt6vectorIS7_SaIS7_EEEENS0_5__ops16_Iter_equals_valIKN5boost9unit_test13basic_cstringIKcEEEEET_SN_SN_T0_
FN:2112,_ZSt9__find_ifIN9__gnu_cxx17__normal_iteratorIPN5boost9unit_test9framework5state13context_frameESt6vectorIS6_SaIS6_EEEENS0_5__ops10_Iter_predINS4_13frame_with_idEEEET_SG_SG_T0_
FNDA:0,_ZSt9__find_ifIN9__gnu_cxx17__normal_iteratorIPN5boost9unit_test9framework5state13context_frameESt6vectorIS6_SaIS6_EEEENS0_5__ops10_Iter_predINS4_13frame_with_idEEEET_SG_SG_T0_
FN:2112,_ZSt9__find_ifIN9__gnu_cxx17__normal_iteratorIPKN5boost9unit_test9framework4impl11name_filter9componentESt6vectorIS7_SaIS7_EEEENS0_5__ops10_Iter_predINS2_3_bi6bind_tIbNS2_4_mfi4cmf1IbS7_RKNS3_9test_unitEEENSG_5list2INS2_3argILi1EEENS2_17reference_wrapperISL_EEEEEEEEET_SW_SW_T0_
FNDA:0,_ZSt9__find_ifIN9__gnu_cxx17__normal_iteratorIPKN5boost9unit_test9framework4impl11name_filter9componentESt6vectorIS7_SaIS7_EEEENS0_5__ops10_Iter_predINS2_3_bi6bind_tIbNS2_4_mfi4cmf1IbS7_RKNS3_9test_unitEEENSG_5list2INS2_3argILi1EEENS2_17reference_wrapperISL_EEEEEEEEET_SW_SW_T0_
FN:2112,_ZSt9__find_ifIN9__gnu_cxx17__normal_iteratorIPmSt6vectorImSaImEEEENS0_5__ops16_Iter_equals_valIKmEEET_SB_SB_T0_
FNDA:0,_ZSt9__find_ifIN9__gnu_cxx17__normal_iteratorIPmSt6vectorImSaImEEEENS0_5__ops16_Iter_equals_valIKmEEET_SB_SB_T0_
FN:2112,_ZSt9__find_ifIN9__gnu_cxx17__normal_iteratorIPcNSt7__cxx1112basic_stringIcSt11char_traitsIcESaIcEEEEENS0_5__ops16_Iter_equals_valIKcEEET_SE_SE_T0_
FNDA:0,_ZSt9__find_ifIN9__gnu_cxx17__normal_iteratorIPcNSt7__cxx1112basic_stringIcSt11char_traitsIcESaIcEEEEENS0_5__ops16_Iter_equals_valIKcEEET_SE_SE_T0_
FN:2112,_ZSt9__find_ifIPKcN9__gnu_cxx5__ops16_Iter_equals_valIS0_EEET_S6_S6_T0_
FNDA:11,_ZSt9__find_ifIPKcN9__gnu_cxx5__ops16_Iter_equals_valIS0_EEET_S6_S6_T0_
FN:2121,_ZSt10__count_ifIN9__gnu_cxx17__normal_iteratorIPcNSt7__cxx1112basic_stringIcSt11char_traitsIcESaIcEEEEENS0_5__ops16_Iter_equals_valIKcEEENSt15iterator_traitsIT_E15difference_typeESF_SF_T0_
FNDA:0,_ZSt10__count_ifIN9__gnu_cxx17__normal_iteratorIPcNSt7__cxx1112basic_stringIcSt11char_traitsIcESaIcEEEEENS0_5__ops16_Iter_equals_valIKcEEENSt15iterator_traitsIT_E15difference_typeESF_SF_T0_
DA:230,3
DA:235,3
DA:236,2
DA:237,1
DA:230,9
DA:235,9
DA:236,0
DA:237,9
DA:230,1502
DA:235,1502
DA:236,0
DA:237,1502
DA:254,750
DA:259,750
DA:260,608
DA:261,142
DA:313,12
DA:315,12
DA:313,0
DA:315,0
DA:313,0
DA:315,0
DA:313,744
DA:315,744
DA:313,0
DA:315,0
DA:313,0
DA:315,0
DA:313,0
DA:315,0
DA:313,0
DA:315,0
DA:313,30
DA:315,30
DA:313,0
DA:315,0
DA:313,426
DA:315,426
DA:313,0
DA:315,0
DA:313,0
DA:315,0
DA:313,0
DA:315,0
DA:313,3894
DA:315,3894
DA:313,0
DA:315,0
DA:313,0
DA:315,0
DA:313,0
DA:315,0
DA:313,18
DA:315,18
DA:313,6
DA:315,6
DA:328,0
DA:329,0
DA:328,0
DA:329,0
DA:328,0
DA:329,0
DA:328,0
DA:329,0
DA:328,0
DA:329,0
DA:335,0
DA:336,0
DA:335,0
DA:336,0
DA:335,0
DA:336,0
DA:335,0
DA:336,0
DA:350,0
DA:352,0
DA:353,0
DA:354,0
DA:380,0
DA:383,0
DA:385,0
DA:386,0
DA:387,0
DA:389,0
DA:400,0
DA:403,0
DA:405,0
DA:406,0
DA:407,0
DA:409,0
DA:400,0
DA:403,0
DA:405,0
DA:406,0
DA:407,0
DA:409,0
DA:400,0
DA:403,0
DA:405,0
DA:406,0
DA:407,0
DA:409,0
DA:420,0
DA:429,0
DA:430,0
DA:431,0
DA:432,0
DA:486,0
DA:495,0
DA:486,0
DA:495,0
DA:486,0
DA:495,0
DA:486,0
DA:495,0
DA:486,0
DA:495,0
DA:486,0
DA:495,0
DA:521,0
DA:522,0
DA:521,0
DA:522,0
DA:521,0
DA:522,0
DA:521,0
DA:522,0
DA:521,0
DA:522,0
DA:521,0
DA:522,0
DA:527,0
DA:529,0
DA:532,0
DA:527,0
DA:529,0
DA:532,0
DA:527,0
DA:529,0
DA:532,0
DA:527,0
DA:529,0
DA:532,0
DA:527,0
DA:529,0
DA:532,0
DA:527,0
DA:532,0
DA:611,0
DA:620,0
DA:611,0
DA:620,0
DA:644,0
DA:652,0
DA:653,0
DA:644,0
DA:652,0
DA:653,0
DA:644,0
DA:652,0
DA:653,0
DA:644,0
DA:652,0
DA:653,0
DA:714,0
DA:717,0
DA:718,0
DA:719,0
DA:720,0
DA:714,0
DA:717,0
DA:718,0
DA:719,0
DA:720,0
DA:714,0
DA:717,0
DA:718,0
DA:719,0
DA:720,0
DA:750,0
DA:760,0
DA:762,0
DA:750,0
DA:760,0
DA:762,0
DA:750,0
DA:760,0
DA:762,0
DA:768,0
DA:769,0
DA:768,0
DA:769,0
DA:768,0
DA:769,0
DA:796,0
DA:798,0
DA:801,0
DA:796,0
DA:798,0
DA:801,0
DA:796,0
DA:798,0
DA:801,0
DA:884,0
DA:894,0
DA:896,0
DA:884,0
DA:894,0
DA:896,0
DA:884,0
DA:894,0
DA:896,0
DA:1264,186
DA:1268,186
DA:1270,186
DA:1271,186
DA:1276,382
DA:1277,382
DA:1283,186
DA:1291,186
DA:1292,382
DA:1293,196
DA:1295,382
DA:1296,33
DA:1297,349
DA:1298,153
DA:1300,0
DA:1309,186
DA:1312,186
DA:1314,372
DA:1365,186
DA:1370,186
DA:1383,186
DA:1384,186
DA:1414,186
DA:1417,186
DA:1420,186
DA:1732,186
DA:1747,186
DA:1748,186
DA:2061,11
DA:2065,11
DA:2067,11
DA:2069,0
DA:2070,0
DA:2071,0
DA:2073,0
DA:2074,0
DA:2075,0
DA:2077,0
DA:2078,0
DA:2079,0
DA:2081,0
DA:2082,0
DA:2083,0
DA:2086,11
DA:2088,0
DA:2089,0
DA:2090,0
DA:2091,0
DA:2093,11
DA:2094,11
DA:2095,0
DA:2096,11
DA:2098,11
DA:2099,11
DA:2100,1
DA:2101,10
DA:2103,10
DA:2105,10
DA:2061,0
DA:2065,0
DA:2067,0
DA:2069,0
DA:2070,0
DA:2071,0
DA:2073,0
DA:2074,0
DA:2075,0
DA:2077,0
DA:2078,0
DA:2079,0
DA:2081,0
DA:2082,0
DA:2083,0
DA:2086,0
DA:2088,0
DA:2089,0
DA:2090,0
DA:2091,0
DA:2093,0
DA:2094,0
DA:2095,0
DA:2096,0
DA:2098,0
DA:2099,0
DA:2100,0
DA:2101,0
DA:2103,0
DA:2105,0
DA:2061,0
DA:2065,0
DA:2067,0
DA:2069,0
DA:2070,0
DA:2071,0
DA:2073,0
DA:2074,0
DA:2075,0
DA:2077,0
DA:2078,0
DA:2079,0
DA:2081,0
DA:2082,0
DA:2083,0
DA:2086,0
DA:2088,0
DA:2089,0
DA:2090,0
DA:2091,0
DA:2093,0
DA:2094,0
DA:2095,0
DA:2096,0
DA:2098,0
DA:2099,0
DA:2100,0
DA:2101,0
DA:2103,0
DA:2105,0
DA:2061,0
DA:2065,0
DA:2067,0
DA:2069,0
DA:2070,0
DA:2071,0
DA:2073,0
DA:2074,0
DA:2075,0
DA:2077,0
DA:2078,0
DA:2079,0
DA:2081,0
DA:2082,0
DA:2083,0
DA:2086,0
DA:2088,0
DA:2089,0
DA:2090,0
DA:2091,0
DA:2093,0
DA:2094,0
DA:2095,0
DA:2096,0
DA:2098,0
DA:2099,0
DA:2100,0
DA:2101,0
DA:2103,0
DA:2105,0
DA:2061,0
DA:2065,0
DA:2067,0
DA:2069,0
DA:2070,0
DA:2071,0
DA:2073,0
DA:2074,0
DA:2075,0
DA:2077,0
DA:2078,0
DA:2079,0
DA:2081,0
DA:2082,0
DA:2083,0
DA:2086,0
DA:2088,0
DA:2089,0
DA:2090,0
DA:2091,0
DA:2093,0
DA:2094,0
DA:2095,0
DA:2096,0
DA:2098,0
DA:2099,0
DA:2100,0
DA:2101,0
DA:2103,0
DA:2105,0
DA:2061,0
DA:2065,0
DA:2067,0
DA:2069,0
DA:2070,0
DA:2071,0
DA:2073,0
DA:2074,0
DA:2075,0
DA:2077,0
DA:2078,0
DA:2079,0
DA:2081,0
DA:2082,0
DA:2083,0
DA:2086,0
DA:2088,0
DA:2089,0
DA:2090,0
DA:2091,0
DA:2093,0
DA:2094,0
DA:2095,0
DA:2096,0
DA:2098,0
DA:2099,0
DA:2100,0
DA:2101,0
DA:2103,0
DA:2105,0
DA:2112,11
DA:2114,11
DA:2115,22
DA:2112,0
DA:2114,0
DA:2115,0
DA:2112,0
DA:2114,0
DA:2115,0
DA:2112,0
DA:2114,0
DA:2115,0
DA:2112,0
DA:2114,0
DA:2115,0
DA:2112,0
DA:2114,0
DA:2115,0
DA:2121,0
DA:2123,0
DA:2124,0
DA:2125,0
DA:2126,0
DA:2127,0
end_of_record
SF:/usr/include/boost/test/output/junit_log_formatter.hpp
FN:49,_ZN5boost9unit_test6output10junit_impl16junit_log_helper15assertion_entryC2Ev
FNDA:0,_ZN5boost9unit_test6output10junit_impl16junit_log_helper15assertion_entryC2Ev
FN:70,_ZN5boost9unit_test6output10junit_impl16junit_log_helperC2Ev
FNDA:1,_ZN5boost9unit_test6output10junit_impl16junit_log_helperC2Ev
FN:73,_ZN5boost9unit_test6output10junit_impl16junit_log_helper5clearEv
FNDA:0,_ZN5boost9unit_test6output10junit_impl16junit_log_helper5clearEv
FN:92,_ZN5boost9unit_test6output19junit_log_formatterC2Ev
FNDA:1,_ZN5boost9unit_test6output19junit_log_formatterC2Ev
FN:126,_ZN5boost9unit_test6output19junit_log_formatter13set_log_levelENS0_9log_levelE
FNDA:2,_ZN5boost9unit_test6output19junit_log_formatter13set_log_levelENS0_9log_levelE
FN:147,_ZN5boost9unit_test6output19junit_log_formatter21get_current_log_entryEv
FNDA:0,_ZN5boost9unit_test6output19junit_log_formatter21get_current_log_entryEv
DA:49,0
DA:50,0
DA:70,1
DA:71,1
DA:73,0
DA:74,0
DA:75,0
DA:76,0
DA:77,0
DA:78,0
DA:79,0
DA:92,1
DA:97,1
DA:98,1
DA:99,1
DA:126,2
DA:128,2
DA:129,0
DA:130,2
DA:131,0
DA:133,2
DA:134,2
DA:147,0
DA:148,0
DA:149,0
DA:150,0
DA:151,0
end_of_record
SF:/usr/include/boost/exception/get_error_info.hpp
FN:61,_ZN5boost16exception_detail8get_infoINS_10error_infoINS_15throw_function_EPKcEEE3getERKNS_9exceptionE
FNDA:0,_ZN5boost16exception_detail8get_infoINS_10error_infoINS_15throw_function_EPKcEEE3getERKNS_9exceptionE
FN:73,_ZN5boost16exception_detail8get_infoINS_10error_infoINS_11throw_file_EPKcEEE3getERKNS_9exceptionE
FNDA:0,_ZN5boost16exception_detail8get_infoINS_10error_infoINS_11throw_file_EPKcEEE3getERKNS_9exceptionE
FN:85,_ZN5boost16exception_detail8get_infoINS_10error_infoINS_11throw_line_EiEEE3getERKNS_9exceptionE
FNDA:0,_ZN5boost16exception_detail8get_infoINS_10error_infoINS_11throw_line_EiEEE3getERKNS_9exceptionE
FN:125,_ZN5boost14get_error_infoINS_10error_infoINS_15throw_function_EPKcEEKNS_9exceptionEEENS_16exception_detail26get_error_info_return_typeIT0_NT_10value_typeEE4typeERSA_
FNDA:0,_ZN5boost14get_error_infoINS_10error_infoINS_15throw_function_EPKcEEKNS_9exceptionEEENS_16exception_detail26get_error_info_return_typeIT0_NT_10value_typeEE4typeERSA_
FN:125,_ZN5boost14get_error_infoINS_10error_infoINS_11throw_line_EiEEKNS_9exceptionEEENS_16exception_detail26get_error_info_return_typeIT0_NT_10value_typeEE4typeERS8_
FNDA:0,_ZN5boost14get_error_infoINS_10error_infoINS_11throw_line_EiEEKNS_9exceptionEEENS_16exception_detail26get_error_info_return_typeIT0_NT_10value_typeEE4typeERS8_
FN:125,_ZN5boost14get_error_infoINS_10error_infoINS_11throw_file_EPKcEEKNS_9exceptionEEENS_16exception_detail26get_error_info_return_typeIT0_NT_10value_typeEE4typeERSA_
FNDA:0,_ZN5boost14get_error_infoINS_10error_infoINS_11throw_file_EPKcEEKNS_9exceptionEEENS_16exception_detail26get_error_info_return_typeIT0_NT_10value_typeEE4typeERSA_
DA:61,0
DA:63,0
DA:73,0
DA:75,0
DA:85,0
DA:87,0
DA:125,0
DA:127,0
DA:128,0
DA:130,0
DA:125,0
DA:127,0
DA:128,0
DA:130,0
DA:125,0
DA:127,0
DA:128,0
DA:130,0
end_of_record
SF:/usr/include/c++/11/bits/stl_iterator_base_types.h
FN:238,_ZSt19__iterator_categoryIPcENSt15iterator_traitsIT_E17iterator_categoryERKS2_
FNDA:0,_ZSt19__iterator_categoryIPcENSt15iterator_traitsIT_E17iterator_categoryERKS2_
FN:238,_ZSt19__iterator_categoryIN9__gnu_cxx17__normal_iteratorIPcNSt7__cxx1112basic_stringIcSt11char_traitsIcESaIcEEEEEENSt15iterator_traitsIT_E17iterator_categoryERKSB_
FNDA:0,_ZSt19__iterator_categoryIN9__gnu_cxx17__normal_iteratorIPcNSt7__cxx1112basic_stringIcSt11char_traitsIcESaIcEEEEEENSt15iterator_traitsIT_E17iterator_categoryERKSB_
FN:238,_ZSt19__iterator_categoryIN9__gnu_cxx17__normal_iteratorIPmSt6vectorImSaImEEEEENSt15iterator_traitsIT_E17iterator_categoryERKS8_
FNDA:0,_ZSt19__iterator_categoryIN9__gnu_cxx17__normal_iteratorIPmSt6vectorImSaImEEEEENSt15iterator_traitsIT_E17iterator_categoryERKS8_
FN:238,_ZSt19__iterator_categoryIN9__gnu_cxx17__normal_iteratorIPKNSt7__cxx1112basic_stringIcSt11char_traitsIcESaIcEEESt6vectorIS7_SaIS7_EEEEENSt15iterator_traitsIT_E17iterator_categoryERKSF_
FNDA:0,_ZSt19__iterator_categoryIN9__gnu_cxx17__normal_iteratorIPKNSt7__cxx1112basic_stringIcSt11char_traitsIcESaIcEEESt6vectorIS7_SaIS7_EEEEENSt15iterator_traitsIT_E17iterator_categoryERKSF_
FN:238,_ZSt19__iterator_categoryIN9__gnu_cxx17__normal_iteratorIPN5boost9unit_test9framework5state13context_frameESt6vectorIS6_SaIS6_EEEEENSt15iterator_traitsIT_E17iterator_categoryERKSD_
FNDA:0,_ZSt19__iterator_categoryIN9__gnu_cxx17__normal_iteratorIPN5boost9unit_test9framework5state13context_frameESt6vectorIS6_SaIS6_EEEEENSt15iterator_traitsIT_E17iterator_categoryERKSD_
FN:238,_ZSt19__iterator_categoryIN9__gnu_cxx17__normal_iteratorIPKN5boost9unit_test9framework4impl11name_filter9componentESt6vectorIS7_SaIS7_EEEEENSt15iterator_traitsIT_E17iterator_categoryERKSF_
FNDA:0,_ZSt19__iterator_categoryIN9__gnu_cxx17__normal_iteratorIPKN5boost9unit_test9framework4impl11name_filter9componentESt6vectorIS7_SaIS7_EEEEENSt15iterator_traitsIT_E17iterator_categoryERKSF_
FN:238,_ZSt19__iterator_categoryIN9__gnu_cxx17__normal_iteratorIPN5boost10shared_ptrINS2_9unit_test9decorator4baseEEESt6vectorIS7_SaIS7_EEEEENSt15iterator_traitsIT_E17iterator_categoryERKSE_
FNDA:9,_ZSt19__iterator_categoryIN9__gnu_cxx17__normal_iteratorIPN5boost10shared_ptrINS2_9unit_test9decorator4baseEEESt6vectorIS7_SaIS7_EEEEENSt15iterator_traitsIT_E17iterator_categoryERKSE_
FN:238,_ZSt19__iterator_categoryIPKcENSt15iterator_traitsIT_E17iterator_categoryERKS3_
FNDA:324,_ZSt19__iterator_categoryIPKcENSt15iterator_traitsIT_E17iterator_categoryERKS3_
FN:238,_ZSt19__iterator_categoryIN9__gnu_cxx17__normal_iteratorIPN5boost10shared_ptrINS2_9unit_test17test_unit_fixtureEEESt6vectorIS6_SaIS6_EEEEENSt15iterator_traitsIT_E17iterator_categoryERKSD_
FNDA:2,_ZSt19__iterator_categoryIN9__gnu_cxx17__normal_iteratorIPN5boost10shared_ptrINS2_9unit_test17test_unit_fixtureEEESt6vectorIS6_SaIS6_EEEEENSt15iterator_traitsIT_E17iterator_categoryERKSD_
FN:238,_ZSt19__iterator_categoryIN5boost9unit_test5utils27basic_string_token_iteratorIcNS2_9ut_detail20default_char_compareIcEEEEENSt15iterator_traitsIT_E17iterator_categoryERKS9_
FNDA:0,_ZSt19__iterator_categoryIN5boost9unit_test5utils27basic_string_token_iteratorIcNS2_9ut_detail20default_char_compareIcEEEEENSt15iterator_traitsIT_E17iterator_categoryERKS9_
DA:238,0
DA:239,0
DA:238,0
DA:239,0
DA:238,0
DA:239,0
DA:238,0
DA:239,0
DA:238,0
DA:239,0
DA:238,0
DA:239,0
DA:238,9
DA:239,9
DA:238,324
DA:239,324
DA:238,2
DA:239,2
DA:238,0
DA:239,0
end_of_record
SF:/usr/include/boost/test/framework.hpp
FN:159,_ZN5boost9unit_test9framework17context_generatorC2Ev
FNDA:0,_ZN5boost9unit_test9framework17context_generatorC2Ev
FN:228,_ZN5boost9unit_test9framework3getINS0_10test_suiteEEERT_m
FNDA:9,_ZN5boost9unit_test9framework3getINS0_10test_suiteEEERT_m
FN:228,_ZN5boost9unit_test9framework3getINS0_9test_unitEEERT_m
FNDA:1,_ZN5boost9unit_test9framework3getINS0_9test_unitEEERT_m
FN:228,_ZN5boost9unit_test9framework3getINS0_9test_caseEEERT_m
FNDA:40,_ZN5boost9unit_test9framework3getINS0_9test_caseEEERT_m
FN:279,_ZN5boost9unit_test9framework14internal_errorC2ENS0_13basic_cstringIKcEE
FNDA:0,_ZN5boost9unit_test9framework14internal_errorC2ENS0_13basic_cstringIKcEE
FN:286,_ZN5boost9unit_test9framework11setup_errorC2ENS0_13basic_cstringIKcEE
FNDA:0,_ZN5boost9unit_test9framework11setup_errorC2ENS0_13basic_cstringIKcEE
FN:294,_ZN5boost9unit_test9framework15nothing_to_testC2Ei
FNDA:0,_ZN5boost9unit_test9framework15nothing_to_testC2Ei
DA:159,0
DA:228,9
DA:230,9
DA:228,1
DA:230,1
DA:228,40
DA:230,40
DA:279,0
DA:286,0
DA:294,0
end_of_record
SF:/usr/include/boost/test/utils/runtime/finalize.hpp
FN:31,_ZN5boost7runtime18finalize_argumentsERKNS0_16parameters_storeERNS0_15arguments_storeE
FNDA:1,_ZN5boost7runtime18finalize_argumentsERKNS0_16parameters_storeERNS0_15arguments_storeE
DA:31,1
DA:33,57
DA:34,28
DA:36,28
DA:37,28
DA:38,23
DA:40,28
DA:41,5
DA:46,28
DA:47,0
DA:48,28
DA:49,1
end_of_record
SF:/usr/include/boost/test/impl/unit_test_parameters.ipp
FN:108,_ZN5boost9unit_test14runtime_config12_GLOBAL__N_119register_parametersERNS_7runtime16parameters_storeE
FNDA:1,_ZN5boost9unit_test14runtime_config12_GLOBAL__N_119register_parametersERNS_7runtime16parameters_storeE
FN:133,_ZZN5boost9unit_test14runtime_config12_GLOBAL__N_119register_parametersERNS_7runtime16parameters_storeEENKUlNS0_13basic_cstringIKcEEE_clES8_
FNDA:0,_ZZN5boost9unit_test14runtime_config12_GLOBAL__N_119register_parametersERNS_7runtime16parameters_storeEENKUlNS0_13basic_cstringIKcEEE_clES8_
FN:657,_ZN5boost9unit_test14runtime_config4initERiPPc
FNDA:1,_ZN5boost9unit_test14runtime_config4initERiPPc
FN:750,_ZN5boost9unit_test14runtime_config14argument_storeEv
FNDA:69,_ZN5boost9unit_test14runtime_config14argument_storeEv
FN:758,_ZN5boost9unit_test14runtime_config12save_patternEv
FNDA:0,_ZN5boost9unit_test14runtime_config12save_patternEv
DA:108,1
DA:111,2
DA:112,2
DA:114,1
DA:120,1
DA:122,1
DA:123,1
DA:124,1
DA:129,2
DA:130,1
DA:132,1
DA:133,1
DA:134,0
DA:137,1
DA:139,1
DA:140,1
DA:145,2
DA:146,2
DA:147,1
DA:149,1
DA:151,1
DA:152,1
DA:153,1
DA:158,2
DA:159,2
DA:160,1
DA:164,1
DA:166,2
DA:174,1
DA:176,1
DA:177,1
DA:178,1
DA:183,2
DA:184,2
DA:185,2
DA:186,1
DA:188,1
DA:190,1
DA:191,1
DA:192,1
DA:197,2
DA:198,2
DA:199,1
DA:201,1
DA:203,1
DA:204,1
DA:209,2
DA:210,2
DA:211,2
DA:212,2
DA:213,2
DA:214,1
DA:220,1
DA:222,1
DA:223,1
DA:228,2
DA:229,2
DA:230,2
DA:231,2
DA:232,1
DA:235,1
DA:236,1
DA:237,1
DA:244,1
DA:249,1
DA:250,1
DA:251,1
DA:256,2
DA:257,2
DA:258,2
DA:260,1
DA:262,1
DA:263,1
DA:268,2
DA:269,2
DA:270,2
DA:271,1
DA:274,1
DA:275,1
DA:276,1
DA:277,1
DA:278,1
DA:287,1
DA:293,1
DA:295,1
DA:296,1
DA:297,1
DA:302,2
DA:303,2
DA:304,2
DA:305,1
DA:308,1
DA:309,1
DA:310,1
DA:311,1
DA:312,1
DA:313,1
DA:314,1
DA:315,1
DA:316,1
DA:317,1
DA:318,1
DA:319,1
DA:335,1
DA:341,1
DA:343,1
DA:344,1
DA:345,1
DA:350,2
DA:351,2
DA:352,2
DA:353,1
DA:357,1
DA:359,1
DA:360,1
DA:361,1
DA:366,2
DA:367,2
DA:368,1
DA:371,1
DA:372,1
DA:373,1
DA:374,1
DA:382,3
DA:383,2
DA:388,1
DA:390,1
DA:391,1
DA:392,1
DA:397,2
DA:398,2
DA:399,2
DA:400,1
DA:401,2
DA:402,2
DA:405,1
DA:407,1
DA:408,1
DA:413,1
DA:414,1
DA:415,2
DA:416,2
DA:417,2
DA:418,2
DA:419,1
DA:427,1
DA:429,1
DA:430,1
DA:435,2
DA:436,2
DA:437,2
DA:438,1
DA:441,1
DA:442,1
DA:443,1
DA:444,1
DA:452,1
DA:458,1
DA:460,1
DA:461,1
DA:462,1
DA:467,2
DA:468,2
DA:469,2
DA:470,1
DA:473,1
DA:474,1
DA:475,1
DA:476,1
DA:477,1
DA:486,1
DA:489,1
DA:491,1
DA:492,1
DA:493,1
DA:498,2
DA:499,2
DA:500,2
DA:501,2
DA:502,2
DA:505,1
DA:507,1
DA:508,1
DA:513,2
DA:514,2
DA:515,2
DA:516,1
DA:521,1
DA:523,1
DA:524,1
DA:525,1
DA:530,2
DA:531,2
DA:532,2
DA:533,2
DA:536,1
DA:538,1
DA:539,1
DA:540,1
DA:545,2
DA:546,2
DA:547,2
DA:548,1
DA:553,2
DA:555,1
DA:557,1
DA:558,1
DA:559,1
DA:564,2
DA:565,2
DA:566,2
DA:570,1
DA:572,1
DA:573,1
DA:578,2
DA:579,2
DA:580,1
DA:582,1
DA:584,1
DA:585,1
DA:586,1
DA:591,2
DA:592,2
DA:593,2
DA:594,1
DA:597,1
DA:599,1
DA:600,1
DA:605,2
DA:606,2
DA:607,1
DA:610,1
DA:612,1
DA:613,1
DA:614,1
DA:619,2
DA:620,2
DA:621,2
DA:622,1
DA:628,1
DA:629,1
DA:630,1
DA:635,1
DA:636,1
DA:637,1
DA:638,1
DA:643,1
DA:644,1
DA:645,1
DA:646,1
DA:647,1
DA:657,1
DA:659,1
DA:663,1
DA:664,1
DA:667,1
DA:670,1
DA:671,1
DA:674,1
DA:677,1
DA:680,1
DA:681,1
DA:682,1
DA:686,1
DA:687,0
DA:688,0
DA:690,1
DA:691,0
DA:692,0
DA:694,1
DA:695,0
DA:697,0
DA:699,0
DA:703,1
DA:704,0
DA:705,0
DA:706,0
DA:710,0
DA:711,0
DA:712,0
DA:713,0
DA:714,0
DA:716,0
DA:717,0
DA:719,0
DA:720,0
DA:721,0
DA:722,0
DA:724,0
DA:725,0
DA:727,0
DA:728,0
DA:730,0
DA:731,0
DA:732,0
DA:735,0
DA:736,0
DA:737,0
DA:738,0
DA:740,0
DA:741,0
DA:743,0
DA:744,0
DA:745,1
DA:750,69
DA:752,69
DA:758,0
DA:760,0
end_of_record
SF:/usr/include/boost/test/output/xml_report_formatter.hpp
end_of_record
SF:/usr/include/boost/test/debug.hpp
end_of_record
SF:/usr/include/c++/11/bits/allocator.h
FN:156,_ZNSaISt4pairIN5boost10shared_ptrINS0_9unit_test19test_unit_generatorEEESt6vectorINS1_INS2_9decorator4baseEEESaIS8_EEEEC2Ev
FNDA:2,_ZNSaISt4pairIN5boost10shared_ptrINS0_9unit_test19test_unit_generatorEEESt6vectorINS1_INS2_9decorator4baseEEESaIS8_EEEEC2Ev
FN:156,_ZNSaISt13_Rb_tree_nodeISt4pairIKN5boost9unit_test13basic_cstringIKcEENS1_10shared_ptrINS1_7runtime3cla13rt_cla_detail14parameter_trieEEEEEEC2Ev
FNDA:1,_ZNSaISt13_Rb_tree_nodeISt4pairIKN5boost9unit_test13basic_cstringIKcEENS1_10shared_ptrINS1_7runtime3cla13rt_cla_detail14parameter_trieEEEEEEC2Ev
FN:156,_ZNSaISt13_Rb_tree_nodeIPN5boost9unit_test13test_observerEEEC2Ev
FNDA:1,_ZNSaISt13_Rb_tree_nodeIPN5boost9unit_test13test_observerEEEC2Ev
FN:156,_ZNSaIN5boost9unit_test9framework5state13context_frameEEC2Ev
FNDA:1,_ZNSaIN5boost9unit_test9framework5state13context_frameEEC2Ev
FN:156,_ZNSaISt13_Rb_tree_nodeIPN5boost9unit_test14global_fixtureEEEC2Ev
FNDA:1,_ZNSaISt13_Rb_tree_nodeIPN5boost9unit_test14global_fixtureEEEC2Ev
FN:156,_ZNSaISt13_Rb_tree_nodeISt4pairIKN5boost9unit_test13output_formatENS2_14runtime_config13stream_holderEEEEC2Ev
FNDA:1,_ZNSaISt13_Rb_tree_nodeISt4pairIKN5boost9unit_test13output_formatENS2_14runtime_config13stream_holderEEEEC2Ev
FN:156,_ZNSaISt4pairIPKcPKN5boost9unit_test12lazy_ostreamEEEC2Ev
FNDA:0,_ZNSaISt4pairIPKcPKN5boost9unit_test12lazy_ostreamEEEC2Ev
FN:156,_ZNSaINSt7__cxx1112basic_stringIcSt11char_traitsIcESaIcEEEEC2Ev
FNDA:12,_ZNSaINSt7__cxx1112basic_stringIcSt11char_traitsIcESaIcEEEEC2Ev
FN:156,_ZNSaISt13_Rb_tree_nodeISt4pairIKmN5boost9unit_test9framework4impl10order_infoEEEEC2Ev
FNDA:1,_ZNSaISt13_Rb_tree_nodeISt4pairIKmN5boost9unit_test9framework4impl10order_infoEEEEC2Ev
FN:156,_ZNSaISt13_Rb_tree_nodeISt4pairIKN5boost16exception_detail10type_info_ENS1_10shared_ptrINS2_15error_info_baseEEEEEEC2Ev
FNDA:0,_ZNSaISt13_Rb_tree_nodeISt4pairIKN5boost16exception_detail10type_info_ENS1_10shared_ptrINS2_15error_info_baseEEEEEEC2Ev
FN:156,_ZNSaISt13_Rb_tree_nodeISt4pairIKmN5boost9unit_test12test_resultsEEEEC2Ev
FNDA:1,_ZNSaISt13_Rb_tree_nodeISt4pairIKmN5boost9unit_test12test_resultsEEEEC2Ev
FN:156,_ZNSaISt13_Rb_tree_nodeISt4pairIKmmEEEC2Ev
FNDA:2,_ZNSaISt13_Rb_tree_nodeISt4pairIKmmEEEC2Ev
FN:156,_ZNSaIN5boost8functionIFNS_10test_tools16assertion_resultEmEEEEC2Ev
FNDA:10,_ZNSaIN5boost8functionIFNS_10test_tools16assertion_resultEmEEEEC2Ev
FN:156,_ZNSaISt13_Rb_tree_nodeISt4pairIKN5boost9unit_test13basic_cstringIKcEENS1_10shared_ptrINS1_7runtime11basic_paramEEEEEEC2Ev
FNDA:1,_ZNSaISt13_Rb_tree_nodeISt4pairIKN5boost9unit_test13basic_cstringIKcEENS1_10shared_ptrINS1_7runtime11basic_paramEEEEEEC2Ev
FN:156,_ZNSaISt13_Rb_tree_nodeISt4pairIKN5boost9unit_test13basic_cstringIKcEENS1_10shared_ptrINS1_7runtime8argumentEEEEEEC2Ev
FNDA:1,_ZNSaISt13_Rb_tree_nodeISt4pairIKN5boost9unit_test13basic_cstringIKcEENS1_10shared_ptrINS1_7runtime8argumentEEEEEEC2Ev
FN:156,_ZNSaISt13_Rb_tree_nodeIPKN5boost7runtime16parameter_cla_idEEEC2Ev
FNDA:0,_ZNSaISt13_Rb_tree_nodeIPKN5boost7runtime16parameter_cla_idEEEC2Ev
FN:156,_ZNSaIN5boost9unit_test13basic_cstringIKcEEEC2Ev
FNDA:6,_ZNSaIN5boost9unit_test13basic_cstringIKcEEEC2Ev
FN:156,_ZNSaIN5boost10shared_ptrINS_7runtime3cla13rt_cla_detail14parameter_trieEEEEC2Ev
FNDA:0,_ZNSaIN5boost10shared_ptrINS_7runtime3cla13rt_cla_detail14parameter_trieEEEEC2Ev
FN:156,_ZNSaIN5boost17reference_wrapperIKNS_7runtime16parameter_cla_idEEEEC2Ev
FNDA:572,_ZNSaIN5boost17reference_wrapperIKNS_7runtime16parameter_cla_idEEEEC2Ev
FN:156,_ZNSaISt13_Rb_tree_nodeISt4pairIKcN5boost10shared_ptrINS2_7runtime3cla13rt_cla_detail14parameter_trieEEEEEEC2Ev
FNDA:572,_ZNSaISt13_Rb_tree_nodeISt4pairIKcN5boost10shared_ptrINS2_7runtime3cla13rt_cla_detail14parameter_trieEEEEEEC2Ev
FN:156,_ZNSaISt13_Rb_tree_nodeINSt7__cxx1112basic_stringIcSt11char_traitsIcESaIcEEEEEC2Ev
FNDA:2,_ZNSaISt13_Rb_tree_nodeINSt7__cxx1112basic_stringIcSt11char_traitsIcESaIcEEEEEC2Ev
FN:156,_ZNSaIPN5boost9unit_test12_GLOBAL__N_130unit_test_log_data_helper_implEEC2Ev
FNDA:1,_ZNSaIPN5boost9unit_test12_GLOBAL__N_130unit_test_log_data_helper_implEEC2Ev
FN:156,_ZNSaIN5boost9unit_test12_GLOBAL__N_130unit_test_log_data_helper_implEEC2Ev
FNDA:1,_ZNSaIN5boost9unit_test12_GLOBAL__N_130unit_test_log_data_helper_implEEC2Ev
FN:156,_ZNSaISt4pairIKN5boost9unit_test13basic_cstringIKcEENS1_12report_levelEEEC2Ev
FNDA:1,_ZNSaISt4pairIKN5boost9unit_test13basic_cstringIKcEENS1_12report_levelEEEC2Ev
FN:156,_ZNSaISt6vectorIN5boost10shared_ptrINS0_9unit_test9decorator4baseEEESaIS5_EEEC2Ev
FNDA:1,_ZNSaISt6vectorIN5boost10shared_ptrINS0_9unit_test9decorator4baseEEESaIS5_EEEC2Ev
FN:156,_ZNSaISt4pairIKcPS0_EEC2Ev
FNDA:0,_ZNSaISt4pairIKcPS0_EEC2Ev
FN:156,_ZNSaIN5boost9unit_test9framework4impl11name_filter9componentEEC2Ev
FNDA:0,_ZNSaIN5boost9unit_test9framework4impl11name_filter9componentEEC2Ev
FN:156,_ZNSaIN5boost10shared_ptrINS_9unit_test17test_unit_fixtureEEEEC2Ev
FNDA:11,_ZNSaIN5boost10shared_ptrINS_9unit_test17test_unit_fixtureEEEEC2Ev
FN:156,_ZNSaISt10_List_nodeINSt7__cxx1112basic_stringIcSt11char_traitsIcESaIcEEEEEC2Ev
FNDA:2,_ZNSaISt10_List_nodeINSt7__cxx1112basic_stringIcSt11char_traitsIcESaIcEEEEEC2Ev
FN:156,_ZNSaIN5boost9unit_test6output10junit_impl16junit_log_helper15assertion_entryEEC2Ev
FNDA:1,_ZNSaIN5boost9unit_test6output10junit_impl16junit_log_helper15assertion_entryEEC2Ev
FN:156,_ZNSaISt13_Rb_tree_nodeISt4pairIKmN5boost9unit_test6output10junit_impl16junit_log_helperEEEEC2Ev
FNDA:1,_ZNSaISt13_Rb_tree_nodeISt4pairIKmN5boost9unit_test6output10junit_impl16junit_log_helperEEEEC2Ev
FN:156,_ZNSaISt10_List_nodeImEEC2Ev
FNDA:1,_ZNSaISt10_List_nodeImEEC2Ev
FN:156,_ZNSaISt4pairIKN5boost9unit_test13basic_cstringIKcEENS1_9log_levelEEEC2Ev
FNDA:1,_ZNSaISt4pairIKN5boost9unit_test13basic_cstringIKcEENS1_9log_levelEEEC2Ev
FN:156,_ZNSaISt13_Rb_tree_nodeISt4pairIKNSt7__cxx1112basic_stringIcSt11char_traitsIcESaIcEEEN5boost8functionIFvRKNS8_5debug16dbg_startup_infoEEEEEEEC2Ev
FNDA:1,_ZNSaISt13_Rb_tree_nodeISt4pairIKNSt7__cxx1112basic_stringIcSt11char_traitsIcESaIcEEEN5boost8functionIFvRKNS8_5debug16dbg_startup_infoEEEEEEEC2Ev
FN:156,_ZNSaISt4pairIKN5boost9unit_test13basic_cstringIKcEENS1_13output_formatEEEC2Ev
FNDA:4,_ZNSaISt4pairIKN5boost9unit_test13basic_cstringIKcEENS1_13output_formatEEEC2Ev
FN:156,_ZNSaIN5boost7runtime16parameter_cla_idEEC2Ev
FNDA:28,_ZNSaIN5boost7runtime16parameter_cla_idEEC2Ev
FN:156,_ZNSaIN5boost10shared_ptrINS_9unit_test9decorator4baseEEEEC2Ev
FNDA:11,_ZNSaIN5boost10shared_ptrINS_9unit_test9decorator4baseEEEEC2Ev
FN:156,_ZNSaImEC2Ev
FNDA:23,_ZNSaImEC2Ev
FN:156,_ZNSaISt6vectorIN5boost9unit_test9framework4impl11name_filter9componentESaIS5_EEEC2Ev
FNDA:0,_ZNSaISt6vectorIN5boost9unit_test9framework4impl11name_filter9componentESaIS5_EEEC2Ev
FN:156,_ZNSaIPN5boost9unit_test10test_suiteEEC2Ev
FNDA:1,_ZNSaIPN5boost9unit_test10test_suiteEEC2Ev
FN:156,_ZNSaISt13_Rb_tree_nodeISt4pairIKmPN5boost9unit_test9test_unitEEEEC2Ev
FNDA:1,_ZNSaISt13_Rb_tree_nodeISt4pairIKmPN5boost9unit_test9test_unitEEEEC2Ev
FN:159,_ZNSaISt4pairIKcPS0_EEC2ERKS3_
FNDA:0,_ZNSaISt4pairIKcPS0_EEC2ERKS3_
FN:159,_ZNSaISt13_Rb_tree_nodeISt4pairIKN5boost9unit_test13basic_cstringIKcEENS2_9log_levelEEEEC2ERKSA_
FNDA:3,_ZNSaISt13_Rb_tree_nodeISt4pairIKN5boost9unit_test13basic_cstringIKcEENS2_9log_levelEEEEC2ERKSA_
FN:159,_ZNSaIN5boost9unit_test13basic_cstringIKcEEEC2ERKS4_
FNDA:12,_ZNSaIN5boost9unit_test13basic_cstringIKcEEEC2ERKS4_
FN:159,_ZNSaISt10_List_nodeINSt7__cxx1112basic_stringIcSt11char_traitsIcESaIcEEEEEC2ERKS7_
FNDA:0,_ZNSaISt10_List_nodeINSt7__cxx1112basic_stringIcSt11char_traitsIcESaIcEEEEEC2ERKS7_
FN:159,_ZNSaISt4pairIKN5boost9unit_test13basic_cstringIKcEENS1_9log_levelEEEC2ERKS8_
FNDA:1,_ZNSaISt4pairIKN5boost9unit_test13basic_cstringIKcEENS1_9log_levelEEEC2ERKS8_
FN:159,_ZNSaISt13_Rb_tree_nodeISt4pairIKN5boost9unit_test13basic_cstringIKcEENS2_13output_formatEEEEC2ERKSA_
FNDA:12,_ZNSaISt13_Rb_tree_nodeISt4pairIKN5boost9unit_test13basic_cstringIKcEENS2_13output_formatEEEEC2ERKSA_
FN:159,_ZNSaIN5boost7runtime16parameter_cla_idEEC2ERKS2_
FNDA:56,_ZNSaIN5boost7runtime16parameter_cla_idEEC2ERKS2_
FN:159,_ZNSaIN5boost10shared_ptrINS_9unit_test17test_unit_fixtureEEEEC2ERKS4_
FNDA:2,_ZNSaIN5boost10shared_ptrINS_9unit_test17test_unit_fixtureEEEEC2ERKS4_
FN:159,_ZNSaIN5boost9unit_test9framework4impl11name_filter9componentEEC2ERKS5_
FNDA:0,_ZNSaIN5boost9unit_test9framework4impl11name_filter9componentEEC2ERKS5_
FN:159,_ZNSaIN5boost9unit_test6output10junit_impl16junit_log_helper15assertion_entryEEC2ERKS5_
FNDA:0,_ZNSaIN5boost9unit_test6output10junit_impl16junit_log_helper15assertion_entryEEC2ERKS5_
FN:159,_ZNSaISt13_Rb_tree_nodeISt4pairIKcPS1_EEEC2ERKS5_
FNDA:0,_ZNSaISt13_Rb_tree_nodeISt4pairIKcPS1_EEEC2ERKS5_
FN:159,_ZNSaINSt7__cxx1112basic_stringIcSt11char_traitsIcESaIcEEEEC2ERKS5_
FNDA:4,_ZNSaINSt7__cxx1112basic_stringIcSt11char_traitsIcESaIcEEEEC2ERKS5_
FN:159,_ZNSaISt4pairIKN5boost9unit_test13basic_cstringIKcEENS1_13output_formatEEEC2ERKS8_
FNDA:4,_ZNSaISt4pairIKN5boost9unit_test13basic_cstringIKcEENS1_13output_formatEEEC2ERKS8_
FN:159,_ZNSaIN5boost10shared_ptrINS_9unit_test9decorator4baseEEEEC2ERKS5_
FNDA:0,_ZNSaIN5boost10shared_ptrINS_9unit_test9decorator4baseEEEEC2ERKS5_
FN:159,_ZNSaISt13_Rb_tree_nodeIPN5boost9unit_test13test_observerEEEC2ERKS5_
FNDA:2,_ZNSaISt13_Rb_tree_nodeIPN5boost9unit_test13test_observerEEEC2ERKS5_
FN:159,_ZNSaISt13_Rb_tree_nodeIPN5boost9unit_test14global_fixtureEEEC2ERKS5_
FNDA:2,_ZNSaISt13_Rb_tree_nodeIPN5boost9unit_test14global_fixtureEEEC2ERKS5_
FN:159,_ZNSaISt4pairIKN5boost9unit_test13basic_cstringIKcEENS1_12report_levelEEEC2ERKS8_
FNDA:1,_ZNSaISt4pairIKN5boost9unit_test13basic_cstringIKcEENS1_12report_levelEEEC2ERKS8_
FN:159,_ZNSaISt13_Rb_tree_nodeISt4pairIKN5boost9unit_test13basic_cstringIKcEENS2_12report_levelEEEEC2ERKSA_
FNDA:3,_ZNSaISt13_Rb_tree_nodeISt4pairIKN5boost9unit_test13basic_cstringIKcEENS2_12report_levelEEEEC2ERKSA_
FN:159,_ZNSaISt6vectorIN5boost10shared_ptrINS0_9unit_test9decorator4baseEEESaIS5_EEEC2ERKS8_
FNDA:2,_ZNSaISt6vectorIN5boost10shared_ptrINS0_9unit_test9decorator4baseEEESaIS5_EEEC2ERKS8_
FN:169,_ZNSaISt13_Rb_tree_nodeISt4pairIKN5boost9unit_test13basic_cstringIKcEENS2_12report_levelEEEEC2IS8_EERKSaIT_E
FNDA:1,_ZNSaISt13_Rb_tree_nodeISt4pairIKN5boost9unit_test13basic_cstringIKcEENS2_12report_levelEEEEC2IS8_EERKSaIT_E
FN:169,_ZNSaISt13_Rb_tree_nodeISt4pairIKN5boost9unit_test13basic_cstringIKcEENS2_9log_levelEEEEC2IS8_EERKSaIT_E
FNDA:1,_ZNSaISt13_Rb_tree_nodeISt4pairIKN5boost9unit_test13basic_cstringIKcEENS2_9log_levelEEEEC2IS8_EERKSaIT_E
FN:169,_ZNSaISt13_Rb_tree_nodeISt4pairIKN5boost9unit_test13basic_cstringIKcEENS2_13output_formatEEEEC2IS8_EERKSaIT_E
FNDA:4,_ZNSaISt13_Rb_tree_nodeISt4pairIKN5boost9unit_test13basic_cstringIKcEENS2_13output_formatEEEEC2IS8_EERKSaIT_E
FN:169,_ZNSaISt13_Rb_tree_nodeISt4pairIKcPS1_EEEC2IS3_EERKSaIT_E
FNDA:0,_ZNSaISt13_Rb_tree_nodeISt4pairIKcPS1_EEEC2IS3_EERKSaIT_E
FN:174,_ZNSaISt6vectorIN5boost10shared_ptrINS0_9unit_test9decorator4baseEEESaIS5_EEED2Ev
FNDA:3,_ZNSaISt6vectorIN5boost10shared_ptrINS0_9unit_test9decorator4baseEEESaIS5_EEED2Ev
FN:174,_ZNSaIN5boost9unit_test13basic_cstringIKcEEED2Ev
FNDA:18,_ZNSaIN5boost9unit_test13basic_cstringIKcEEED2Ev
FN:174,_ZNSaISt13_Rb_tree_nodeISt4pairIKmN5boost9unit_test9framework4impl10order_infoEEEED2Ev
FNDA:1,_ZNSaISt13_Rb_tree_nodeISt4pairIKmN5boost9unit_test9framework4impl10order_infoEEEED2Ev
FN:174,_ZNSaINSt7__cxx1112basic_stringIcSt11char_traitsIcESaIcEEEED2Ev
FNDA:16,_ZNSaINSt7__cxx1112basic_stringIcSt11char_traitsIcESaIcEEEED2Ev
FN:174,_ZNSaISt13_Rb_tree_nodeISt4pairIKN5boost9unit_test13output_formatENS2_14runtime_config13stream_holderEEEED2Ev
FNDA:1,_ZNSaISt13_Rb_tree_nodeISt4pairIKN5boost9unit_test13output_formatENS2_14runtime_config13stream_holderEEEED2Ev
FN:174,_ZNSaISt13_Rb_tree_nodeIPN5boost9unit_test14global_fixtureEEED2Ev
FNDA:3,_ZNSaISt13_Rb_tree_nodeIPN5boost9unit_test14global_fixtureEEED2Ev
FN:174,_ZNSaIN5boost9unit_test9framework5state13context_frameEED2Ev
FNDA:1,_ZNSaIN5boost9unit_test9framework5state13context_frameEED2Ev
FN:174,_ZNSaISt13_Rb_tree_nodeIPN5boost9unit_test13test_observerEEED2Ev
FNDA:3,_ZNSaISt13_Rb_tree_nodeIPN5boost9unit_test13test_observerEEED2Ev
FN:174,_ZNSaISt13_Rb_tree_nodeISt4pairIKmPN5boost9unit_test9test_unitEEEED2Ev
FNDA:1,_ZNSaISt13_Rb_tree_nodeISt4pairIKmPN5boost9unit_test9test_unitEEEED2Ev
FN:174,_ZNSaIPN5boost9unit_test10test_suiteEED2Ev
FNDA:1,_ZNSaIPN5boost9unit_test10test_suiteEED2Ev
FN:174,_ZNSaIN5boost9unit_test9framework4impl11name_filter9componentEED2Ev
FNDA:0,_ZNSaIN5boost9unit_test9framework4impl11name_filter9componentEED2Ev
FN:174,_ZNSaISt10_List_nodeImEED2Ev
FNDA:1,_ZNSaISt10_List_nodeImEED2Ev
FN:174,_ZNSaISt6vectorIN5boost9unit_test9framework4impl11name_filter9componentESaIS5_EEED2Ev
FNDA:0,_ZNSaISt6vectorIN5boost9unit_test9framework4impl11name_filter9componentESaIS5_EEED2Ev
FN:174,_ZNSaImED2Ev
FNDA:23,_ZNSaImED2Ev
FN:174,_ZNSaIN5boost10shared_ptrINS_9unit_test9decorator4baseEEEED2Ev
FNDA:11,_ZNSaIN5boost10shared_ptrINS_9unit_test9decorator4baseEEEED2Ev
FN:174,_ZNSaISt13_Rb_tree_nodeISt4pairIKNSt7__cxx1112basic_stringIcSt11char_traitsIcESaIcEEEN5boost8functionIFvRKNS8_5debug16dbg_startup_infoEEEEEEED2Ev
FNDA:1,_ZNSaISt13_Rb_tree_nodeISt4pairIKNSt7__cxx1112basic_stringIcSt11char_traitsIcESaIcEEEN5boost8functionIFvRKNS8_5debug16dbg_startup_infoEEEEEEED2Ev
FN:174,_ZNSaISt10_List_nodeINSt7__cxx1112basic_stringIcSt11char_traitsIcESaIcEEEEED2Ev
FNDA:2,_ZNSaISt10_List_nodeINSt7__cxx1112basic_stringIcSt11char_traitsIcESaIcEEEEED2Ev
FN:174,_ZNSaIN5boost9unit_test6output10junit_impl16junit_log_helper15assertion_entryEED2Ev
FNDA:1,_ZNSaIN5boost9unit_test6output10junit_impl16junit_log_helper15assertion_entryEED2Ev
FN:174,_ZNSaISt13_Rb_tree_nodeISt4pairIKmN5boost9unit_test6output10junit_impl16junit_log_helperEEEED2Ev
FNDA:1,_ZNSaISt13_Rb_tree_nodeISt4pairIKmN5boost9unit_test6output10junit_impl16junit_log_helperEEEED2Ev
FN:174,_ZNSaIN5boost9unit_test12_GLOBAL__N_130unit_test_log_data_helper_implEED2Ev
FNDA:1,_ZNSaIN5boost9unit_test12_GLOBAL__N_130unit_test_log_data_helper_implEED2Ev
FN:174,_ZNSaISt4pairIKcPS0_EED2Ev
FNDA:0,_ZNSaISt4pairIKcPS0_EED2Ev
FN:174,_ZNSaISt13_Rb_tree_nodeISt4pairIKN5boost9unit_test13basic_cstringIKcEENS1_10shared_ptrINS1_7runtime8argumentEEEEEED2Ev
FNDA:1,_ZNSaISt13_Rb_tree_nodeISt4pairIKN5boost9unit_test13basic_cstringIKcEENS1_10shared_ptrINS1_7runtime8argumentEEEEEED2Ev
FN:174,_ZNSaISt13_Rb_tree_nodeISt4pairIKN5boost9unit_test13basic_cstringIKcEENS1_10shared_ptrINS1_7runtime3cla13rt_cla_detail14parameter_trieEEEEEED2Ev
FNDA:1,_ZNSaISt13_Rb_tree_nodeISt4pairIKN5boost9unit_test13basic_cstringIKcEENS1_10shared_ptrINS1_7runtime3cla13rt_cla_detail14parameter_trieEEEEEED2Ev
FN:174,_ZNSaISt4pairIPKcPKN5boost9unit_test12lazy_ostreamEEED2Ev
FNDA:0,_ZNSaISt4pairIPKcPKN5boost9unit_test12lazy_ostreamEEED2Ev
FN:174,_ZNSaIN5boost8functionIFNS_10test_tools16assertion_resultEmEEEED2Ev
FNDA:10,_ZNSaIN5boost8functionIFNS_10test_tools16assertion_resultEmEEEED2Ev
FN:174,_ZNSaISt13_Rb_tree_nodeISt4pairIKN5boost9unit_test13basic_cstringIKcEENS2_13output_formatEEEED2Ev
FNDA:16,_ZNSaISt13_Rb_tree_nodeISt4pairIKN5boost9unit_test13basic_cstringIKcEENS2_13output_formatEEEED2Ev
FN:174,_ZNSaISt13_Rb_tree_nodeISt4pairIKN5boost9unit_test13basic_cstringIKcEENS2_9log_levelEEEED2Ev
FNDA:4,_ZNSaISt13_Rb_tree_nodeISt4pairIKN5boost9unit_test13basic_cstringIKcEENS2_9log_levelEEEED2Ev
FN:174,_ZNSaISt13_Rb_tree_nodeISt4pairIKN5boost9unit_test13basic_cstringIKcEENS2_12report_levelEEEED2Ev
FNDA:4,_ZNSaISt13_Rb_tree_nodeISt4pairIKN5boost9unit_test13basic_cstringIKcEENS2_12report_levelEEEED2Ev
FN:174,_ZNSaISt4pairIKN5boost9unit_test13basic_cstringIKcEENS1_13output_formatEEED2Ev
FNDA:8,_ZNSaISt4pairIKN5boost9unit_test13basic_cstringIKcEENS1_13output_formatEEED2Ev
FN:174,_ZNSaISt13_Rb_tree_nodeISt4pairIKcPS1_EEED2Ev
FNDA:0,_ZNSaISt13_Rb_tree_nodeISt4pairIKcPS1_EEED2Ev
FN:174,_ZNSaISt4pairIKN5boost9unit_test13basic_cstringIKcEENS1_9log_levelEEED2Ev
FNDA:2,_ZNSaISt4pairIKN5boost9unit_test13basic_cstringIKcEENS1_9log_levelEEED2Ev
FN:174,_ZNSaISt4pairIKN5boost9unit_test13basic_cstringIKcEENS1_12report_levelEEED2Ev
FNDA:2,_ZNSaISt4pairIKN5boost9unit_test13basic_cstringIKcEENS1_12report_levelEEED2Ev
FN:174,_ZNSaISt13_Rb_tree_nodeISt4pairIKN5boost9unit_test13basic_cstringIKcEENS1_10shared_ptrINS1_7runtime11basic_paramEEEEEED2Ev
FNDA:1,_ZNSaISt13_Rb_tree_nodeISt4pairIKN5boost9unit_test13basic_cstringIKcEENS1_10shared_ptrINS1_7runtime11basic_paramEEEEEED2Ev
FN:174,_ZNSaIN5boost10shared_ptrINS_9unit_test17test_unit_fixtureEEEED2Ev
FNDA:13,_ZNSaIN5boost10shared_ptrINS_9unit_test17test_unit_fixtureEEEED2Ev
FN:174,_ZNSaISt13_Rb_tree_nodeIPKN5boost7runtime16parameter_cla_idEEED2Ev
FNDA:0,_ZNSaISt13_Rb_tree_nodeIPKN5boost7runtime16parameter_cla_idEEED2Ev
FN:174,_ZNSaIN5boost10shared_ptrINS_7runtime3cla13rt_cla_detail14parameter_trieEEEED2Ev
FNDA:0,_ZNSaIN5boost10shared_ptrINS_7runtime3cla13rt_cla_detail14parameter_trieEEEED2Ev
FN:174,_ZNSaIN5boost17reference_wrapperIKNS_7runtime16parameter_cla_idEEEED2Ev
FNDA:572,_ZNSaIN5boost17reference_wrapperIKNS_7runtime16parameter_cla_idEEEED2Ev
FN:174,_ZNSaISt13_Rb_tree_nodeISt4pairIKcN5boost10shared_ptrINS2_7runtime3cla13rt_cla_detail14parameter_trieEEEEEED2Ev
FNDA:572,_ZNSaISt13_Rb_tree_nodeISt4pairIKcN5boost10shared_ptrINS2_7runtime3cla13rt_cla_detail14parameter_trieEEEEEED2Ev
FN:174,_ZNSaIPN5boost9unit_test12_GLOBAL__N_130unit_test_log_data_helper_implEED2Ev
FNDA:1,_ZNSaIPN5boost9unit_test12_GLOBAL__N_130unit_test_log_data_helper_implEED2Ev
FN:174,_ZNSaIN5boost7runtime16parameter_cla_idEED2Ev
FNDA:84,_ZNSaIN5boost7runtime16parameter_cla_idEED2Ev
FN:174,_ZNSaISt13_Rb_tree_nodeINSt7__cxx1112basic_stringIcSt11char_traitsIcESaIcEEEEED2Ev
FNDA:2,_ZNSaISt13_Rb_tree_nodeINSt7__cxx1112basic_stringIcSt11char_traitsIcESaIcEEEEED2Ev
FN:174,_ZNSaISt4pairIN5boost10shared_ptrINS0_9unit_test19test_unit_generatorEEESt6vectorINS1_INS2_9decorator4baseEEESaIS8_EEEED2Ev
FNDA:2,_ZNSaISt4pairIN5boost10shared_ptrINS0_9unit_test19test_unit_generatorEEESt6vectorINS1_INS2_9decorator4baseEEESaIS8_EEEED2Ev
FN:174,_ZNSaISt13_Rb_tree_nodeISt4pairIKmmEEED2Ev
FNDA:2,_ZNSaISt13_Rb_tree_nodeISt4pairIKmmEEED2Ev
FN:174,_ZNSaISt13_Rb_tree_nodeISt4pairIKmN5boost9unit_test12test_resultsEEEED2Ev
FNDA:1,_ZNSaISt13_Rb_tree_nodeISt4pairIKmN5boost9unit_test12test_resultsEEEED2Ev
FN:174,_ZNSaISt13_Rb_tree_nodeISt4pairIKN5boost16exception_detail10type_info_ENS1_10shared_ptrINS2_15error_info_baseEEEEEED2Ev
FNDA:0,_ZNSaISt13_Rb_tree_nodeISt4pairIKN5boost16exception_detail10type_info_ENS1_10shared_ptrINS2_15error_info_baseEEEEEED2Ev
DA:156,11
DA:156,1
DA:156,12
DA:156,1
DA:156,1
DA:156,1
DA:156,1
DA:156,1
DA:156,1
DA:156,0
DA:156,23
DA:156,0
DA:156,1
DA:156,1
DA:156,1
DA:156,1
DA:156,2
DA:156,11
DA:156,0
DA:156,0
DA:156,1
DA:156,6
DA:156,1
DA:156,4
DA:156,28
DA:156,10
DA:156,1
DA:156,0
DA:156,1
DA:156,1
DA:156,0
DA:156,1
DA:156,0
DA:156,572
DA:156,572
DA:156,1
DA:156,1
DA:156,2
DA:156,2
DA:156,2
DA:156,1
DA:159,0
DA:160,0
DA:159,0
DA:160,0
DA:159,12
DA:160,12
DA:159,0
DA:160,0
DA:159,2
DA:160,2
DA:159,2
DA:160,2
DA:159,2
DA:160,2
DA:159,0
DA:160,0
DA:159,0
DA:160,0
DA:159,0
DA:160,0
DA:159,3
DA:160,3
DA:159,2
DA:160,2
DA:159,56
DA:160,56
DA:159,4
DA:160,4
DA:159,4
DA:160,4
DA:159,1
DA:160,1
DA:159,1
DA:160,1
DA:159,12
DA:160,12
DA:159,3
DA:160,3
DA:169,1
DA:169,1
DA:169,4
DA:169,0
DA:174,0
DA:174,0
DA:174,13
DA:174,1
DA:174,16
DA:174,1
DA:174,3
DA:174,1
DA:174,3
DA:174,1
DA:174,1
DA:174,0
DA:174,1
DA:174,23
DA:174,11
DA:174,1
DA:174,0
DA:174,1
DA:174,1
DA:174,1
DA:174,2
DA:174,3
DA:174,18
DA:174,1
DA:174,2
DA:174,8
DA:174,4
DA:174,4
DA:174,16
DA:174,10
DA:174,1
DA:174,84
DA:174,0
DA:174,0
DA:174,2
DA:174,1
DA:174,0
DA:174,0
DA:174,572
DA:174,572
DA:174,1
DA:174,1
DA:174,2
DA:174,2
DA:174,2
end_of_record
SF:/usr/include/boost/test/unit_test_parameters.hpp
FN:82,_ZN5boost9unit_test14runtime_config3getImEERKT_NS0_13basic_cstringIKcEE
FNDA:1,_ZN5boost9unit_test14runtime_config3getImEERKT_NS0_13basic_cstringIKcEE
FN:82,_ZN5boost9unit_test14runtime_config3getINS0_12report_levelEEERKT_NS0_13basic_cstringIKcEE
FNDA:1,_ZN5boost9unit_test14runtime_config3getINS0_12report_levelEEERKT_NS0_13basic_cstringIKcEE
FN:82,_ZN5boost9unit_test14runtime_config3getINSt7__cxx1112basic_stringIcSt11char_traitsIcESaIcEEEEERKT_NS0_13basic_cstringIKcEE
FNDA:1,_ZN5boost9unit_test14runtime_config3getINSt7__cxx1112basic_stringIcSt11char_traitsIcESaIcEEEEERKT_NS0_13basic_cstringIKcEE
FN:82,_ZN5boost9unit_test14runtime_config3getINS0_13output_formatEEERKT_NS0_13basic_cstringIKcEE
FNDA:3,_ZN5boost9unit_test14runtime_config3getINS0_13output_formatEEERKT_NS0_13basic_cstringIKcEE
FN:82,_ZN5boost9unit_test14runtime_config3getINS0_9log_levelEEERKT_NS0_13basic_cstringIKcEE
FNDA:1,_ZN5boost9unit_test14runtime_config3getINS0_9log_levelEEERKT_NS0_13basic_cstringIKcEE
FN:82,_ZN5boost9unit_test14runtime_config3getIjEERKT_NS0_13basic_cstringIKcEE
FNDA:3,_ZN5boost9unit_test14runtime_config3getIjEERKT_NS0_13basic_cstringIKcEE
FN:82,_ZN5boost9unit_test14runtime_config3getISt6vectorINSt7__cxx1112basic_stringIcSt11char_traitsIcESaIcEEESaIS9_EEEERKT_NS0_13basic_cstringIKcEE
FNDA:2,_ZN5boost9unit_test14runtime_config3getISt6vectorINSt7__cxx1112basic_stringIcSt11char_traitsIcESaIcEEESaIS9_EEEERKT_NS0_13basic_cstringIKcEE
FN:82,_ZN5boost9unit_test14runtime_config3getIbEERKT_NS0_13basic_cstringIKcEE
FNDA:54,_ZN5boost9unit_test14runtime_config3getIbEERKT_NS0_13basic_cstringIKcEE
FN:87,_ZN5boost9unit_test14runtime_config3hasENS0_13basic_cstringIKcEE
FNDA:3,_ZN5boost9unit_test14runtime_config3hasENS0_13basic_cstringIKcEE
FN:102,_ZN5boost9unit_test14runtime_config13stream_holderC2ERSo
FNDA:2,_ZN5boost9unit_test14runtime_config13stream_holderC2ERSo
FN:107,_ZN5boost9unit_test14runtime_config13stream_holder5setupERKNS0_13basic_cstringIKcEERKNS_8functionIFvvEEE
FNDA:1,_ZN5boost9unit_test14runtime_config13stream_holder5setupERKNS0_13basic_cstringIKcEERKNS_8functionIFvvEEE
FN:139,_ZNK5boost9unit_test14runtime_config13stream_holder3refEv
FNDA:2,_ZNK5boost9unit_test14runtime_config13stream_holder3refEv
FN:143,_ZN5boost9unit_test14runtime_config13stream_holder16callback_cleanerC2ENS_8functionIFvvEEE
FNDA:0,_ZN5boost9unit_test14runtime_config13stream_holder16callback_cleanerC2ENS_8functionIFvvEEE
FN:147,_ZN5boost9unit_test14runtime_config13stream_holder16callback_cleanerD2Ev
FNDA:0,_ZN5boost9unit_test14runtime_config13stream_holder16callback_cleanerD2Ev
DA:82,1
DA:84,1
DA:82,1
DA:84,1
DA:82,1
DA:84,1
DA:82,3
DA:84,3
DA:82,1
DA:84,1
DA:82,3
DA:84,3
DA:82,2
DA:84,2
DA:82,54
DA:84,54
DA:87,3
DA:89,3
DA:102,2
DA:103,2
DA:105,2
DA:107,1
DA:110,1
DA:111,0
DA:113,1
DA:114,1
DA:115,1
DA:116,0
DA:119,1
DA:122,0
DA:123,0
DA:124,0
DA:125,0
DA:128,0
DA:132,0
DA:133,0
DA:134,0
DA:139,2
DA:143,0
DA:144,0
DA:145,0
DA:146,0
DA:147,0
DA:148,0
DA:149,0
DA:150,0
end_of_record
SF:/usr/include/c++/11/bits/stl_iterator.h
FN:242,_ZNKSt16reverse_iteratorIN9__gnu_cxx17__normal_iteratorIPcNSt7__cxx1112basic_stringIcSt11char_traitsIcESaIcEEEEEEdeEv
FNDA:0,_ZNKSt16reverse_iteratorIN9__gnu_cxx17__normal_iteratorIPcNSt7__cxx1112basic_stringIcSt11char_traitsIcESaIcEEEEEEdeEv
FN:1027,_ZN9__gnu_cxx17__normal_iteratorIPKN5boost17reference_wrapperIKNS1_7runtime16parameter_cla_idEEESt6vectorIS6_SaIS6_EEEC2ERKS8_
FNDA:142,_ZN9__gnu_cxx17__normal_iteratorIPKN5boost17reference_wrapperIKNS1_7runtime16parameter_cla_idEEESt6vectorIS6_SaIS6_EEEC2ERKS8_
FN:1027,_ZN9__gnu_cxx17__normal_iteratorIPSt4pairIPKcPKN5boost9unit_test12lazy_ostreamEESt6vectorIS9_SaIS9_EEEC2ERKSA_
FNDA:0,_ZN9__gnu_cxx17__normal_iteratorIPSt4pairIPKcPKN5boost9unit_test12lazy_ostreamEESt6vectorIS9_SaIS9_EEEC2ERKSA_
FN:1027,_ZN9__gnu_cxx17__normal_iteratorIPcSt6vectorIcSaIcEEEC2ERKS1_
FNDA:0,_ZN9__gnu_cxx17__normal_iteratorIPcSt6vectorIcSaIcEEEC2ERKS1_
FN:1027,_ZN9__gnu_cxx17__normal_iteratorIPN5boost8functionIFNS1_10test_tools16assertion_resultEmEEESt6vectorIS6_SaIS6_EEEC2ERKS7_
FNDA:0,_ZN9__gnu_cxx17__normal_iteratorIPN5boost8functionIFNS1_10test_tools16assertion_resultEmEEESt6vectorIS6_SaIS6_EEEC2ERKS7_
FN:1027,_ZN9__gnu_cxx17__normal_iteratorIPKN5boost8functionIFNS1_10test_tools16assertion_resultEmEEESt6vectorIS6_SaIS6_EEEC2ERKS8_
FNDA:20,_ZN9__gnu_cxx17__normal_iteratorIPKN5boost8functionIFNS1_10test_tools16assertion_resultEmEEESt6vectorIS6_SaIS6_EEEC2ERKS8_
FN:1027,_ZN9__gnu_cxx17__normal_iteratorIPN5boost10shared_ptrINS1_9unit_test9decorator4baseEEESt6vectorIS6_SaIS6_EEEC2ERKS7_
FNDA:63,_ZN9__gnu_cxx17__normal_iteratorIPN5boost10shared_ptrINS1_9unit_test9decorator4baseEEESt6vectorIS6_SaIS6_EEEC2ERKS7_
FN:1027,_ZN9__gnu_cxx17__normal_iteratorIPKN5boost9unit_test12_GLOBAL__N_130unit_test_log_data_helper_implESt6vectorIS4_SaIS4_EEEC2ERKS6_
FNDA:0,_ZN9__gnu_cxx17__normal_iteratorIPKN5boost9unit_test12_GLOBAL__N_130unit_test_log_data_helper_implESt6vectorIS4_SaIS4_EEEC2ERKS6_
FN:1027,_ZN9__gnu_cxx17__normal_iteratorIPSt6vectorIN5boost10shared_ptrINS2_9unit_test9decorator4baseEEESaIS7_EES1_IS9_SaIS9_EEEC2ERKSA_
FNDA:27,_ZN9__gnu_cxx17__normal_iteratorIPSt6vectorIN5boost10shared_ptrINS2_9unit_test9decorator4baseEEESaIS7_EES1_IS9_SaIS9_EEEC2ERKSA_
FN:1027,_ZN9__gnu_cxx17__normal_iteratorIPN5boost9unit_test9framework4impl11name_filter9componentESt6vectorIS6_SaIS6_EEEC2ERKS7_
FNDA:0,_ZN9__gnu_cxx17__normal_iteratorIPN5boost9unit_test9framework4impl11name_filter9componentESt6vectorIS6_SaIS6_EEEC2ERKS7_
FN:1027,_ZN9__gnu_cxx17__normal_iteratorIPKN5boost7runtime16parameter_cla_idESt6vectorIS3_SaIS3_EEEC2ERKS5_
FNDA:112,_ZN9__gnu_cxx17__normal_iteratorIPKN5boost7runtime16parameter_cla_idESt6vectorIS3_SaIS3_EEEC2ERKS5_
FN:1027,_ZN9__gnu_cxx17__normal_iteratorIPPN5boost9unit_test10test_suiteESt6vectorIS4_SaIS4_EEEC2ERKS5_
FNDA:30,_ZN9__gnu_cxx17__normal_iteratorIPPN5boost9unit_test10test_suiteESt6vectorIS4_SaIS4_EEEC2ERKS5_
FN:1027,_ZN9__gnu_cxx17__normal_iteratorIPN5boost17reference_wrapperIKNS1_7runtime16parameter_cla_idEEESt6vectorIS6_SaIS6_EEEC2ERKS7_
FNDA:1298,_ZN9__gnu_cxx17__normal_iteratorIPN5boost17reference_wrapperIKNS1_7runtime16parameter_cla_idEEESt6vectorIS6_SaIS6_EEEC2ERKS7_
FN:1027,_ZN9__gnu_cxx17__normal_iteratorIPN5boost10shared_ptrINS1_7runtime3cla13rt_cla_detail14parameter_trieEEESt6vectorIS7_SaIS7_EEEC2ERKS8_
FNDA:0,_ZN9__gnu_cxx17__normal_iteratorIPN5boost10shared_ptrINS1_7runtime3cla13rt_cla_detail14parameter_trieEEESt6vectorIS7_SaIS7_EEEC2ERKS8_
FN:1027,_ZN9__gnu_cxx17__normal_iteratorIPKN5boost9unit_test13basic_cstringIKcEESt6vectorIS5_SaIS5_EEEC2ERKS7_
FNDA:12,_ZN9__gnu_cxx17__normal_iteratorIPKN5boost9unit_test13basic_cstringIKcEESt6vectorIS5_SaIS5_EEEC2ERKS7_
FN:1027,_ZN9__gnu_cxx17__normal_iteratorIPKN5boost9unit_test6output10junit_impl16junit_log_helper15assertion_entryESt6vectorIS6_SaIS6_EEEC2ERKS8_
FNDA:0,_ZN9__gnu_cxx17__normal_iteratorIPKN5boost9unit_test6output10junit_impl16junit_log_helper15assertion_entryESt6vectorIS6_SaIS6_EEEC2ERKS8_
FN:1027,_ZN9__gnu_cxx17__normal_iteratorIPSt6vectorIN5boost9unit_test9framework4impl11name_filter9componentESaIS7_EES1_IS9_SaIS9_EEEC2ERKSA_
FNDA:0,_ZN9__gnu_cxx17__normal_iteratorIPSt6vectorIN5boost9unit_test9framework4impl11name_filter9componentESaIS7_EES1_IS9_SaIS9_EEEC2ERKSA_
FN:1027,_ZN9__gnu_cxx17__normal_iteratorIPN5boost7runtime16parameter_cla_idESt6vectorIS3_SaIS3_EEEC2ERKS4_
FNDA:284,_ZN9__gnu_cxx17__normal_iteratorIPN5boost7runtime16parameter_cla_idESt6vectorIS3_SaIS3_EEEC2ERKS4_
FN:1027,_ZN9__gnu_cxx17__normal_iteratorIPN5boost9unit_test13basic_cstringIKcEESt6vectorIS5_SaIS5_EEEC2ERKS6_
FNDA:38,_ZN9__gnu_cxx17__normal_iteratorIPN5boost9unit_test13basic_cstringIKcEESt6vectorIS5_SaIS5_EEEC2ERKS6_
FN:1027,_ZN9__gnu_cxx17__normal_iteratorIPN5boost9unit_test6output10junit_impl16junit_log_helper15assertion_entryESt6vectorIS6_SaIS6_EEEC2ERKS7_
FNDA:0,_ZN9__gnu_cxx17__normal_iteratorIPN5boost9unit_test6output10junit_impl16junit_log_helper15assertion_entryESt6vectorIS6_SaIS6_EEEC2ERKS7_
FN:1027,_ZN9__gnu_cxx17__normal_iteratorIPN5boost9unit_test9framework5state13context_frameESt6vectorIS5_SaIS5_EEEC2ERKS6_
FNDA:0,_ZN9__gnu_cxx17__normal_iteratorIPN5boost9unit_test9framework5state13context_frameESt6vectorIS5_SaIS5_EEEC2ERKS6_
FN:1027,_ZN9__gnu_cxx17__normal_iteratorIPN5boost10shared_ptrINS1_9unit_test17test_unit_fixtureEEESt6vectorIS5_SaIS5_EEEC2ERKS6_
FNDA:2,_ZN9__gnu_cxx17__normal_iteratorIPN5boost10shared_ptrINS1_9unit_test17test_unit_fixtureEEESt6vectorIS5_SaIS5_EEEC2ERKS6_
FN:1027,_ZN9__gnu_cxx17__normal_iteratorIPmSt6vectorImSaImEEEC2ERKS1_
FNDA:22,_ZN9__gnu_cxx17__normal_iteratorIPmSt6vectorImSaImEEEC2ERKS1_
FN:1027,_ZN9__gnu_cxx17__normal_iteratorIPKNSt7__cxx1112basic_stringIcSt11char_traitsIcESaIcEEESt6vectorIS6_SaIS6_EEEC2ERKS8_
FNDA:8,_ZN9__gnu_cxx17__normal_iteratorIPKNSt7__cxx1112basic_stringIcSt11char_traitsIcESaIcEEESt6vectorIS6_SaIS6_EEEC2ERKS8_
FN:1027,_ZN9__gnu_cxx17__normal_iteratorIPSt4pairIN5boost10shared_ptrINS2_9unit_test19test_unit_generatorEEESt6vectorINS3_INS4_9decorator4baseEEESaISA_EEES7_ISD_SaISD_EEEC2ERKSE_
FNDA:4,_ZN9__gnu_cxx17__normal_iteratorIPSt4pairIN5boost10shared_ptrINS2_9unit_test19test_unit_generatorEEESt6vectorINS3_INS4_9decorator4baseEEESaISA_EEES7_ISD_SaISD_EEEC2ERKSE_
FN:1027,_ZN9__gnu_cxx17__normal_iteratorIPKPN5boost9unit_test12_GLOBAL__N_130unit_test_log_data_helper_implESt6vectorIS5_SaIS5_EEEC2ERKS7_
FNDA:122,_ZN9__gnu_cxx17__normal_iteratorIPKPN5boost9unit_test12_GLOBAL__N_130unit_test_log_data_helper_implESt6vectorIS5_SaIS5_EEEC2ERKS7_
FN:1027,_ZN9__gnu_cxx17__normal_iteratorIPN5boost9unit_test12_GLOBAL__N_130unit_test_log_data_helper_implESt6vectorIS4_SaIS4_EEEC2ERKS5_
FNDA:22,_ZN9__gnu_cxx17__normal_iteratorIPN5boost9unit_test12_GLOBAL__N_130unit_test_log_data_helper_implESt6vectorIS4_SaIS4_EEEC2ERKS5_
FN:1027,_ZN9__gnu_cxx17__normal_iteratorIPPN5boost9unit_test12_GLOBAL__N_130unit_test_log_data_helper_implESt6vectorIS5_SaIS5_EEEC2ERKS6_
FNDA:242,_ZN9__gnu_cxx17__normal_iteratorIPPN5boost9unit_test12_GLOBAL__N_130unit_test_log_data_helper_implESt6vectorIS5_SaIS5_EEEC2ERKS6_
FN:1027,_ZN9__gnu_cxx17__normal_iteratorIPKN5boost10shared_ptrINS1_9unit_test9decorator4baseEEESt6vectorIS6_SaIS6_EEEC2ERKS8_
FNDA:29,_ZN9__gnu_cxx17__normal_iteratorIPKN5boost10shared_ptrINS1_9unit_test9decorator4baseEEESt6vectorIS6_SaIS6_EEEC2ERKS8_
FN:1027,_ZN9__gnu_cxx17__normal_iteratorIPKN5boost9unit_test9framework4impl11name_filter9componentESt6vectorIS6_SaIS6_EEEC2ERKS8_
FNDA:0,_ZN9__gnu_cxx17__normal_iteratorIPKN5boost9unit_test9framework4impl11name_filter9componentESt6vectorIS6_SaIS6_EEEC2ERKS8_
FN:1027,_ZN9__gnu_cxx17__normal_iteratorIPKmSt6vectorImSaImEEEC2ERKS2_
FNDA:72,_ZN9__gnu_cxx17__normal_iteratorIPKmSt6vectorImSaImEEEC2ERKS2_
FN:1027,_ZN9__gnu_cxx17__normal_iteratorIPKN5boost10shared_ptrINS1_9unit_test17test_unit_fixtureEEESt6vectorIS5_SaIS5_EEEC2ERKS7_
FNDA:40,_ZN9__gnu_cxx17__normal_iteratorIPKN5boost10shared_ptrINS1_9unit_test17test_unit_fixtureEEESt6vectorIS5_SaIS5_EEEC2ERKS7_
FN:1027,_ZN9__gnu_cxx17__normal_iteratorIPNSt7__cxx1112basic_stringIcSt11char_traitsIcESaIcEEESt6vectorIS6_SaIS6_EEEC2ERKS7_
FNDA:0,_ZN9__gnu_cxx17__normal_iteratorIPNSt7__cxx1112basic_stringIcSt11char_traitsIcESaIcEEESt6vectorIS6_SaIS6_EEEC2ERKS7_
FN:1027,_ZN9__gnu_cxx17__normal_iteratorIPKSt6vectorIN5boost10shared_ptrINS2_9unit_test9decorator4baseEEESaIS7_EES1_IS9_SaIS9_EEEC2ERKSB_
FNDA:0,_ZN9__gnu_cxx17__normal_iteratorIPKSt6vectorIN5boost10shared_ptrINS2_9unit_test9decorator4baseEEESaIS7_EES1_IS9_SaIS9_EEEC2ERKSB_
FN:1027,_ZN9__gnu_cxx17__normal_iteratorIPKN5boost9unit_test9framework5state13context_frameESt6vectorIS5_SaIS5_EEEC2ERKS7_
FNDA:0,_ZN9__gnu_cxx17__normal_iteratorIPKN5boost9unit_test9framework5state13context_frameESt6vectorIS5_SaIS5_EEEC2ERKS7_
FN:1027,_ZN9__gnu_cxx17__normal_iteratorIPKPN5boost9unit_test10test_suiteESt6vectorIS4_SaIS4_EEEC2ERKS6_
FNDA:24,_ZN9__gnu_cxx17__normal_iteratorIPKPN5boost9unit_test10test_suiteESt6vectorIS4_SaIS4_EEEC2ERKS6_
FN:1033,_ZN9__gnu_cxx17__normal_iteratorIPKcNSt7__cxx1112basic_stringIcSt11char_traitsIcESaIcEEEEC2IPcEERKNS0_IT_NS_11__enable_ifIXsrSt10__are_sameISC_SB_E7__valueES8_E6__typeEEE
FNDA:0,_ZN9__gnu_cxx17__normal_iteratorIPKcNSt7__cxx1112basic_stringIcSt11char_traitsIcESaIcEEEEC2IPcEERKNS0_IT_NS_11__enable_ifIXsrSt10__are_sameISC_SB_E7__valueES8_E6__typeEEE
FN:1033,_ZN9__gnu_cxx17__normal_iteratorIPKN5boost9unit_test12_GLOBAL__N_130unit_test_log_data_helper_implESt6vectorIS4_SaIS4_EEEC2IPS4_EERKNS0_IT_NS_11__enable_ifIXsrSt10__are_sameISD_SC_E7__valueES9_E6__typeEEE
FNDA:0,_ZN9__gnu_cxx17__normal_iteratorIPKN5boost9unit_test12_GLOBAL__N_130unit_test_log_data_helper_implESt6vectorIS4_SaIS4_EEEC2IPS4_EERKNS0_IT_NS_11__enable_ifIXsrSt10__are_sameISD_SC_E7__valueES9_E6__typeEEE
FN:1033,_ZN9__gnu_cxx17__normal_iteratorIPKSt6vectorIN5boost10shared_ptrINS2_9unit_test9decorator4baseEEESaIS7_EES1_IS9_SaIS9_EEEC2IPS9_EERKNS0_IT_NS_11__enable_ifIXsrSt10__are_sameISH_SG_E7__valueESD_E6__typeEEE
FNDA:0,_ZN9__gnu_cxx17__normal_iteratorIPKSt6vectorIN5boost10shared_ptrINS2_9unit_test9decorator4baseEEESaIS7_EES1_IS9_SaIS9_EEEC2IPS9_EERKNS0_IT_NS_11__enable_ifIXsrSt10__are_sameISH_SG_E7__valueESD_E6__typeEEE
FN:1033,_ZN9__gnu_cxx17__normal_iteratorIPKN5boost9unit_test9framework5state13context_frameESt6vectorIS5_SaIS5_EEEC2IPS5_EERKNS0_IT_NS_11__enable_ifIXsrSt10__are_sameISE_SD_E7__valueESA_E6__typeEEE
FNDA:0,_ZN9__gnu_cxx17__normal_iteratorIPKN5boost9unit_test9framework5state13context_frameESt6vectorIS5_SaIS5_EEEC2IPS5_EERKNS0_IT_NS_11__enable_ifIXsrSt10__are_sameISE_SD_E7__valueESA_E6__typeEEE
FN:1033,_ZN9__gnu_cxx17__normal_iteratorIPKN5boost10shared_ptrINS1_9unit_test17test_unit_fixtureEEESt6vectorIS5_SaIS5_EEEC2IPS5_EERKNS0_IT_NS_11__enable_ifIXsrSt10__are_sameISE_SD_E7__valueESA_E6__typeEEE
FNDA:0,_ZN9__gnu_cxx17__normal_iteratorIPKN5boost10shared_ptrINS1_9unit_test17test_unit_fixtureEEESt6vectorIS5_SaIS5_EEEC2IPS5_EERKNS0_IT_NS_11__enable_ifIXsrSt10__are_sameISE_SD_E7__valueESA_E6__typeEEE
FN:1033,_ZN9__gnu_cxx17__normal_iteratorIPKmSt6vectorImSaImEEEC2IPmEERKNS0_IT_NS_11__enable_ifIXsrSt10__are_sameIS9_S8_E7__valueES5_E6__typeEEE
FNDA:4,_ZN9__gnu_cxx17__normal_iteratorIPKmSt6vectorImSaImEEEC2IPmEERKNS0_IT_NS_11__enable_ifIXsrSt10__are_sameIS9_S8_E7__valueES5_E6__typeEEE
FN:1033,_ZN9__gnu_cxx17__normal_iteratorIPKN5boost10shared_ptrINS1_9unit_test9decorator4baseEEESt6vectorIS6_SaIS6_EEEC2IPS6_EERKNS0_IT_NS_11__enable_ifIXsrSt10__are_sameISF_SE_E7__valueESB_E6__typeEEE
FNDA:9,_ZN9__gnu_cxx17__normal_iteratorIPKN5boost10shared_ptrINS1_9unit_test9decorator4baseEEESt6vectorIS6_SaIS6_EEEC2IPS6_EERKNS0_IT_NS_11__enable_ifIXsrSt10__are_sameISF_SE_E7__valueESB_E6__typeEEE
FN:1042,_ZNK9__gnu_cxx17__normal_iteratorIPSt6vectorIN5boost10shared_ptrINS2_9unit_test9decorator4baseEEESaIS7_EES1_IS9_SaIS9_EEEdeEv
FNDA:0,_ZNK9__gnu_cxx17__normal_iteratorIPSt6vectorIN5boost10shared_ptrINS2_9unit_test9decorator4baseEEESaIS7_EES1_IS9_SaIS9_EEEdeEv
FN:1042,_ZNK9__gnu_cxx17__normal_iteratorIPN5boost7runtime16parameter_cla_idESt6vectorIS3_SaIS3_EEEdeEv
FNDA:71,_ZNK9__gnu_cxx17__normal_iteratorIPN5boost7runtime16parameter_cla_idESt6vectorIS3_SaIS3_EEEdeEv
FN:1042,_ZNK9__gnu_cxx17__normal_iteratorIPN5boost10shared_ptrINS1_9unit_test9decorator4baseEEESt6vectorIS6_SaIS6_EEEdeEv
FNDA:0,_ZNK9__gnu_cxx17__normal_iteratorIPN5boost10shared_ptrINS1_9unit_test9decorator4baseEEESt6vectorIS6_SaIS6_EEEdeEv
FN:1042,_ZNK9__gnu_cxx17__normal_iteratorIPKN5boost8functionIFNS1_10test_tools16assertion_resultEmEEESt6vectorIS6_SaIS6_EEEdeEv
FNDA:0,_ZNK9__gnu_cxx17__normal_iteratorIPKN5boost8functionIFNS1_10test_tools16assertion_resultEmEEESt6vectorIS6_SaIS6_EEEdeEv
FN:1042,_ZNK9__gnu_cxx17__normal_iteratorIPKN5boost9unit_test6output10junit_impl16junit_log_helper15assertion_entryESt6vectorIS6_SaIS6_EEEdeEv
FNDA:0,_ZNK9__gnu_cxx17__normal_iteratorIPKN5boost9unit_test6output10junit_impl16junit_log_helper15assertion_entryESt6vectorIS6_SaIS6_EEEdeEv
FN:1042,_ZNK9__gnu_cxx17__normal_iteratorIPN5boost9unit_test6output10junit_impl16junit_log_helper15assertion_entryESt6vectorIS6_SaIS6_EEEdeEv
FNDA:0,_ZNK9__gnu_cxx17__normal_iteratorIPN5boost9unit_test6output10junit_impl16junit_log_helper15assertion_entryESt6vectorIS6_SaIS6_EEEdeEv
FN:1042,_ZNK9__gnu_cxx17__normal_iteratorIPKPN5boost9unit_test12_GLOBAL__N_130unit_test_log_data_helper_implESt6vectorIS5_SaIS5_EEEdeEv
FNDA:58,_ZNK9__gnu_cxx17__normal_iteratorIPKPN5boost9unit_test12_GLOBAL__N_130unit_test_log_data_helper_implESt6vectorIS5_SaIS5_EEEdeEv
FN:1042,_ZNK9__gnu_cxx17__normal_iteratorIPKN5boost10shared_ptrINS1_9unit_test17test_unit_fixtureEEESt6vectorIS5_SaIS5_EEEdeEv
FNDA:0,_ZNK9__gnu_cxx17__normal_iteratorIPKN5boost10shared_ptrINS1_9unit_test17test_unit_fixtureEEESt6vectorIS5_SaIS5_EEEdeEv
FN:1042,_ZNK9__gnu_cxx17__normal_iteratorIPKmSt6vectorImSaImEEEdeEv
FNDA:27,_ZNK9__gnu_cxx17__normal_iteratorIPKmSt6vectorImSaImEEEdeEv
FN:1042,_ZNK9__gnu_cxx17__normal_iteratorIPN5boost9unit_test9framework4impl11name_filter9componentESt6vectorIS6_SaIS6_EEEdeEv
FNDA:0,_ZNK9__gnu_cxx17__normal_iteratorIPN5boost9unit_test9framework4impl11name_filter9componentESt6vectorIS6_SaIS6_EEEdeEv
FN:1042,_ZNK9__gnu_cxx17__normal_iteratorIPKN5boost7runtime16parameter_cla_idESt6vectorIS3_SaIS3_EEEdeEv
FNDA:142,_ZNK9__gnu_cxx17__normal_iteratorIPKN5boost7runtime16parameter_cla_idESt6vectorIS3_SaIS3_EEEdeEv
FN:1042,_ZNK9__gnu_cxx17__normal_iteratorIPKN5boost9unit_test9framework4impl11name_filter9componentESt6vectorIS6_SaIS6_EEEdeEv
FNDA:0,_ZNK9__gnu_cxx17__normal_iteratorIPKN5boost9unit_test9framework4impl11name_filter9componentESt6vectorIS6_SaIS6_EEEdeEv
FN:1042,_ZNK9__gnu_cxx17__normal_iteratorIPN5boost17reference_wrapperIKNS1_7runtime16parameter_cla_idEEESt6vectorIS6_SaIS6_EEEdeEv
FNDA:0,_ZNK9__gnu_cxx17__normal_iteratorIPN5boost17reference_wrapperIKNS1_7runtime16parameter_cla_idEEESt6vectorIS6_SaIS6_EEEdeEv
FN:1042,_ZNK9__gnu_cxx17__normal_iteratorIPmSt6vectorImSaImEEEdeEv
FNDA:18,_ZNK9__gnu_cxx17__normal_iteratorIPmSt6vectorImSaImEEEdeEv
FN:1042,_ZNK9__gnu_cxx17__normal_iteratorIPN5boost10shared_ptrINS1_7runtime3cla13rt_cla_detail14parameter_trieEEESt6vectorIS7_SaIS7_EEEdeEv
FNDA:0,_ZNK9__gnu_cxx17__normal_iteratorIPN5boost10shared_ptrINS1_7runtime3cla13rt_cla_detail14parameter_trieEEESt6vectorIS7_SaIS7_EEEdeEv
FN:1042,_ZNK9__gnu_cxx17__normal_iteratorIPSt4pairIPKcPKN5boost9unit_test12lazy_ostreamEESt6vectorIS9_SaIS9_EEEdeEv
FNDA:0,_ZNK9__gnu_cxx17__normal_iteratorIPSt4pairIPKcPKN5boost9unit_test12lazy_ostreamEESt6vectorIS9_SaIS9_EEEdeEv
FN:1042,_ZNK9__gnu_cxx17__normal_iteratorIPKNSt7__cxx1112basic_stringIcSt11char_traitsIcESaIcEEESt6vectorIS6_SaIS6_EEEdeEv
FNDA:0,_ZNK9__gnu_cxx17__normal_iteratorIPKNSt7__cxx1112basic_stringIcSt11char_traitsIcESaIcEEESt6vectorIS6_SaIS6_EEEdeEv
FN:1042,_ZNK9__gnu_cxx17__normal_iteratorIPKSt6vectorIN5boost10shared_ptrINS2_9unit_test9decorator4baseEEESaIS7_EES1_IS9_SaIS9_EEEdeEv
FNDA:0,_ZNK9__gnu_cxx17__normal_iteratorIPKSt6vectorIN5boost10shared_ptrINS2_9unit_test9decorator4baseEEESaIS7_EES1_IS9_SaIS9_EEEdeEv
FN:1042,_ZNK9__gnu_cxx17__normal_iteratorIPKN5boost9unit_test13basic_cstringIKcEESt6vectorIS5_SaIS5_EEEdeEv
FNDA:27,_ZNK9__gnu_cxx17__normal_iteratorIPKN5boost9unit_test13basic_cstringIKcEESt6vectorIS5_SaIS5_EEEdeEv
FN:1042,_ZNK9__gnu_cxx17__normal_iteratorIPN5boost9unit_test13basic_cstringIKcEESt6vectorIS5_SaIS5_EEEdeEv
FNDA:0,_ZNK9__gnu_cxx17__normal_iteratorIPN5boost9unit_test13basic_cstringIKcEESt6vectorIS5_SaIS5_EEEdeEv
FN:1042,_ZNK9__gnu_cxx17__normal_iteratorIPN5boost10shared_ptrINS1_9unit_test17test_unit_fixtureEEESt6vectorIS5_SaIS5_EEEdeEv
FNDA:0,_ZNK9__gnu_cxx17__normal_iteratorIPN5boost10shared_ptrINS1_9unit_test17test_unit_fixtureEEESt6vectorIS5_SaIS5_EEEdeEv
FN:1042,_ZNK9__gnu_cxx17__normal_iteratorIPN5boost9unit_test9framework5state13context_frameESt6vectorIS5_SaIS5_EEEdeEv
FNDA:0,_ZNK9__gnu_cxx17__normal_iteratorIPN5boost9unit_test9framework5state13context_frameESt6vectorIS5_SaIS5_EEEdeEv
FN:1042,_ZNK9__gnu_cxx17__normal_iteratorIPKN5boost10shared_ptrINS1_9unit_test9decorator4baseEEESt6vectorIS6_SaIS6_EEEdeEv
FNDA:0,_ZNK9__gnu_cxx17__normal_iteratorIPKN5boost10shared_ptrINS1_9unit_test9decorator4baseEEESt6vectorIS6_SaIS6_EEEdeEv
FN:1042,_ZNK9__gnu_cxx17__normal_iteratorIPPN5boost9unit_test12_GLOBAL__N_130unit_test_log_data_helper_implESt6vectorIS5_SaIS5_EEEdeEv
FNDA:120,_ZNK9__gnu_cxx17__normal_iteratorIPPN5boost9unit_test12_GLOBAL__N_130unit_test_log_data_helper_implESt6vectorIS5_SaIS5_EEEdeEv
FN:1042,_ZNK9__gnu_cxx17__normal_iteratorIPcNSt7__cxx1112basic_stringIcSt11char_traitsIcESaIcEEEEdeEv
FNDA:5039,_ZNK9__gnu_cxx17__normal_iteratorIPcNSt7__cxx1112basic_stringIcSt11char_traitsIcESaIcEEEEdeEv
FN:1042,_ZNK9__gnu_cxx17__normal_iteratorIPNSt7__cxx1112basic_stringIcSt11char_traitsIcESaIcEEESt6vectorIS6_SaIS6_EEEdeEv
FNDA:0,_ZNK9__gnu_cxx17__normal_iteratorIPNSt7__cxx1112basic_stringIcSt11char_traitsIcESaIcEEESt6vectorIS6_SaIS6_EEEdeEv
FN:1042,_ZNK9__gnu_cxx17__normal_iteratorIPSt6vectorIN5boost9unit_test9framework4impl11name_filter9componentESaIS7_EES1_IS9_SaIS9_EEEdeEv
FNDA:0,_ZNK9__gnu_cxx17__normal_iteratorIPSt6vectorIN5boost9unit_test9framework4impl11name_filter9componentESaIS7_EES1_IS9_SaIS9_EEEdeEv
FN:1042,_ZNK9__gnu_cxx17__normal_iteratorIPN5boost9unit_test12_GLOBAL__N_130unit_test_log_data_helper_implESt6vectorIS4_SaIS4_EEEdeEv
FNDA:14,_ZNK9__gnu_cxx17__normal_iteratorIPN5boost9unit_test12_GLOBAL__N_130unit_test_log_data_helper_implESt6vectorIS4_SaIS4_EEEdeEv
FN:1042,_ZNK9__gnu_cxx17__normal_iteratorIPPN5boost9unit_test10test_suiteESt6vectorIS4_SaIS4_EEEdeEv
FNDA:13,_ZNK9__gnu_cxx17__normal_iteratorIPPN5boost9unit_test10test_suiteESt6vectorIS4_SaIS4_EEEdeEv
FN:1047,_ZNK9__gnu_cxx17__normal_iteratorIPN5boost9unit_test12_GLOBAL__N_130unit_test_log_data_helper_implESt6vectorIS4_SaIS4_EEEptEv
FNDA:10,_ZNK9__gnu_cxx17__normal_iteratorIPN5boost9unit_test12_GLOBAL__N_130unit_test_log_data_helper_implESt6vectorIS4_SaIS4_EEEptEv
FN:1047,_ZNK9__gnu_cxx17__normal_iteratorIPSt4pairIN5boost10shared_ptrINS2_9unit_test19test_unit_generatorEEESt6vectorINS3_INS4_9decorator4baseEEESaISA_EEES7_ISD_SaISD_EEEptEv
FNDA:0,_ZNK9__gnu_cxx17__normal_iteratorIPSt4pairIN5boost10shared_ptrINS2_9unit_test19test_unit_generatorEEESt6vectorINS3_INS4_9decorator4baseEEESaISA_EEES7_ISD_SaISD_EEEptEv
FN:1047,_ZNK9__gnu_cxx17__normal_iteratorIPSt6vectorIN5boost10shared_ptrINS2_9unit_test9decorator4baseEEESaIS7_EES1_IS9_SaIS9_EEEptEv
FNDA:27,_ZNK9__gnu_cxx17__normal_iteratorIPSt6vectorIN5boost10shared_ptrINS2_9unit_test9decorator4baseEEESaIS7_EES1_IS9_SaIS9_EEEptEv
FN:1047,_ZNK9__gnu_cxx17__normal_iteratorIPKN5boost9unit_test6output10junit_impl16junit_log_helper15assertion_entryESt6vectorIS6_SaIS6_EEEptEv
FNDA:0,_ZNK9__gnu_cxx17__normal_iteratorIPKN5boost9unit_test6output10junit_impl16junit_log_helper15assertion_entryESt6vectorIS6_SaIS6_EEEptEv
FN:1052,_ZN9__gnu_cxx17__normal_iteratorIPKN5boost9unit_test6output10junit_impl16junit_log_helper15assertion_entryESt6vectorIS6_SaIS6_EEEppEv
FNDA:0,_ZN9__gnu_cxx17__normal_iteratorIPKN5boost9unit_test6output10junit_impl16junit_log_helper15assertion_entryESt6vectorIS6_SaIS6_EEEppEv
FN:1052,_ZN9__gnu_cxx17__normal_iteratorIPKN5boost9unit_test13basic_cstringIKcEESt6vectorIS5_SaIS5_EEEppEv
FNDA:27,_ZN9__gnu_cxx17__normal_iteratorIPKN5boost9unit_test13basic_cstringIKcEESt6vectorIS5_SaIS5_EEEppEv
FN:1052,_ZN9__gnu_cxx17__normal_iteratorIPcNSt7__cxx1112basic_stringIcSt11char_traitsIcESaIcEEEEppEv
FNDA:5039,_ZN9__gnu_cxx17__normal_iteratorIPcNSt7__cxx1112basic_stringIcSt11char_traitsIcESaIcEEEEppEv
FN:1052,_ZN9__gnu_cxx17__normal_iteratorIPSt4pairIN5boost10shared_ptrINS2_9unit_test19test_unit_generatorEEESt6vectorINS3_INS4_9decorator4baseEEESaISA_EEES7_ISD_SaISD_EEEppEv
FNDA:0,_ZN9__gnu_cxx17__normal_iteratorIPSt4pairIN5boost10shared_ptrINS2_9unit_test19test_unit_generatorEEESt6vectorINS3_INS4_9decorator4baseEEESaISA_EEES7_ISD_SaISD_EEEppEv
FN:1052,_ZN9__gnu_cxx17__normal_iteratorIPN5boost10shared_ptrINS1_7runtime3cla13rt_cla_detail14parameter_trieEEESt6vectorIS7_SaIS7_EEEppEv
FNDA:0,_ZN9__gnu_cxx17__normal_iteratorIPN5boost10shared_ptrINS1_7runtime3cla13rt_cla_detail14parameter_trieEEESt6vectorIS7_SaIS7_EEEppEv
FN:1052,_ZN9__gnu_cxx17__normal_iteratorIPN5boost10shared_ptrINS1_9unit_test9decorator4baseEEESt6vectorIS6_SaIS6_EEEppEv
FNDA:0,_ZN9__gnu_cxx17__normal_iteratorIPN5boost10shared_ptrINS1_9unit_test9decorator4baseEEESt6vectorIS6_SaIS6_EEEppEv
FN:1052,_ZN9__gnu_cxx17__normal_iteratorIPKNSt7__cxx1112basic_stringIcSt11char_traitsIcESaIcEEESt6vectorIS6_SaIS6_EEEppEv
FNDA:0,_ZN9__gnu_cxx17__normal_iteratorIPKNSt7__cxx1112basic_stringIcSt11char_traitsIcESaIcEEESt6vectorIS6_SaIS6_EEEppEv
FN:1052,_ZN9__gnu_cxx17__normal_iteratorIPmSt6vectorImSaImEEEppEv
FNDA:18,_ZN9__gnu_cxx17__normal_iteratorIPmSt6vectorImSaImEEEppEv
FN:1052,_ZN9__gnu_cxx17__normal_iteratorIPN5boost17reference_wrapperIKNS1_7runtime16parameter_cla_idEEESt6vectorIS6_SaIS6_EEEppEv
FNDA:0,_ZN9__gnu_cxx17__normal_iteratorIPN5boost17reference_wrapperIKNS1_7runtime16parameter_cla_idEEESt6vectorIS6_SaIS6_EEEppEv
FN:1052,_ZN9__gnu_cxx17__normal_iteratorIPKN5boost10shared_ptrINS1_9unit_test9decorator4baseEEESt6vectorIS6_SaIS6_EEEppEv
FNDA:0,_ZN9__gnu_cxx17__normal_iteratorIPKN5boost10shared_ptrINS1_9unit_test9decorator4baseEEESt6vectorIS6_SaIS6_EEEppEv
FN:1052,_ZN9__gnu_cxx17__normal_iteratorIPPN5boost9unit_test12_GLOBAL__N_130unit_test_log_data_helper_implESt6vectorIS5_SaIS5_EEEppEv
FNDA:118,_ZN9__gnu_cxx17__normal_iteratorIPPN5boost9unit_test12_GLOBAL__N_130unit_test_log_data_helper_implESt6vectorIS5_SaIS5_EEEppEv
FN:1052,_ZN9__gnu_cxx17__normal_iteratorIPNSt7__cxx1112basic_stringIcSt11char_traitsIcESaIcEEESt6vectorIS6_SaIS6_EEEppEv
FNDA:0,_ZN9__gnu_cxx17__normal_iteratorIPNSt7__cxx1112basic_stringIcSt11char_traitsIcESaIcEEESt6vectorIS6_SaIS6_EEEppEv
FN:1052,_ZN9__gnu_cxx17__normal_iteratorIPKN5boost8functionIFNS1_10test_tools16assertion_resultEmEEESt6vectorIS6_SaIS6_EEEppEv
FNDA:0,_ZN9__gnu_cxx17__normal_iteratorIPKN5boost8functionIFNS1_10test_tools16assertion_resultEmEEESt6vectorIS6_SaIS6_EEEppEv
FN:1052,_ZN9__gnu_cxx17__normal_iteratorIPN5boost9unit_test9framework5state13context_frameESt6vectorIS5_SaIS5_EEEppEv
FNDA:0,_ZN9__gnu_cxx17__normal_iteratorIPN5boost9unit_test9framework5state13context_frameESt6vectorIS5_SaIS5_EEEppEv
FN:1052,_ZN9__gnu_cxx17__normal_iteratorIPN5boost9unit_test12_GLOBAL__N_130unit_test_log_data_helper_implESt6vectorIS4_SaIS4_EEEppEv
FNDA:15,_ZN9__gnu_cxx17__normal_iteratorIPN5boost9unit_test12_GLOBAL__N_130unit_test_log_data_helper_implESt6vectorIS4_SaIS4_EEEppEv
FN:1052,_ZN9__gnu_cxx17__normal_iteratorIPKN5boost7runtime16parameter_cla_idESt6vectorIS3_SaIS3_EEEppEv
FNDA:142,_ZN9__gnu_cxx17__normal_iteratorIPKN5boost7runtime16parameter_cla_idESt6vectorIS3_SaIS3_EEEppEv
FN:1052,_ZN9__gnu_cxx17__normal_iteratorIPKN5boost10shared_ptrINS1_9unit_test17test_unit_fixtureEEESt6vectorIS5_SaIS5_EEEppEv
FNDA:0,_ZN9__gnu_cxx17__normal_iteratorIPKN5boost10shared_ptrINS1_9unit_test17test_unit_fixtureEEESt6vectorIS5_SaIS5_EEEppEv
FN:1052,_ZN9__gnu_cxx17__normal_iteratorIPN5boost10shared_ptrINS1_9unit_test17test_unit_fixtureEEESt6vectorIS5_SaIS5_EEEppEv
FNDA:0,_ZN9__gnu_cxx17__normal_iteratorIPN5boost10shared_ptrINS1_9unit_test17test_unit_fixtureEEESt6vectorIS5_SaIS5_EEEppEv
FN:1052,_ZN9__gnu_cxx17__normal_iteratorIPKmSt6vectorImSaImEEEppEv
FNDA:27,_ZN9__gnu_cxx17__normal_iteratorIPKmSt6vectorImSaImEEEppEv
FN:1052,_ZN9__gnu_cxx17__normal_iteratorIPKN5boost9unit_test9framework4impl11name_filter9componentESt6vectorIS6_SaIS6_EEEppEv
FNDA:0,_ZN9__gnu_cxx17__normal_iteratorIPKN5boost9unit_test9framework4impl11name_filter9componentESt6vectorIS6_SaIS6_EEEppEv
FN:1052,_ZN9__gnu_cxx17__normal_iteratorIPKPN5boost9unit_test12_GLOBAL__N_130unit_test_log_data_helper_implESt6vectorIS5_SaIS5_EEEppEv
FNDA:58,_ZN9__gnu_cxx17__normal_iteratorIPKPN5boost9unit_test12_GLOBAL__N_130unit_test_log_data_helper_implESt6vectorIS5_SaIS5_EEEppEv
FN:1066,_ZN9__gnu_cxx17__normal_iteratorIPcNSt7__cxx1112basic_stringIcSt11char_traitsIcESaIcEEEEmmEv
FNDA:0,_ZN9__gnu_cxx17__normal_iteratorIPcNSt7__cxx1112basic_stringIcSt11char_traitsIcESaIcEEEEmmEv
FN:1066,_ZN9__gnu_cxx17__normal_iteratorIPKN5boost10shared_ptrINS1_9unit_test17test_unit_fixtureEEESt6vectorIS5_SaIS5_EEEmmEv
FNDA:0,_ZN9__gnu_cxx17__normal_iteratorIPKN5boost10shared_ptrINS1_9unit_test17test_unit_fixtureEEESt6vectorIS5_SaIS5_EEEmmEv
FN:1080,_ZNK9__gnu_cxx17__normal_iteratorIPmSt6vectorImSaImEEEixEl
FNDA:0,_ZNK9__gnu_cxx17__normal_iteratorIPmSt6vectorImSaImEEEixEl
FN:1085,_ZN9__gnu_cxx17__normal_iteratorIPN5boost10shared_ptrINS1_9unit_test9decorator4baseEEESt6vectorIS6_SaIS6_EEEpLEl
FNDA:0,_ZN9__gnu_cxx17__normal_iteratorIPN5boost10shared_ptrINS1_9unit_test9decorator4baseEEESt6vectorIS6_SaIS6_EEEpLEl
FN:1090,_ZNK9__gnu_cxx17__normal_iteratorIPN5boost10shared_ptrINS1_9unit_test9decorator4baseEEESt6vectorIS6_SaIS6_EEEplEl
FNDA:18,_ZNK9__gnu_cxx17__normal_iteratorIPN5boost10shared_ptrINS1_9unit_test9decorator4baseEEESt6vectorIS6_SaIS6_EEEplEl
FN:1090,_ZNK9__gnu_cxx17__normal_iteratorIPN5boost9unit_test9framework5state13context_frameESt6vectorIS5_SaIS5_EEEplEl
FNDA:0,_ZNK9__gnu_cxx17__normal_iteratorIPN5boost9unit_test9framework5state13context_frameESt6vectorIS5_SaIS5_EEEplEl
FN:1090,_ZNK9__gnu_cxx17__normal_iteratorIPmSt6vectorImSaImEEEplEl
FNDA:0,_ZNK9__gnu_cxx17__normal_iteratorIPmSt6vectorImSaImEEEplEl
FN:1090,_ZNK9__gnu_cxx17__normal_iteratorIPN5boost9unit_test12_GLOBAL__N_130unit_test_log_data_helper_implESt6vectorIS4_SaIS4_EEEplEl
FNDA:0,_ZNK9__gnu_cxx17__normal_iteratorIPN5boost9unit_test12_GLOBAL__N_130unit_test_log_data_helper_implESt6vectorIS4_SaIS4_EEEplEl
FN:1090,_ZNK9__gnu_cxx17__normal_iteratorIPSt6vectorIN5boost10shared_ptrINS2_9unit_test9decorator4baseEEESaIS7_EES1_IS9_SaIS9_EEEplEl
FNDA:0,_ZNK9__gnu_cxx17__normal_iteratorIPSt6vectorIN5boost10shared_ptrINS2_9unit_test9decorator4baseEEESaIS7_EES1_IS9_SaIS9_EEEplEl
FN:1090,_ZNK9__gnu_cxx17__normal_iteratorIPN5boost10shared_ptrINS1_9unit_test17test_unit_fixtureEEESt6vectorIS5_SaIS5_EEEplEl
FNDA:0,_ZNK9__gnu_cxx17__normal_iteratorIPN5boost10shared_ptrINS1_9unit_test17test_unit_fixtureEEESt6vectorIS5_SaIS5_EEEplEl
FN:1100,_ZNK9__gnu_cxx17__normal_iteratorIPNSt7__cxx1112basic_stringIcSt11char_traitsIcESaIcEEESt6vectorIS6_SaIS6_EEEmiEl
FNDA:0,_ZNK9__gnu_cxx17__normal_iteratorIPNSt7__cxx1112basic_stringIcSt11char_traitsIcESaIcEEESt6vectorIS6_SaIS6_EEEmiEl
FN:1100,_ZNK9__gnu_cxx17__normal_iteratorIPPN5boost9unit_test10test_suiteESt6vectorIS4_SaIS4_EEEmiEl
FNDA:13,_ZNK9__gnu_cxx17__normal_iteratorIPPN5boost9unit_test10test_suiteESt6vectorIS4_SaIS4_EEEmiEl
FN:1100,_ZNK9__gnu_cxx17__normal_iteratorIPN5boost17reference_wrapperIKNS1_7runtime16parameter_cla_idEEESt6vectorIS6_SaIS6_EEEmiEl
FNDA:0,_ZNK9__gnu_cxx17__normal_iteratorIPN5boost17reference_wrapperIKNS1_7runtime16parameter_cla_idEEESt6vectorIS6_SaIS6_EEEmiEl
FN:1100,_ZNK9__gnu_cxx17__normal_iteratorIPmSt6vectorImSaImEEEmiEl
FNDA:0,_ZNK9__gnu_cxx17__normal_iteratorIPmSt6vectorImSaImEEEmiEl
FN:1100,_ZNK9__gnu_cxx17__normal_iteratorIPN5boost7runtime16parameter_cla_idESt6vectorIS3_SaIS3_EEEmiEl
FNDA:71,_ZNK9__gnu_cxx17__normal_iteratorIPN5boost7runtime16parameter_cla_idESt6vectorIS3_SaIS3_EEEmiEl
FN:1100,_ZNK9__gnu_cxx17__normal_iteratorIPPN5boost9unit_test12_GLOBAL__N_130unit_test_log_data_helper_implESt6vectorIS5_SaIS5_EEEmiEl
FNDA:2,_ZNK9__gnu_cxx17__normal_iteratorIPPN5boost9unit_test12_GLOBAL__N_130unit_test_log_data_helper_implESt6vectorIS5_SaIS5_EEEmiEl
FN:1100,_ZNK9__gnu_cxx17__normal_iteratorIPN5boost9unit_test12_GLOBAL__N_130unit_test_log_data_helper_implESt6vectorIS4_SaIS4_EEEmiEl
FNDA:3,_ZNK9__gnu_cxx17__normal_iteratorIPN5boost9unit_test12_GLOBAL__N_130unit_test_log_data_helper_implESt6vectorIS4_SaIS4_EEEmiEl
FN:1100,_ZNK9__gnu_cxx17__normal_iteratorIPN5boost9unit_test6output10junit_impl16junit_log_helper15assertion_entryESt6vectorIS6_SaIS6_EEEmiEl
FNDA:0,_ZNK9__gnu_cxx17__normal_iteratorIPN5boost9unit_test6output10junit_impl16junit_log_helper15assertion_entryESt6vectorIS6_SaIS6_EEEmiEl
FN:1100,_ZNK9__gnu_cxx17__normal_iteratorIPN5boost10shared_ptrINS1_9unit_test9decorator4baseEEESt6vectorIS6_SaIS6_EEEmiEl
FNDA:0,_ZNK9__gnu_cxx17__normal_iteratorIPN5boost10shared_ptrINS1_9unit_test9decorator4baseEEESt6vectorIS6_SaIS6_EEEmiEl
FN:1100,_ZNK9__gnu_cxx17__normal_iteratorIPN5boost9unit_test9framework5state13context_frameESt6vectorIS5_SaIS5_EEEmiEl
FNDA:0,_ZNK9__gnu_cxx17__normal_iteratorIPN5boost9unit_test9framework5state13context_frameESt6vectorIS5_SaIS5_EEEmiEl
FN:1100,_ZNK9__gnu_cxx17__normal_iteratorIPSt6vectorIN5boost9unit_test9framework4impl11name_filter9componentESaIS7_EES1_IS9_SaIS9_EEEmiEl
FNDA:0,_ZNK9__gnu_cxx17__normal_iteratorIPSt6vectorIN5boost9unit_test9framework4impl11name_filter9componentESaIS7_EES1_IS9_SaIS9_EEEmiEl
FN:1100,_ZNK9__gnu_cxx17__normal_iteratorIPSt4pairIPKcPKN5boost9unit_test12lazy_ostreamEESt6vectorIS9_SaIS9_EEEmiEl
FNDA:0,_ZNK9__gnu_cxx17__normal_iteratorIPSt4pairIPKcPKN5boost9unit_test12lazy_ostreamEESt6vectorIS9_SaIS9_EEEmiEl
FN:1100,_ZNK9__gnu_cxx17__normal_iteratorIPN5boost9unit_test9framework4impl11name_filter9componentESt6vectorIS6_SaIS6_EEEmiEl
FNDA:0,_ZNK9__gnu_cxx17__normal_iteratorIPN5boost9unit_test9framework4impl11name_filter9componentESt6vectorIS6_SaIS6_EEEmiEl
FN:1100,_ZNK9__gnu_cxx17__normal_iteratorIPN5boost9unit_test13basic_cstringIKcEESt6vectorIS5_SaIS5_EEEmiEl
FNDA:0,_ZNK9__gnu_cxx17__normal_iteratorIPN5boost9unit_test13basic_cstringIKcEESt6vectorIS5_SaIS5_EEEmiEl
FN:1105,_ZNK9__gnu_cxx17__normal_iteratorIPKNSt7__cxx1112basic_stringIcSt11char_traitsIcESaIcEEESt6vectorIS6_SaIS6_EEE4baseEv
FNDA:8,_ZNK9__gnu_cxx17__normal_iteratorIPKNSt7__cxx1112basic_stringIcSt11char_traitsIcESaIcEEESt6vectorIS6_SaIS6_EEE4baseEv
FN:1105,_ZNK9__gnu_cxx17__normal_iteratorIPN5boost10shared_ptrINS1_9unit_test17test_unit_fixtureEEESt6vectorIS5_SaIS5_EEE4baseEv
FNDA:4,_ZNK9__gnu_cxx17__normal_iteratorIPN5boost10shared_ptrINS1_9unit_test17test_unit_fixtureEEESt6vectorIS5_SaIS5_EEE4baseEv
FN:1105,_ZNK9__gnu_cxx17__normal_iteratorIPN5boost17reference_wrapperIKNS1_7runtime16parameter_cla_idEEESt6vectorIS6_SaIS6_EEE4baseEv
FNDA:2596,_ZNK9__gnu_cxx17__normal_iteratorIPN5boost17reference_wrapperIKNS1_7runtime16parameter_cla_idEEESt6vectorIS6_SaIS6_EEE4baseEv
FN:1105,_ZNK9__gnu_cxx17__normal_iteratorIPSt4pairIN5boost10shared_ptrINS2_9unit_test19test_unit_generatorEEESt6vectorINS3_INS4_9decorator4baseEEESaISA_EEES7_ISD_SaISD_EEE4baseEv
FNDA:4,_ZNK9__gnu_cxx17__normal_iteratorIPSt4pairIN5boost10shared_ptrINS2_9unit_test19test_unit_generatorEEESt6vectorINS3_INS4_9decorator4baseEEESaISA_EEES7_ISD_SaISD_EEE4baseEv
FN:1105,_ZNK9__gnu_cxx17__normal_iteratorIPmSt6vectorImSaImEEE4baseEv
FNDA:68,_ZNK9__gnu_cxx17__normal_iteratorIPmSt6vectorImSaImEEE4baseEv
FN:1105,_ZNK9__gnu_cxx17__normal_iteratorIPKmSt6vectorImSaImEEE4baseEv
FNDA:130,_ZNK9__gnu_cxx17__normal_iteratorIPKmSt6vectorImSaImEEE4baseEv
FN:1105,_ZNK9__gnu_cxx17__normal_iteratorIPKN5boost17reference_wrapperIKNS1_7runtime16parameter_cla_idEEESt6vectorIS6_SaIS6_EEE4baseEv
FNDA:142,_ZNK9__gnu_cxx17__normal_iteratorIPKN5boost17reference_wrapperIKNS1_7runtime16parameter_cla_idEEESt6vectorIS6_SaIS6_EEE4baseEv
FN:1105,_ZNK9__gnu_cxx17__normal_iteratorIPKN5boost7runtime16parameter_cla_idESt6vectorIS3_SaIS3_EEE4baseEv
FNDA:396,_ZNK9__gnu_cxx17__normal_iteratorIPKN5boost7runtime16parameter_cla_idESt6vectorIS3_SaIS3_EEE4baseEv
FN:1105,_ZNK9__gnu_cxx17__normal_iteratorIPN5boost10shared_ptrINS1_7runtime3cla13rt_cla_detail14parameter_trieEEESt6vectorIS7_SaIS7_EEE4baseEv
FNDA:0,_ZNK9__gnu_cxx17__normal_iteratorIPN5boost10shared_ptrINS1_7runtime3cla13rt_cla_detail14parameter_trieEEESt6vectorIS7_SaIS7_EEE4baseEv
FN:1105,_ZNK9__gnu_cxx17__normal_iteratorIPKN5boost9unit_test13basic_cstringIKcEESt6vectorIS5_SaIS5_EEE4baseEv
FNDA:66,_ZNK9__gnu_cxx17__normal_iteratorIPKN5boost9unit_test13basic_cstringIKcEESt6vectorIS5_SaIS5_EEE4baseEv
FN:1105,_ZNK9__gnu_cxx17__normal_iteratorIPKPN5boost9unit_test12_GLOBAL__N_130unit_test_log_data_helper_implESt6vectorIS5_SaIS5_EEE4baseEv
FNDA:238,_ZNK9__gnu_cxx17__normal_iteratorIPKPN5boost9unit_test12_GLOBAL__N_130unit_test_log_data_helper_implESt6vectorIS5_SaIS5_EEE4baseEv
FN:1105,_ZNK9__gnu_cxx17__normal_iteratorIPKN5boost9unit_test6output10junit_impl16junit_log_helper15assertion_entryESt6vectorIS6_SaIS6_EEE4baseEv
FNDA:0,_ZNK9__gnu_cxx17__normal_iteratorIPKN5boost9unit_test6output10junit_impl16junit_log_helper15assertion_entryESt6vectorIS6_SaIS6_EEE4baseEv
FN:1105,_ZNK9__gnu_cxx17__normal_iteratorIPSt6vectorIN5boost9unit_test9framework4impl11name_filter9componentESaIS7_EES1_IS9_SaIS9_EEE4baseEv
FNDA:0,_ZNK9__gnu_cxx17__normal_iteratorIPSt6vectorIN5boost9unit_test9framework4impl11name_filter9componentESaIS7_EES1_IS9_SaIS9_EEE4baseEv
FN:1105,_ZNK9__gnu_cxx17__normal_iteratorIPcNSt7__cxx1112basic_stringIcSt11char_traitsIcESaIcEEEE4baseEv
FNDA:7480,_ZNK9__gnu_cxx17__normal_iteratorIPcNSt7__cxx1112basic_stringIcSt11char_traitsIcESaIcEEEE4baseEv
FN:1105,_ZNK9__gnu_cxx17__normal_iteratorIPN5boost9unit_test9framework5state13context_frameESt6vectorIS5_SaIS5_EEE4baseEv
FNDA:0,_ZNK9__gnu_cxx17__normal_iteratorIPN5boost9unit_test9framework5state13context_frameESt6vectorIS5_SaIS5_EEE4baseEv
FN:1105,_ZNK9__gnu_cxx17__normal_iteratorIPN5boost9unit_test13basic_cstringIKcEESt6vectorIS5_SaIS5_EEE4baseEv
FNDA:76,_ZNK9__gnu_cxx17__normal_iteratorIPN5boost9unit_test13basic_cstringIKcEESt6vectorIS5_SaIS5_EEE4baseEv
FN:1105,_ZNK9__gnu_cxx17__normal_iteratorIPN5boost7runtime16parameter_cla_idESt6vectorIS3_SaIS3_EEE4baseEv
FNDA:284,_ZNK9__gnu_cxx17__normal_iteratorIPN5boost7runtime16parameter_cla_idESt6vectorIS3_SaIS3_EEE4baseEv
FN:1105,_ZNK9__gnu_cxx17__normal_iteratorIPKN5boost9unit_test12_GLOBAL__N_130unit_test_log_data_helper_implESt6vectorIS4_SaIS4_EEE4baseEv
FNDA:0,_ZNK9__gnu_cxx17__normal_iteratorIPKN5boost9unit_test12_GLOBAL__N_130unit_test_log_data_helper_implESt6vectorIS4_SaIS4_EEE4baseEv
FN:1105,_ZNK9__gnu_cxx17__normal_iteratorIPKN5boost10shared_ptrINS1_9unit_test9decorator4baseEEESt6vectorIS6_SaIS6_EEE4baseEv
FNDA:38,_ZNK9__gnu_cxx17__normal_iteratorIPKN5boost10shared_ptrINS1_9unit_test9decorator4baseEEESt6vectorIS6_SaIS6_EEE4baseEv
FN:1105,_ZNK9__gnu_cxx17__normal_iteratorIPKSt6vectorIN5boost10shared_ptrINS2_9unit_test9decorator4baseEEESaIS7_EES1_IS9_SaIS9_EEE4baseEv
FNDA:0,_ZNK9__gnu_cxx17__normal_iteratorIPKSt6vectorIN5boost10shared_ptrINS2_9unit_test9decorator4baseEEESaIS7_EES1_IS9_SaIS9_EEE4baseEv
FN:1105,_ZNK9__gnu_cxx17__normal_iteratorIPKN5boost9unit_test9framework4impl11name_filter9componentESt6vectorIS6_SaIS6_EEE4baseEv
FNDA:0,_ZNK9__gnu_cxx17__normal_iteratorIPKN5boost9unit_test9framework4impl11name_filter9componentESt6vectorIS6_SaIS6_EEE4baseEv
FN:1105,_ZNK9__gnu_cxx17__normal_iteratorIPKN5boost10shared_ptrINS1_9unit_test17test_unit_fixtureEEESt6vectorIS5_SaIS5_EEE4baseEv
FNDA:40,_ZNK9__gnu_cxx17__normal_iteratorIPKN5boost10shared_ptrINS1_9unit_test17test_unit_fixtureEEESt6vectorIS5_SaIS5_EEE4baseEv
FN:1105,_ZNK9__gnu_cxx17__normal_iteratorIPNSt7__cxx1112basic_stringIcSt11char_traitsIcESaIcEEESt6vectorIS6_SaIS6_EEE4baseEv
FNDA:0,_ZNK9__gnu_cxx17__normal_iteratorIPNSt7__cxx1112basic_stringIcSt11char_traitsIcESaIcEEESt6vectorIS6_SaIS6_EEE4baseEv
FN:1105,_ZNK9__gnu_cxx17__normal_iteratorIPKN5boost9unit_test9framework5state13context_frameESt6vectorIS5_SaIS5_EEE4baseEv
FNDA:0,_ZNK9__gnu_cxx17__normal_iteratorIPKN5boost9unit_test9framework5state13context_frameESt6vectorIS5_SaIS5_EEE4baseEv
FN:1105,_ZNK9__gnu_cxx17__normal_iteratorIPSt4pairIPKcPKN5boost9unit_test12lazy_ostreamEESt6vectorIS9_SaIS9_EEE4baseEv
FNDA:0,_ZNK9__gnu_cxx17__normal_iteratorIPSt4pairIPKcPKN5boost9unit_test12lazy_ostreamEESt6vectorIS9_SaIS9_EEE4baseEv
FN:1105,_ZNK9__gnu_cxx17__normal_iteratorIPKPN5boost9unit_test10test_suiteESt6vectorIS4_SaIS4_EEE4baseEv
FNDA:24,_ZNK9__gnu_cxx17__normal_iteratorIPKPN5boost9unit_test10test_suiteESt6vectorIS4_SaIS4_EEE4baseEv
FN:1105,_ZNK9__gnu_cxx17__normal_iteratorIPPN5boost9unit_test10test_suiteESt6vectorIS4_SaIS4_EEE4baseEv
FNDA:8,_ZNK9__gnu_cxx17__normal_iteratorIPPN5boost9unit_test10test_suiteESt6vectorIS4_SaIS4_EEE4baseEv
FN:1105,_ZNK9__gnu_cxx17__normal_iteratorIPSt6vectorIN5boost10shared_ptrINS2_9unit_test9decorator4baseEEESaIS7_EES1_IS9_SaIS9_EEE4baseEv
FNDA:0,_ZNK9__gnu_cxx17__normal_iteratorIPSt6vectorIN5boost10shared_ptrINS2_9unit_test9decorator4baseEEESaIS7_EES1_IS9_SaIS9_EEE4baseEv
FN:1105,_ZNK9__gnu_cxx17__normal_iteratorIPcSt6vectorIcSaIcEEE4baseEv
FNDA:0,_ZNK9__gnu_cxx17__normal_iteratorIPcSt6vectorIcSaIcEEE4baseEv
FN:1105,_ZNK9__gnu_cxx17__normal_iteratorIPN5boost10shared_ptrINS1_9unit_test9decorator4baseEEESt6vectorIS6_SaIS6_EEE4baseEv
FNDA:27,_ZNK9__gnu_cxx17__normal_iteratorIPN5boost10shared_ptrINS1_9unit_test9decorator4baseEEESt6vectorIS6_SaIS6_EEE4baseEv
FN:1105,_ZNK9__gnu_cxx17__normal_iteratorIPN5boost8functionIFNS1_10test_tools16assertion_resultEmEEESt6vectorIS6_SaIS6_EEE4baseEv
FNDA:0,_ZNK9__gnu_cxx17__normal_iteratorIPN5boost8functionIFNS1_10test_tools16assertion_resultEmEEESt6vectorIS6_SaIS6_EEE4baseEv
FN:1105,_ZNK9__gnu_cxx17__normal_iteratorIPKN5boost8functionIFNS1_10test_tools16assertion_resultEmEEESt6vectorIS6_SaIS6_EEE4baseEv
FNDA:20,_ZNK9__gnu_cxx17__normal_iteratorIPKN5boost8functionIFNS1_10test_tools16assertion_resultEmEEESt6vectorIS6_SaIS6_EEE4baseEv
FN:1105,_ZNK9__gnu_cxx17__normal_iteratorIPPN5boost9unit_test12_GLOBAL__N_130unit_test_log_data_helper_implESt6vectorIS5_SaIS5_EEE4baseEv
FNDA:476,_ZNK9__gnu_cxx17__normal_iteratorIPPN5boost9unit_test12_GLOBAL__N_130unit_test_log_data_helper_implESt6vectorIS5_SaIS5_EEE4baseEv
FN:1105,_ZNK9__gnu_cxx17__normal_iteratorIPN5boost9unit_test9framework4impl11name_filter9componentESt6vectorIS6_SaIS6_EEE4baseEv
FNDA:0,_ZNK9__gnu_cxx17__normal_iteratorIPN5boost9unit_test9framework4impl11name_filter9componentESt6vectorIS6_SaIS6_EEE4baseEv
FN:1105,_ZNK9__gnu_cxx17__normal_iteratorIPN5boost9unit_test12_GLOBAL__N_130unit_test_log_data_helper_implESt6vectorIS4_SaIS4_EEE4baseEv
FNDA:52,_ZNK9__gnu_cxx17__normal_iteratorIPN5boost9unit_test12_GLOBAL__N_130unit_test_log_data_helper_implESt6vectorIS4_SaIS4_EEE4baseEv
FN:1105,_ZNK9__gnu_cxx17__normal_iteratorIPN5boost9unit_test6output10junit_impl16junit_log_helper15assertion_entryESt6vectorIS6_SaIS6_EEE4baseEv
FNDA:0,_ZNK9__gnu_cxx17__normal_iteratorIPN5boost9unit_test6output10junit_impl16junit_log_helper15assertion_entryESt6vectorIS6_SaIS6_EEE4baseEv
FN:1163,_ZN9__gnu_cxxeqIPKN5boost10shared_ptrINS1_9unit_test17test_unit_fixtureEEESt6vectorIS5_SaIS5_EEEEbRKNS_17__normal_iteratorIT_T0_EESG_
FNDA:20,_ZN9__gnu_cxxeqIPKN5boost10shared_ptrINS1_9unit_test17test_unit_fixtureEEESt6vectorIS5_SaIS5_EEEEbRKNS_17__normal_iteratorIT_T0_EESG_
FN:1163,_ZN9__gnu_cxxeqIPmSt6vectorImSaImEEEEbRKNS_17__normal_iteratorIT_T0_EESA_
FNDA:22,_ZN9__gnu_cxxeqIPmSt6vectorImSaImEEEEbRKNS_17__normal_iteratorIT_T0_EESA_
FN:1163,_ZN9__gnu_cxxeqIPKmSt6vectorImSaImEEEEbRKNS_17__normal_iteratorIT_T0_EESB_
FNDA:54,_ZN9__gnu_cxxeqIPKmSt6vectorImSaImEEEEbRKNS_17__normal_iteratorIT_T0_EESB_
FN:1163,_ZN9__gnu_cxxeqIPKN5boost9unit_test13basic_cstringIKcEESt6vectorIS5_SaIS5_EEEEbRKNS_17__normal_iteratorIT_T0_EESG_
FNDA:0,_ZN9__gnu_cxxeqIPKN5boost9unit_test13basic_cstringIKcEESt6vectorIS5_SaIS5_EEEEbRKNS_17__normal_iteratorIT_T0_EESG_
FN:1163,_ZN9__gnu_cxxeqIPKN5boost9unit_test6output10junit_impl16junit_log_helper15assertion_entryESt6vectorIS6_SaIS6_EEEEbRKNS_17__normal_iteratorIT_T0_EESH_
FNDA:0,_ZN9__gnu_cxxeqIPKN5boost9unit_test6output10junit_impl16junit_log_helper15assertion_entryESt6vectorIS6_SaIS6_EEEEbRKNS_17__normal_iteratorIT_T0_EESH_
FN:1163,_ZN9__gnu_cxxeqIPKNSt7__cxx1112basic_stringIcSt11char_traitsIcESaIcEEESt6vectorIS6_SaIS6_EEEEbRKNS_17__normal_iteratorIT_T0_EESH_
FNDA:2,_ZN9__gnu_cxxeqIPKNSt7__cxx1112basic_stringIcSt11char_traitsIcESaIcEEESt6vectorIS6_SaIS6_EEEEbRKNS_17__normal_iteratorIT_T0_EESH_
FN:1163,_ZN9__gnu_cxxeqIPKN5boost10shared_ptrINS1_9unit_test9decorator4baseEEESt6vectorIS6_SaIS6_EEEEbRKNS_17__normal_iteratorIT_T0_EESH_
FNDA:10,_ZN9__gnu_cxxeqIPKN5boost10shared_ptrINS1_9unit_test9decorator4baseEEESt6vectorIS6_SaIS6_EEEEbRKNS_17__normal_iteratorIT_T0_EESH_
FN:1163,_ZN9__gnu_cxxeqIPKSt6vectorIN5boost10shared_ptrINS2_9unit_test9decorator4baseEEESaIS7_EES1_IS9_SaIS9_EEEEbRKNS_17__normal_iteratorIT_T0_EESJ_
FNDA:0,_ZN9__gnu_cxxeqIPKSt6vectorIN5boost10shared_ptrINS2_9unit_test9decorator4baseEEESaIS7_EES1_IS9_SaIS9_EEEEbRKNS_17__normal_iteratorIT_T0_EESJ_
FN:1163,_ZN9__gnu_cxxeqIPcNSt7__cxx1112basic_stringIcSt11char_traitsIcESaIcEEEEEbRKNS_17__normal_iteratorIT_T0_EESD_
FNDA:0,_ZN9__gnu_cxxeqIPcNSt7__cxx1112basic_stringIcSt11char_traitsIcESaIcEEEEEbRKNS_17__normal_iteratorIT_T0_EESD_
FN:1163,_ZN9__gnu_cxxeqIPN5boost17reference_wrapperIKNS1_7runtime16parameter_cla_idEEESt6vectorIS6_SaIS6_EEEEbRKNS_17__normal_iteratorIT_T0_EESG_
FNDA:0,_ZN9__gnu_cxxeqIPN5boost17reference_wrapperIKNS1_7runtime16parameter_cla_idEEESt6vectorIS6_SaIS6_EEEEbRKNS_17__normal_iteratorIT_T0_EESG_
FN:1163,_ZN9__gnu_cxxeqIPNSt7__cxx1112basic_stringIcSt11char_traitsIcESaIcEEESt6vectorIS6_SaIS6_EEEEbRKNS_17__normal_iteratorIT_T0_EESG_
FNDA:0,_ZN9__gnu_cxxeqIPNSt7__cxx1112basic_stringIcSt11char_traitsIcESaIcEEESt6vectorIS6_SaIS6_EEEEbRKNS_17__normal_iteratorIT_T0_EESG_
FN:1163,_ZN9__gnu_cxxeqIPN5boost10shared_ptrINS1_7runtime3cla13rt_cla_detail14parameter_trieEEESt6vectorIS7_SaIS7_EEEEbRKNS_17__normal_iteratorIT_T0_EESH_
FNDA:0,_ZN9__gnu_cxxeqIPN5boost10shared_ptrINS1_7runtime3cla13rt_cla_detail14parameter_trieEEESt6vectorIS7_SaIS7_EEEEbRKNS_17__normal_iteratorIT_T0_EESH_
FN:1163,_ZN9__gnu_cxxeqIPKN5boost17reference_wrapperIKNS1_7runtime16parameter_cla_idEEESt6vectorIS6_SaIS6_EEEEbRKNS_17__normal_iteratorIT_T0_EESH_
FNDA:71,_ZN9__gnu_cxxeqIPKN5boost17reference_wrapperIKNS1_7runtime16parameter_cla_idEEESt6vectorIS6_SaIS6_EEEEbRKNS_17__normal_iteratorIT_T0_EESH_
FN:1163,_ZN9__gnu_cxxeqIPKN5boost7runtime16parameter_cla_idESt6vectorIS3_SaIS3_EEEEbRKNS_17__normal_iteratorIT_T0_EESE_
FNDA:99,_ZN9__gnu_cxxeqIPKN5boost7runtime16parameter_cla_idESt6vectorIS3_SaIS3_EEEEbRKNS_17__normal_iteratorIT_T0_EESE_
FN:1163,_ZN9__gnu_cxxeqIPKN5boost8functionIFNS1_10test_tools16assertion_resultEmEEESt6vectorIS6_SaIS6_EEEEbRKNS_17__normal_iteratorIT_T0_EESH_
FNDA:10,_ZN9__gnu_cxxeqIPKN5boost8functionIFNS1_10test_tools16assertion_resultEmEEESt6vectorIS6_SaIS6_EEEEbRKNS_17__normal_iteratorIT_T0_EESH_
FN:1163,_ZN9__gnu_cxxeqIPKPN5boost9unit_test10test_suiteESt6vectorIS4_SaIS4_EEEEbRKNS_17__normal_iteratorIT_T0_EESF_
FNDA:12,_ZN9__gnu_cxxeqIPKPN5boost9unit_test10test_suiteESt6vectorIS4_SaIS4_EEEEbRKNS_17__normal_iteratorIT_T0_EESF_
FN:1163,_ZN9__gnu_cxxeqIPKN5boost9unit_test9framework5state13context_frameESt6vectorIS5_SaIS5_EEEEbRKNS_17__normal_iteratorIT_T0_EESG_
FNDA:0,_ZN9__gnu_cxxeqIPKN5boost9unit_test9framework5state13context_frameESt6vectorIS5_SaIS5_EEEEbRKNS_17__normal_iteratorIT_T0_EESG_
FN:1179,_ZN9__gnu_cxxneIPKNSt7__cxx1112basic_stringIcSt11char_traitsIcESaIcEEESt6vectorIS6_SaIS6_EEEEbRKNS_17__normal_iteratorIT_T0_EESH_
FNDA:2,_ZN9__gnu_cxxneIPKNSt7__cxx1112basic_stringIcSt11char_traitsIcESaIcEEESt6vectorIS6_SaIS6_EEEEbRKNS_17__normal_iteratorIT_T0_EESH_
FN:1179,_ZN9__gnu_cxxneIPN5boost9unit_test9framework5state13context_frameESt6vectorIS5_SaIS5_EEEEbRKNS_17__normal_iteratorIT_T0_EESF_
FNDA:0,_ZN9__gnu_cxxneIPN5boost9unit_test9framework5state13context_frameESt6vectorIS5_SaIS5_EEEEbRKNS_17__normal_iteratorIT_T0_EESF_
FN:1179,_ZN9__gnu_cxxneIPKN5boost7runtime16parameter_cla_idESt6vectorIS3_SaIS3_EEEEbRKNS_17__normal_iteratorIT_T0_EESE_
FNDA:99,_ZN9__gnu_cxxneIPKN5boost7runtime16parameter_cla_idESt6vectorIS3_SaIS3_EEEEbRKNS_17__normal_iteratorIT_T0_EESE_
FN:1179,_ZN9__gnu_cxxneIPKN5boost10shared_ptrINS1_9unit_test9decorator4baseEEESt6vectorIS6_SaIS6_EEEEbRKNS_17__normal_iteratorIT_T0_EESH_
FNDA:0,_ZN9__gnu_cxxneIPKN5boost10shared_ptrINS1_9unit_test9decorator4baseEEESt6vectorIS6_SaIS6_EEEEbRKNS_17__normal_iteratorIT_T0_EESH_
FN:1179,_ZN9__gnu_cxxneIPKN5boost9unit_test9framework4impl11name_filter9componentESt6vectorIS6_SaIS6_EEEEbRKNS_17__normal_iteratorIT_T0_EESH_
FNDA:0,_ZN9__gnu_cxxneIPKN5boost9unit_test9framework4impl11name_filter9componentESt6vectorIS6_SaIS6_EEEEbRKNS_17__normal_iteratorIT_T0_EESH_
FN:1179,_ZN9__gnu_cxxneIPmSt6vectorImSaImEEEEbRKNS_17__normal_iteratorIT_T0_EESA_
FNDA:0,_ZN9__gnu_cxxneIPmSt6vectorImSaImEEEEbRKNS_17__normal_iteratorIT_T0_EESA_
FN:1179,_ZN9__gnu_cxxneIPN5boost10shared_ptrINS1_9unit_test17test_unit_fixtureEEESt6vectorIS5_SaIS5_EEEEbRKNS_17__normal_iteratorIT_T0_EESF_
FNDA:1,_ZN9__gnu_cxxneIPN5boost10shared_ptrINS1_9unit_test17test_unit_fixtureEEESt6vectorIS5_SaIS5_EEEEbRKNS_17__normal_iteratorIT_T0_EESF_
FN:1179,_ZN9__gnu_cxxneIPN5boost10shared_ptrINS1_9unit_test9decorator4baseEEESt6vectorIS6_SaIS6_EEEEbRKNS_17__normal_iteratorIT_T0_EESG_
FNDA:9,_ZN9__gnu_cxxneIPN5boost10shared_ptrINS1_9unit_test9decorator4baseEEESt6vectorIS6_SaIS6_EEEEbRKNS_17__normal_iteratorIT_T0_EESG_
FN:1179,_ZN9__gnu_cxxneIPcNSt7__cxx1112basic_stringIcSt11char_traitsIcESaIcEEEEEbRKNS_17__normal_iteratorIT_T0_EESD_
FNDA:3740,_ZN9__gnu_cxxneIPcNSt7__cxx1112basic_stringIcSt11char_traitsIcESaIcEEEEEbRKNS_17__normal_iteratorIT_T0_EESD_
FN:1179,_ZN9__gnu_cxxneIPKN5boost9unit_test13basic_cstringIKcEESt6vectorIS5_SaIS5_EEEEbRKNS_17__normal_iteratorIT_T0_EESG_
FNDA:33,_ZN9__gnu_cxxneIPKN5boost9unit_test13basic_cstringIKcEESt6vectorIS5_SaIS5_EEEEbRKNS_17__normal_iteratorIT_T0_EESG_
FN:1179,_ZN9__gnu_cxxneIPN5boost9unit_test12_GLOBAL__N_130unit_test_log_data_helper_implESt6vectorIS4_SaIS4_EEEEbRKNS_17__normal_iteratorIT_T0_EESE_
FNDA:0,_ZN9__gnu_cxxneIPN5boost9unit_test12_GLOBAL__N_130unit_test_log_data_helper_implESt6vectorIS4_SaIS4_EEEEbRKNS_17__normal_iteratorIT_T0_EESE_
FN:1179,_ZN9__gnu_cxxneIPKN5boost9unit_test6output10junit_impl16junit_log_helper15assertion_entryESt6vectorIS6_SaIS6_EEEEbRKNS_17__normal_iteratorIT_T0_EESH_
FNDA:0,_ZN9__gnu_cxxneIPKN5boost9unit_test6output10junit_impl16junit_log_helper15assertion_entryESt6vectorIS6_SaIS6_EEEEbRKNS_17__normal_iteratorIT_T0_EESH_
FN:1179,_ZN9__gnu_cxxneIPSt6vectorIN5boost10shared_ptrINS2_9unit_test9decorator4baseEEESaIS7_EES1_IS9_SaIS9_EEEEbRKNS_17__normal_iteratorIT_T0_EESI_
FNDA:0,_ZN9__gnu_cxxneIPSt6vectorIN5boost10shared_ptrINS2_9unit_test9decorator4baseEEESaIS7_EES1_IS9_SaIS9_EEEEbRKNS_17__normal_iteratorIT_T0_EESI_
FN:1195,_ZN9__gnu_cxxltIPPN5boost9unit_test12_GLOBAL__N_130unit_test_log_data_helper_implESt6vectorIS5_SaIS5_EEEEbRKNS_17__normal_iteratorIT_T0_EESF_
FNDA:236,_ZN9__gnu_cxxltIPPN5boost9unit_test12_GLOBAL__N_130unit_test_log_data_helper_implESt6vectorIS5_SaIS5_EEEEbRKNS_17__normal_iteratorIT_T0_EESF_
FN:1195,_ZN9__gnu_cxxltIPSt4pairIN5boost10shared_ptrINS2_9unit_test19test_unit_generatorEEESt6vectorINS3_INS4_9decorator4baseEEESaISA_EEES7_ISD_SaISD_EEEEbRKNS_17__normal_iteratorIT_T0_EESM_
FNDA:2,_ZN9__gnu_cxxltIPSt4pairIN5boost10shared_ptrINS2_9unit_test19test_unit_generatorEEESt6vectorINS3_INS4_9decorator4baseEEESaISA_EEES7_ISD_SaISD_EEEEbRKNS_17__normal_iteratorIT_T0_EESM_
FN:1195,_ZN9__gnu_cxxltIPN5boost9unit_test12_GLOBAL__N_130unit_test_log_data_helper_implESt6vectorIS4_SaIS4_EEEEbRKNS_17__normal_iteratorIT_T0_EESE_
FNDA:20,_ZN9__gnu_cxxltIPN5boost9unit_test12_GLOBAL__N_130unit_test_log_data_helper_implESt6vectorIS4_SaIS4_EEEEbRKNS_17__normal_iteratorIT_T0_EESE_
FN:1195,_ZN9__gnu_cxxltIPKmSt6vectorImSaImEEEEbRKNS_17__normal_iteratorIT_T0_EESB_
FNDA:11,_ZN9__gnu_cxxltIPKmSt6vectorImSaImEEEEbRKNS_17__normal_iteratorIT_T0_EESB_
FN:1195,_ZN9__gnu_cxxltIPKPN5boost9unit_test12_GLOBAL__N_130unit_test_log_data_helper_implESt6vectorIS5_SaIS5_EEEEbRKNS_17__normal_iteratorIT_T0_EESG_
FNDA:119,_ZN9__gnu_cxxltIPKPN5boost9unit_test12_GLOBAL__N_130unit_test_log_data_helper_implESt6vectorIS5_SaIS5_EEEEbRKNS_17__normal_iteratorIT_T0_EESG_
FN:1268,_ZN9__gnu_cxxmiIPPN5boost9unit_test12_GLOBAL__N_130unit_test_log_data_helper_implESt6vectorIS5_SaIS5_EEEENS_17__normal_iteratorIT_T0_E15difference_typeERKSD_SG_
FNDA:1,_ZN9__gnu_cxxmiIPPN5boost9unit_test12_GLOBAL__N_130unit_test_log_data_helper_implESt6vectorIS5_SaIS5_EEEENS_17__normal_iteratorIT_T0_E15difference_typeERKSD_SG_
FN:1268,_ZN9__gnu_cxxmiIPKN5boost10shared_ptrINS1_9unit_test17test_unit_fixtureEEESt6vectorIS5_SaIS5_EEEENS_17__normal_iteratorIT_T0_E15difference_typeERKSE_SH_
FNDA:0,_ZN9__gnu_cxxmiIPKN5boost10shared_ptrINS1_9unit_test17test_unit_fixtureEEESt6vectorIS5_SaIS5_EEEENS_17__normal_iteratorIT_T0_E15difference_typeERKSE_SH_
FN:1268,_ZN9__gnu_cxxmiIPN5boost7runtime16parameter_cla_idESt6vectorIS3_SaIS3_EEEENS_17__normal_iteratorIT_T0_E15difference_typeERKSB_SE_
FNDA:71,_ZN9__gnu_cxxmiIPN5boost7runtime16parameter_cla_idESt6vectorIS3_SaIS3_EEEENS_17__normal_iteratorIT_T0_E15difference_typeERKSB_SE_
FN:1268,_ZN9__gnu_cxxmiIPN5boost9unit_test13basic_cstringIKcEESt6vectorIS5_SaIS5_EEEENS_17__normal_iteratorIT_T0_E15difference_typeERKSD_SG_
FNDA:19,_ZN9__gnu_cxxmiIPN5boost9unit_test13basic_cstringIKcEESt6vectorIS5_SaIS5_EEEENS_17__normal_iteratorIT_T0_E15difference_typeERKSD_SG_
FN:1268,_ZN9__gnu_cxxmiIPcNSt7__cxx1112basic_stringIcSt11char_traitsIcESaIcEEEEENS_17__normal_iteratorIT_T0_E15difference_typeERKSB_SE_
FNDA:0,_ZN9__gnu_cxxmiIPcNSt7__cxx1112basic_stringIcSt11char_traitsIcESaIcEEEEENS_17__normal_iteratorIT_T0_E15difference_typeERKSB_SE_
FN:1268,_ZN9__gnu_cxxmiIPN5boost9unit_test6output10junit_impl16junit_log_helper15assertion_entryESt6vectorIS6_SaIS6_EEEENS_17__normal_iteratorIT_T0_E15difference_typeERKSE_SH_
FNDA:0,_ZN9__gnu_cxxmiIPN5boost9unit_test6output10junit_impl16junit_log_helper15assertion_entryESt6vectorIS6_SaIS6_EEEENS_17__normal_iteratorIT_T0_E15difference_typeERKSE_SH_
FN:1268,_ZN9__gnu_cxxmiIPN5boost9unit_test9framework4impl11name_filter9componentESt6vectorIS6_SaIS6_EEEENS_17__normal_iteratorIT_T0_E15difference_typeERKSE_SH_
FNDA:0,_ZN9__gnu_cxxmiIPN5boost9unit_test9framework4impl11name_filter9componentESt6vectorIS6_SaIS6_EEEENS_17__normal_iteratorIT_T0_E15difference_typeERKSE_SH_
FN:1268,_ZN9__gnu_cxxmiIPSt4pairIPKcPKN5boost9unit_test12lazy_ostreamEESt6vectorIS9_SaIS9_EEEENS_17__normal_iteratorIT_T0_E15difference_typeERKSH_SK_
FNDA:0,_ZN9__gnu_cxxmiIPSt4pairIPKcPKN5boost9unit_test12lazy_ostreamEESt6vectorIS9_SaIS9_EEEENS_17__normal_iteratorIT_T0_E15difference_typeERKSH_SK_
FN:1268,_ZN9__gnu_cxxmiIPKN5boost9unit_test12_GLOBAL__N_130unit_test_log_data_helper_implESt6vectorIS4_SaIS4_EEEENS_17__normal_iteratorIT_T0_E15difference_typeERKSD_SG_
FNDA:0,_ZN9__gnu_cxxmiIPKN5boost9unit_test12_GLOBAL__N_130unit_test_log_data_helper_implESt6vectorIS4_SaIS4_EEEENS_17__normal_iteratorIT_T0_E15difference_typeERKSD_SG_
FN:1268,_ZN9__gnu_cxxmiIPKmSt6vectorImSaImEEEENS_17__normal_iteratorIT_T0_E15difference_typeERKS9_SC_
FNDA:0,_ZN9__gnu_cxxmiIPKmSt6vectorImSaImEEEENS_17__normal_iteratorIT_T0_E15difference_typeERKS9_SC_
FN:1268,_ZN9__gnu_cxxmiIPmSt6vectorImSaImEEEENS_17__normal_iteratorIT_T0_E15difference_typeERKS8_SB_
FNDA:5,_ZN9__gnu_cxxmiIPmSt6vectorImSaImEEEENS_17__normal_iteratorIT_T0_E15difference_typeERKS8_SB_
FN:1268,_ZN9__gnu_cxxmiIPKN5boost9unit_test9framework5state13context_frameESt6vectorIS5_SaIS5_EEEENS_17__normal_iteratorIT_T0_E15difference_typeERKSE_SH_
FNDA:0,_ZN9__gnu_cxxmiIPKN5boost9unit_test9framework5state13context_frameESt6vectorIS5_SaIS5_EEEENS_17__normal_iteratorIT_T0_E15difference_typeERKSE_SH_
FN:1268,_ZN9__gnu_cxxmiIPKNSt7__cxx1112basic_stringIcSt11char_traitsIcESaIcEEESt6vectorIS6_SaIS6_EEEENS_17__normal_iteratorIT_T0_E15difference_typeERKSF_SI_
FNDA:0,_ZN9__gnu_cxxmiIPKNSt7__cxx1112basic_stringIcSt11char_traitsIcESaIcEEESt6vectorIS6_SaIS6_EEEENS_17__normal_iteratorIT_T0_E15difference_typeERKSF_SI_
FN:1268,_ZN9__gnu_cxxmiIPKSt6vectorIN5boost10shared_ptrINS2_9unit_test9decorator4baseEEESaIS7_EES1_IS9_SaIS9_EEEENS_17__normal_iteratorIT_T0_E15difference_typeERKSH_SK_
FNDA:0,_ZN9__gnu_cxxmiIPKSt6vectorIN5boost10shared_ptrINS2_9unit_test9decorator4baseEEESaIS7_EES1_IS9_SaIS9_EEEENS_17__normal_iteratorIT_T0_E15difference_typeERKSH_SK_
FN:1268,_ZN9__gnu_cxxmiIPcSt6vectorIcSaIcEEEENS_17__normal_iteratorIT_T0_E15difference_typeERKS8_SB_
FNDA:0,_ZN9__gnu_cxxmiIPcSt6vectorIcSaIcEEEENS_17__normal_iteratorIT_T0_E15difference_typeERKS8_SB_
FN:1268,_ZN9__gnu_cxxmiIPKN5boost10shared_ptrINS1_9unit_test9decorator4baseEEESt6vectorIS6_SaIS6_EEEENS_17__normal_iteratorIT_T0_E15difference_typeERKSF_SI_
FNDA:9,_ZN9__gnu_cxxmiIPKN5boost10shared_ptrINS1_9unit_test9decorator4baseEEESt6vectorIS6_SaIS6_EEEENS_17__normal_iteratorIT_T0_E15difference_typeERKSF_SI_
FN:1268,_ZN9__gnu_cxxmiIPN5boost8functionIFNS1_10test_tools16assertion_resultEmEEESt6vectorIS6_SaIS6_EEEENS_17__normal_iteratorIT_T0_E15difference_typeERKSE_SH_
FNDA:0,_ZN9__gnu_cxxmiIPN5boost8functionIFNS1_10test_tools16assertion_resultEmEEESt6vectorIS6_SaIS6_EEEENS_17__normal_iteratorIT_T0_E15difference_typeERKSE_SH_
FN:1268,_ZN9__gnu_cxxmiIPSt4pairIN5boost10shared_ptrINS2_9unit_test19test_unit_generatorEEESt6vectorINS3_INS4_9decorator4baseEEESaISA_EEES7_ISD_SaISD_EEEENS_17__normal_iteratorIT_T0_E15difference_typeERKSK_SN_
FNDA:0,_ZN9__gnu_cxxmiIPSt4pairIN5boost10shared_ptrINS2_9unit_test19test_unit_generatorEEESt6vectorINS3_INS4_9decorator4baseEEESaISA_EEES7_ISD_SaISD_EEEENS_17__normal_iteratorIT_T0_E15difference_typeERKSK_SN_
FN:1268,_ZN9__gnu_cxxmiIPPN5boost9unit_test10test_suiteESt6vectorIS4_SaIS4_EEEENS_17__normal_iteratorIT_T0_E15difference_typeERKSC_SF_
FNDA:2,_ZN9__gnu_cxxmiIPPN5boost9unit_test10test_suiteESt6vectorIS4_SaIS4_EEEENS_17__normal_iteratorIT_T0_E15difference_typeERKSC_SF_
FN:1268,_ZN9__gnu_cxxmiIPN5boost17reference_wrapperIKNS1_7runtime16parameter_cla_idEEESt6vectorIS6_SaIS6_EEEENS_17__normal_iteratorIT_T0_E15difference_typeERKSE_SH_
FNDA:649,_ZN9__gnu_cxxmiIPN5boost17reference_wrapperIKNS1_7runtime16parameter_cla_idEEESt6vectorIS6_SaIS6_EEEENS_17__normal_iteratorIT_T0_E15difference_typeERKSE_SH_
FN:1268,_ZN9__gnu_cxxmiIPN5boost10shared_ptrINS1_7runtime3cla13rt_cla_detail14parameter_trieEEESt6vectorIS7_SaIS7_EEEENS_17__normal_iteratorIT_T0_E15difference_typeERKSF_SI_
FNDA:0,_ZN9__gnu_cxxmiIPN5boost10shared_ptrINS1_7runtime3cla13rt_cla_detail14parameter_trieEEESt6vectorIS7_SaIS7_EEEENS_17__normal_iteratorIT_T0_E15difference_typeERKSF_SI_
FN:1268,_ZN9__gnu_cxxmiIPN5boost10shared_ptrINS1_9unit_test9decorator4baseEEESt6vectorIS6_SaIS6_EEEENS_17__normal_iteratorIT_T0_E15difference_typeERKSE_SH_
FNDA:0,_ZN9__gnu_cxxmiIPN5boost10shared_ptrINS1_9unit_test9decorator4baseEEESt6vectorIS6_SaIS6_EEEENS_17__normal_iteratorIT_T0_E15difference_typeERKSE_SH_
FN:1268,_ZN9__gnu_cxxmiIPSt6vectorIN5boost10shared_ptrINS2_9unit_test9decorator4baseEEESaIS7_EES1_IS9_SaIS9_EEEENS_17__normal_iteratorIT_T0_E15difference_typeERKSG_SJ_
FNDA:0,_ZN9__gnu_cxxmiIPSt6vectorIN5boost10shared_ptrINS2_9unit_test9decorator4baseEEESaIS7_EES1_IS9_SaIS9_EEEENS_17__normal_iteratorIT_T0_E15difference_typeERKSG_SJ_
FN:1268,_ZN9__gnu_cxxmiIPSt6vectorIN5boost9unit_test9framework4impl11name_filter9componentESaIS7_EES1_IS9_SaIS9_EEEENS_17__normal_iteratorIT_T0_E15difference_typeERKSG_SJ_
FNDA:0,_ZN9__gnu_cxxmiIPSt6vectorIN5boost9unit_test9framework4impl11name_filter9componentESaIS7_EES1_IS9_SaIS9_EEEENS_17__normal_iteratorIT_T0_E15difference_typeERKSG_SJ_
FN:1268,_ZN9__gnu_cxxmiIPKN5boost9unit_test9framework4impl11name_filter9componentESt6vectorIS6_SaIS6_EEEENS_17__normal_iteratorIT_T0_E15difference_typeERKSF_SI_
FNDA:0,_ZN9__gnu_cxxmiIPKN5boost9unit_test9framework4impl11name_filter9componentESt6vectorIS6_SaIS6_EEEENS_17__normal_iteratorIT_T0_E15difference_typeERKSF_SI_
FN:1268,_ZN9__gnu_cxxmiIPN5boost9unit_test9framework5state13context_frameESt6vectorIS5_SaIS5_EEEENS_17__normal_iteratorIT_T0_E15difference_typeERKSD_SG_
FNDA:0,_ZN9__gnu_cxxmiIPN5boost9unit_test9framework5state13context_frameESt6vectorIS5_SaIS5_EEEENS_17__normal_iteratorIT_T0_E15difference_typeERKSD_SG_
FN:1268,_ZN9__gnu_cxxmiIPNSt7__cxx1112basic_stringIcSt11char_traitsIcESaIcEEESt6vectorIS6_SaIS6_EEEENS_17__normal_iteratorIT_T0_E15difference_typeERKSE_SH_
FNDA:0,_ZN9__gnu_cxxmiIPNSt7__cxx1112basic_stringIcSt11char_traitsIcESaIcEEESt6vectorIS6_SaIS6_EEEENS_17__normal_iteratorIT_T0_E15difference_typeERKSE_SH_
FN:1268,_ZN9__gnu_cxxmiIPN5boost10shared_ptrINS1_9unit_test17test_unit_fixtureEEESt6vectorIS5_SaIS5_EEEENS_17__normal_iteratorIT_T0_E15difference_typeERKSD_SG_
FNDA:1,_ZN9__gnu_cxxmiIPN5boost10shared_ptrINS1_9unit_test17test_unit_fixtureEEESt6vectorIS5_SaIS5_EEEENS_17__normal_iteratorIT_T0_E15difference_typeERKSD_SG_
FN:1268,_ZN9__gnu_cxxmiIPN5boost9unit_test12_GLOBAL__N_130unit_test_log_data_helper_implESt6vectorIS4_SaIS4_EEEENS_17__normal_iteratorIT_T0_E15difference_typeERKSC_SF_
FNDA:3,_ZN9__gnu_cxxmiIPN5boost9unit_test12_GLOBAL__N_130unit_test_log_data_helper_implESt6vectorIS4_SaIS4_EEEENS_17__normal_iteratorIT_T0_E15difference_typeERKSC_SF_
FN:1291,_ZSt12__niter_baseIPSt6vectorIN5boost10shared_ptrINS1_9unit_test9decorator4baseEEESaIS6_EES0_IS8_SaIS8_EEET_N9__gnu_cxx17__normal_iteratorISC_T0_EE
FNDA:0,_ZSt12__niter_baseIPSt6vectorIN5boost10shared_ptrINS1_9unit_test9decorator4baseEEESaIS6_EES0_IS8_SaIS8_EEET_N9__gnu_cxx17__normal_iteratorISC_T0_EE
FN:1291,_ZSt12__niter_baseIPN5boost10shared_ptrINS0_9unit_test9decorator4baseEEESt6vectorIS5_SaIS5_EEET_N9__gnu_cxx17__normal_iteratorISA_T0_EE
FNDA:0,_ZSt12__niter_baseIPN5boost10shared_ptrINS0_9unit_test9decorator4baseEEESt6vectorIS5_SaIS5_EEET_N9__gnu_cxx17__normal_iteratorISA_T0_EE
FN:1291,_ZSt12__niter_baseIPN5boost9unit_test9framework5state13context_frameESt6vectorIS4_SaIS4_EEET_N9__gnu_cxx17__normal_iteratorIS9_T0_EE
FNDA:0,_ZSt12__niter_baseIPN5boost9unit_test9framework5state13context_frameESt6vectorIS4_SaIS4_EEET_N9__gnu_cxx17__normal_iteratorIS9_T0_EE
FN:1291,_ZSt12__niter_baseIPmSt6vectorImSaImEEET_N9__gnu_cxx17__normal_iteratorIS4_T0_EE
FNDA:0,_ZSt12__niter_baseIPmSt6vectorImSaImEEET_N9__gnu_cxx17__normal_iteratorIS4_T0_EE
FN:1291,_ZSt12__niter_baseIPN5boost9unit_test12_GLOBAL__N_130unit_test_log_data_helper_implESt6vectorIS3_SaIS3_EEET_N9__gnu_cxx17__normal_iteratorIS8_T0_EE
FNDA:0,_ZSt12__niter_baseIPN5boost9unit_test12_GLOBAL__N_130unit_test_log_data_helper_implESt6vectorIS3_SaIS3_EEET_N9__gnu_cxx17__normal_iteratorIS8_T0_EE
FN:1439,_ZNSt13move_iteratorIPN5boost10shared_ptrINS0_9unit_test9decorator4baseEEEEC2ES6_
FNDA:0,_ZNSt13move_iteratorIPN5boost10shared_ptrINS0_9unit_test9decorator4baseEEEEC2ES6_
FN:1464,_ZNKSt13move_iteratorIPN5boost10shared_ptrINS0_9unit_test9decorator4baseEEEE4baseEv
FNDA:0,_ZNKSt13move_iteratorIPN5boost10shared_ptrINS0_9unit_test9decorator4baseEEEE4baseEv
FN:1477,_ZNKSt13move_iteratorIPN5boost10shared_ptrINS0_9unit_test9decorator4baseEEEEdeEv
FNDA:0,_ZNKSt13move_iteratorIPN5boost10shared_ptrINS0_9unit_test9decorator4baseEEEEdeEv
FN:1489,_ZNSt13move_iteratorIPN5boost10shared_ptrINS0_9unit_test9decorator4baseEEEEppEv
FNDA:0,_ZNSt13move_iteratorIPN5boost10shared_ptrINS0_9unit_test9decorator4baseEEEEppEv
FN:1648,_ZSteqIPN5boost10shared_ptrINS0_9unit_test9decorator4baseEEEEbRKSt13move_iteratorIT_ESB_
FNDA:0,_ZSteqIPN5boost10shared_ptrINS0_9unit_test9decorator4baseEEEEbRKSt13move_iteratorIT_ESB_
FN:1661,_ZStneIPN5boost10shared_ptrINS0_9unit_test9decorator4baseEEEEbRKSt13move_iteratorIT_ESB_
FNDA:0,_ZStneIPN5boost10shared_ptrINS0_9unit_test9decorator4baseEEEEbRKSt13move_iteratorIT_ESB_
FN:1706,_ZSt18make_move_iteratorIPN5boost10shared_ptrINS0_9unit_test9decorator4baseEEEESt13move_iteratorIT_ES8_
FNDA:0,_ZSt18make_move_iteratorIPN5boost10shared_ptrINS0_9unit_test9decorator4baseEEEESt13move_iteratorIT_ES8_
FN:1723,_ZSt32__make_move_if_noexcept_iteratorIN5boost10shared_ptrINS0_9unit_test9decorator4baseEEESt13move_iteratorIPS5_EET0_PT_
FNDA:0,_ZSt32__make_move_if_noexcept_iteratorIN5boost10shared_ptrINS0_9unit_test9decorator4baseEEESt13move_iteratorIPS5_EET0_PT_
FN:1723,_ZSt32__make_move_if_noexcept_iteratorIN5boost9unit_test9framework4impl11name_filter9componentEPKS5_ET0_PT_
FNDA:0,_ZSt32__make_move_if_noexcept_iteratorIN5boost9unit_test9framework4impl11name_filter9componentEPKS5_ET0_PT_
FN:1723,_ZSt32__make_move_if_noexcept_iteratorIN5boost8functionIFNS0_10test_tools16assertion_resultEmEEEPKS5_ET0_PT_
FNDA:0,_ZSt32__make_move_if_noexcept_iteratorIN5boost8functionIFNS0_10test_tools16assertion_resultEmEEEPKS5_ET0_PT_
FN:1723,_ZSt32__make_move_if_noexcept_iteratorIN5boost9unit_test13basic_cstringIKcEEPKS4_ET0_PT_
FNDA:76,_ZSt32__make_move_if_noexcept_iteratorIN5boost9unit_test13basic_cstringIKcEEPKS4_ET0_PT_
DA:242,0
DA:244,0
DA:245,0
DA:1027,8
DA:1028,8
DA:1027,40
DA:1028,40
DA:1027,72
DA:1028,72
DA:1027,29
DA:1028,29
DA:1027,0
DA:1028,0
DA:1027,242
DA:1028,242
DA:1027,22
DA:1028,22
DA:1027,122
DA:1028,122
DA:1027,4
DA:1028,4
DA:1027,0
DA:1028,0
DA:1027,2
DA:1028,2
DA:1027,0
DA:1028,0
DA:1027,22
DA:1028,22
DA:1027,0
DA:1028,0
DA:1027,0
DA:1028,0
DA:1027,63
DA:1028,63
DA:1027,27
DA:1028,27
DA:1027,0
DA:1028,0
DA:1027,112
DA:1028,112
DA:1027,0
DA:1028,0
DA:1027,38
DA:1028,38
DA:1027,284
DA:1028,284
DA:1027,0
DA:1028,0
DA:1027,12
DA:1028,12
DA:1027,0
DA:1028,0
DA:1027,1298
DA:1028,1298
DA:1027,142
DA:1028,142
DA:1027,0
DA:1028,0
DA:1027,0
DA:1028,0
DA:1027,20
DA:1028,20
DA:1027,0
DA:1028,0
DA:1027,0
DA:1028,0
DA:1027,30
DA:1028,30
DA:1027,24
DA:1028,24
DA:1027,0
DA:1028,0
DA:1033,0
DA:1037,0
DA:1033,4
DA:1037,4
DA:1033,0
DA:1037,0
DA:1033,0
DA:1037,0
DA:1033,0
DA:1037,0
DA:1033,9
DA:1037,9
DA:1033,0
DA:1037,0
DA:1042,0
DA:1043,0
DA:1042,0
DA:1043,0
DA:1042,0
DA:1043,0
DA:1042,27
DA:1043,27
DA:1042,58
DA:1043,58
DA:1042,14
DA:1043,14
DA:1042,120
DA:1043,120
DA:1042,5039
DA:1043,5039
DA:1042,0
DA:1043,0
DA:1042,0
DA:1043,0
DA:1042,18
DA:1043,18
DA:1042,0
DA:1043,0
DA:1042,0
DA:1043,0
DA:1042,0
DA:1043,0
DA:1042,13
DA:1043,13
DA:1042,0
DA:1043,0
DA:1042,142
DA:1043,142
DA:1042,0
DA:1043,0
DA:1042,0
DA:1043,0
DA:1042,27
DA:1043,27
DA:1042,0
DA:1043,0
DA:1042,0
DA:1043,0
DA:1042,0
DA:1043,0
DA:1042,0
DA:1043,0
DA:1042,0
DA:1043,0
DA:1042,71
DA:1043,71
DA:1042,0
DA:1043,0
DA:1042,0
DA:1043,0
DA:1042,0
DA:1043,0
DA:1047,10
DA:1048,10
DA:1047,0
DA:1048,0
DA:1047,27
DA:1048,27
DA:1047,0
DA:1048,0
DA:1052,0
DA:1054,0
DA:1055,0
DA:1052,0
DA:1054,0
DA:1055,0
DA:1052,0
DA:1054,0
DA:1055,0
DA:1052,27
DA:1054,27
DA:1055,27
DA:1052,58
DA:1054,58
DA:1055,58
DA:1052,15
DA:1054,15
DA:1055,15
DA:1052,118
DA:1054,118
DA:1055,118
DA:1052,5039
DA:1054,5039
DA:1055,5039
DA:1052,0
DA:1054,0
DA:1055,0
DA:1052,18
DA:1054,18
DA:1055,18
DA:1052,0
DA:1054,0
DA:1055,0
DA:1052,0
DA:1054,0
DA:1055,0
DA:1052,0
DA:1054,0
DA:1055,0
DA:1052,0
DA:1054,0
DA:1055,0
DA:1052,142
DA:1054,142
DA:1055,142
DA:1052,0
DA:1054,0
DA:1055,0
DA:1052,0
DA:1054,0
DA:1055,0
DA:1052,27
DA:1054,27
DA:1055,27
DA:1052,0
DA:1054,0
DA:1055,0
DA:1052,0
DA:1054,0
DA:1055,0
DA:1052,0
DA:1054,0
DA:1055,0
DA:1066,0
DA:1068,0
DA:1069,0
DA:1066,0
DA:1068,0
DA:1069,0
DA:1080,0
DA:1081,0
DA:1085,0
DA:1086,0
DA:1090,0
DA:1091,0
DA:1090,0
DA:1091,0
DA:1090,0
DA:1091,0
DA:1090,0
DA:1091,0
DA:1090,18
DA:1091,18
DA:1090,0
DA:1091,0
DA:1100,0
DA:1101,0
DA:1100,0
DA:1101,0
DA:1100,0
DA:1101,0
DA:1100,71
DA:1101,71
DA:1100,2
DA:1101,2
DA:1100,3
DA:1101,3
DA:1100,0
DA:1101,0
DA:1100,0
DA:1101,0
DA:1100,0
DA:1101,0
DA:1100,0
DA:1101,0
DA:1100,13
DA:1101,13
DA:1100,0
DA:1101,0
DA:1100,0
DA:1101,0
DA:1100,0
DA:1101,0
DA:1105,4
DA:1106,4
DA:1105,0
DA:1106,0
DA:1105,38
DA:1106,38
DA:1105,0
DA:1106,0
DA:1105,476
DA:1106,476
DA:1105,52
DA:1106,52
DA:1105,238
DA:1106,238
DA:1105,130
DA:1106,130
DA:1105,68
DA:1106,68
DA:1105,40
DA:1106,40
DA:1105,8
DA:1106,8
DA:1105,4
DA:1106,4
DA:1105,0
DA:1106,0
DA:1105,0
DA:1106,0
DA:1105,0
DA:1106,0
DA:1105,27
DA:1106,27
DA:1105,0
DA:1106,0
DA:1105,7480
DA:1106,7480
DA:1105,396
DA:1106,396
DA:1105,0
DA:1106,0
DA:1105,76
DA:1106,76
DA:1105,284
DA:1106,284
DA:1105,0
DA:1106,0
DA:1105,66
DA:1106,66
DA:1105,0
DA:1106,0
DA:1105,2596
DA:1106,2596
DA:1105,142
DA:1106,142
DA:1105,0
DA:1106,0
DA:1105,0
DA:1106,0
DA:1105,20
DA:1106,20
DA:1105,0
DA:1106,0
DA:1105,0
DA:1106,0
DA:1105,8
DA:1106,8
DA:1105,24
DA:1106,24
DA:1105,0
DA:1106,0
DA:1105,0
DA:1106,0
DA:1163,12
DA:1166,12
DA:1163,0
DA:1166,0
DA:1163,54
DA:1166,54
DA:1163,2
DA:1166,2
DA:1163,22
DA:1166,22
DA:1163,20
DA:1166,20
DA:1163,0
DA:1166,0
DA:1163,10
DA:1166,10
DA:1163,0
DA:1166,0
DA:1163,0
DA:1166,0
DA:1163,10
DA:1166,10
DA:1163,99
DA:1166,99
DA:1163,71
DA:1166,71
DA:1163,0
DA:1166,0
DA:1163,0
DA:1166,0
DA:1163,0
DA:1166,0
DA:1163,0
DA:1166,0
DA:1179,33
DA:1182,33
DA:1179,1
DA:1182,1
DA:1179,99
DA:1182,99
DA:1179,0
DA:1182,0
DA:1179,9
DA:1182,9
DA:1179,0
DA:1182,0
DA:1179,0
DA:1182,0
DA:1179,3740
DA:1182,3740
DA:1179,0
DA:1182,0
DA:1179,2
DA:1182,2
DA:1179,0
DA:1182,0
DA:1179,0
DA:1182,0
DA:1179,0
DA:1182,0
DA:1195,236
DA:1198,236
DA:1195,20
DA:1198,20
DA:1195,119
DA:1198,119
DA:1195,11
DA:1198,11
DA:1195,2
DA:1198,2
DA:1268,649
DA:1271,649
DA:1268,9
DA:1271,9
DA:1268,0
DA:1271,0
DA:1268,5
DA:1271,5
DA:1268,0
DA:1271,0
DA:1268,0
DA:1271,0
DA:1268,0
DA:1271,0
DA:1268,0
DA:1271,0
DA:1268,1
DA:1271,1
DA:1268,0
DA:1271,0
DA:1268,2
DA:1271,2
DA:1268,0
DA:1271,0
DA:1268,0
DA:1271,0
DA:1268,0
DA:1271,0
DA:1268,0
DA:1271,0
DA:1268,0
DA:1271,0
DA:1268,0
DA:1271,0
DA:1268,0
DA:1271,0
DA:1268,0
DA:1271,0
DA:1268,0
DA:1271,0
DA:1268,0
DA:1271,0
DA:1268,0
DA:1271,0
DA:1268,0
DA:1271,0
DA:1268,3
DA:1271,3
DA:1268,1
DA:1271,1
DA:1268,71
DA:1271,71
DA:1268,19
DA:1271,19
DA:1268,0
DA:1271,0
DA:1268,0
DA:1271,0
DA:1291,0
DA:1293,0
DA:1291,0
DA:1293,0
DA:1291,0
DA:1293,0
DA:1291,0
DA:1293,0
DA:1291,0
DA:1293,0
DA:1439,0
DA:1440,0
DA:1464,0
DA:1465,0
DA:1477,0
DA:1481,0
DA:1489,0
DA:1491,0
DA:1492,0
DA:1648,0
DA:1650,0
DA:1661,0
DA:1663,0
DA:1706,0
DA:1707,0
DA:1723,0
DA:1724,0
DA:1723,0
DA:1724,0
DA:1723,0
DA:1724,0
DA:1723,76
DA:1724,76
end_of_record
SF:/usr/include/boost/function/function_base.hpp
FN:259,_ZN5boost6detail8function22functor_manager_commonIPFvRKNS_5debug16dbg_startup_infoEEE10manage_ptrERKNS1_15function_bufferERSA_NS1_30functor_manager_operation_typeE
FNDA:9,_ZN5boost6detail8function22functor_manager_commonIPFvRKNS_5debug16dbg_startup_infoEEE10manage_ptrERKNS1_15function_bufferERSA_NS1_30functor_manager_operation_typeE
FN:259,_ZN5boost6detail8function22functor_manager_commonIPFvvEE10manage_ptrERKNS1_15function_bufferERS6_NS1_30functor_manager_operation_typeE
FNDA:8,_ZN5boost6detail8function22functor_manager_commonIPFvvEE10manage_ptrERKNS1_15function_bufferERS6_NS1_30functor_manager_operation_typeE
FN:283,_ZN5boost6detail8function22functor_manager_commonIZNS_9unit_test14runtime_config12_GLOBAL__N_119register_parametersERNS_7runtime16parameters_storeEEUlNS3_13basic_cstringIKcEEE_E12manage_smallERKNS1_15function_bufferERSE_NS1_30functor_manager_operation_typeE
FNDA:0,_ZN5boost6detail8function22functor_manager_commonIZNS_9unit_test14runtime_config12_GLOBAL__N_119register_parametersERNS_7runtime16parameters_storeEEUlNS3_13basic_cstringIKcEEE_E12manage_smallERKNS1_15function_bufferERSE_NS1_30functor_manager_operation_typeE
FN:283,_ZN5boost6detail8function22functor_manager_commonINS0_7forwardEE12manage_smallERKNS1_15function_bufferERS5_NS1_30functor_manager_operation_typeE
FNDA:0,_ZN5boost6detail8function22functor_manager_commonINS0_7forwardEE12manage_smallERKNS1_15function_bufferERS5_NS1_30functor_manager_operation_typeE
FN:283,_ZN5boost6detail8function22functor_manager_commonINS_3_bi6bind_tIvPFvPFPNS_9unit_test10test_suiteEiPPcEENS3_5list1INS3_5valueISB_EEEEEEE12manage_smallERKNS1_15function_bufferERSK_NS1_30functor_manager_operation_typeE
FNDA:0,_ZN5boost6detail8function22functor_manager_commonINS_3_bi6bind_tIvPFvPFPNS_9unit_test10test_suiteEiPPcEENS3_5list1INS3_5valueISB_EEEEEEE12manage_smallERKNS1_15function_bufferERSK_NS1_30functor_manager_operation_typeE
FN:283,_ZN5boost6detail8function22functor_manager_commonINS_3_bi6bind_tIvPFvRSoENS3_5list1INS_17reference_wrapperISoEEEEEEE12manage_smallERKNS1_15function_bufferERSE_NS1_30functor_manager_operation_typeE
FNDA:0,_ZN5boost6detail8function22functor_manager_commonINS_3_bi6bind_tIvPFvRSoENS3_5list1INS_17reference_wrapperISoEEEEEEE12manage_smallERKNS1_15function_bufferERSE_NS1_30functor_manager_operation_typeE
FN:322,_ZN5boost6detail8function15functor_managerIPFvvEE7managerERKNS1_15function_bufferERS6_NS1_30functor_manager_operation_typeENS1_16function_ptr_tagE
FNDA:8,_ZN5boost6detail8function15functor_managerIPFvvEE7managerERKNS1_15function_bufferERS6_NS1_30functor_manager_operation_typeENS1_16function_ptr_tagE
FN:322,_ZN5boost6detail8function15functor_managerIPFvRKNS_5debug16dbg_startup_infoEEE7managerERKNS1_15function_bufferERSA_NS1_30functor_manager_operation_typeENS1_16function_ptr_tagE
FNDA:9,_ZN5boost6detail8function15functor_managerIPFvRKNS_5debug16dbg_startup_infoEEE7managerERKNS1_15function_bufferERSA_NS1_30functor_manager_operation_typeENS1_16function_ptr_tagE
FN:330,_ZN5boost6detail8function15functor_managerIZNS_9unit_test14runtime_config12_GLOBAL__N_119register_parametersERNS_7runtime16parameters_storeEEUlNS3_13basic_cstringIKcEEE_E7managerERKNS1_15function_bufferERSE_NS1_30functor_manager_operation_typeENS_17integral_constantIbLb1EEE
FNDA:0,_ZN5boost6detail8function15functor_managerIZNS_9unit_test14runtime_config12_GLOBAL__N_119register_parametersERNS_7runtime16parameters_storeEEUlNS3_13basic_cstringIKcEEE_E7managerERKNS1_15function_bufferERSE_NS1_30functor_manager_operation_typeENS_17integral_constantIbLb1EEE
FN:330,_ZN5boost6detail8function15functor_managerINS0_7forwardEE7managerERKNS1_15function_bufferERS5_NS1_30functor_manager_operation_typeENS_17integral_constantIbLb1EEE
FNDA:0,_ZN5boost6detail8function15functor_managerINS0_7forwardEE7managerERKNS1_15function_bufferERS5_NS1_30functor_manager_operation_typeENS_17integral_constantIbLb1EEE
FN:330,_ZN5boost6detail8function15functor_managerINS_3_bi6bind_tIvPFvPFPNS_9unit_test10test_suiteEiPPcEENS3_5list1INS3_5valueISB_EEEEEEE7managerERKNS1_15function_bufferERSK_NS1_30functor_manager_operation_typeENS_17integral_constantIbLb1EEE
FNDA:0,_ZN5boost6detail8function15functor_managerINS_3_bi6bind_tIvPFvPFPNS_9unit_test10test_suiteEiPPcEENS3_5list1INS3_5valueISB_EEEEEEE7managerERKNS1_15function_bufferERSK_NS1_30functor_manager_operation_typeENS_17integral_constantIbLb1EEE
FN:330,_ZN5boost6detail8function15functor_managerINS_3_bi6bind_tIvPFvRSoENS3_5list1INS_17reference_wrapperISoEEEEEEE7managerERKNS1_15function_bufferERSE_NS1_30functor_manager_operation_typeENS_17integral_constantIbLb1EEE
FNDA:0,_ZN5boost6detail8function15functor_managerINS_3_bi6bind_tIvPFvRSoENS3_5list1INS_17reference_wrapperISoEEEEEEE7managerERKNS1_15function_bufferERSE_NS1_30functor_manager_operation_typeENS_17integral_constantIbLb1EEE
FN:338,_ZN5boost6detail8function15functor_managerINS_3_bi6bind_tIvNS_4_mfi3mf2IvNS_9unit_test13test_observerEmmEENS3_5list3INS3_5valueIPS8_EENSB_INS7_17test_case_counter19readonly_property43EEENSB_ImEEEEEEE7managerERKNS1_15function_bufferERSL_NS1_30functor_manager_operation_typeENS_17integral_constantIbLb0EEE
FNDA:3,_ZN5boost6detail8function15functor_managerINS_3_bi6bind_tIvNS_4_mfi3mf2IvNS_9unit_test13test_observerEmmEENS3_5list3INS3_5valueIPS8_EENSB_INS7_17test_case_counter19readonly_property43EEENSB_ImEEEEEEE7managerERKNS1_15function_bufferERSL_NS1_30functor_manager_operation_typeENS_17integral_constantIbLb0EEE
FN:338,_ZN5boost6detail8function15functor_managerINS_3_bi6bind_tIvNS_4_mfi3mf0IvNS_9unit_test17test_unit_fixtureEEENS3_5list1INS3_5valueINS_10shared_ptrIS8_EEEEEEEEE7managerERKNS1_15function_bufferERSI_NS1_30functor_manager_operation_typeENS_17integral_constantIbLb0EEE
FNDA:0,_ZN5boost6detail8function15functor_managerINS_3_bi6bind_tIvNS_4_mfi3mf0IvNS_9unit_test17test_unit_fixtureEEENS3_5list1INS3_5valueINS_10shared_ptrIS8_EEEEEEEEE7managerERKNS1_15function_bufferERSI_NS1_30functor_manager_operation_typeENS_17integral_constantIbLb0EEE
FN:338,_ZN5boost6detail8function15functor_managerINS_3_bi6bind_tIvNS_4_mfi3mf1IvNS_9unit_test15unit_test_log_tERSoEENS3_5list2INS3_5valueIPS8_EENS_17reference_wrapperISoEEEEEEE7managerERKNS1_15function_bufferERSK_NS1_30functor_manager_operation_typeENS_17integral_constantIbLb0EEE
FNDA:0,_ZN5boost6detail8function15functor_managerINS_3_bi6bind_tIvNS_4_mfi3mf1IvNS_9unit_test15unit_test_log_tERSoEENS3_5list2INS3_5valueIPS8_EENS_17reference_wrapperISoEEEEEEE7managerERKNS1_15function_bufferERSK_NS1_30functor_manager_operation_typeENS_17integral_constantIbLb0EEE
FN:338,_ZN5boost6detail8function15functor_managerINS_3_bi6bind_tIvNS_4_mfi3mf2IvNS_9unit_test15unit_test_log_tENS7_13output_formatERSoEENS3_5list3INS3_5valueIPS8_EENSD_IS9_EENS_17reference_wrapperISoEEEEEEE7managerERKNS1_15function_bufferERSM_NS1_30functor_manager_operation_typeENS_17integral_constantIbLb0EEE
FNDA:0,_ZN5boost6detail8function15functor_managerINS_3_bi6bind_tIvNS_4_mfi3mf2IvNS_9unit_test15unit_test_log_tENS7_13output_formatERSoEENS3_5list3INS3_5valueIPS8_EENSD_IS9_EENS_17reference_wrapperISoEEEEEEE7managerERKNS1_15function_bufferERSM_NS1_30functor_manager_operation_typeENS_17integral_constantIbLb0EEE
FN:376,_ZN5boost6detail8function15functor_managerINS_3_bi6bind_tIvNS_4_mfi3mf2IvNS_9unit_test13test_observerEmmEENS3_5list3INS3_5valueIPS8_EENSB_INS7_17test_case_counter19readonly_property43EEENSB_ImEEEEEEE7managerERKNS1_15function_bufferERSL_NS1_30functor_manager_operation_typeENS1_16function_obj_tagE
FNDA:3,_ZN5boost6detail8function15functor_managerINS_3_bi6bind_tIvNS_4_mfi3mf2IvNS_9unit_test13test_observerEmmEENS3_5list3INS3_5valueIPS8_EENSB_INS7_17test_case_counter19readonly_property43EEENSB_ImEEEEEEE7managerERKNS1_15function_bufferERSL_NS1_30functor_manager_operation_typeENS1_16function_obj_tagE
FN:376,_ZN5boost6detail8function15functor_managerINS_3_bi6bind_tIvNS_4_mfi3mf1IvNS_9unit_test15unit_test_log_tERSoEENS3_5list2INS3_5valueIPS8_EENS_17reference_wrapperISoEEEEEEE7managerERKNS1_15function_bufferERSK_NS1_30functor_manager_operation_typeENS1_16function_obj_tagE
FNDA:0,_ZN5boost6detail8function15functor_managerINS_3_bi6bind_tIvNS_4_mfi3mf1IvNS_9unit_test15unit_test_log_tERSoEENS3_5list2INS3_5valueIPS8_EENS_17reference_wrapperISoEEEEEEE7managerERKNS1_15function_bufferERSK_NS1_30functor_manager_operation_typeENS1_16function_obj_tagE
FN:376,_ZN5boost6detail8function15functor_managerINS_3_bi6bind_tIvNS_4_mfi3mf2IvNS_9unit_test15unit_test_log_tENS7_13output_formatERSoEENS3_5list3INS3_5valueIPS8_EENSD_IS9_EENS_17reference_wrapperISoEEEEEEE7managerERKNS1_15function_bufferERSM_NS1_30functor_manager_operation_typeENS1_16function_obj_tagE
FNDA:0,_ZN5boost6detail8function15functor_managerINS_3_bi6bind_tIvNS_4_mfi3mf2IvNS_9unit_test15unit_test_log_tENS7_13output_formatERSoEENS3_5list3INS3_5valueIPS8_EENSD_IS9_EENS_17reference_wrapperISoEEEEEEE7managerERKNS1_15function_bufferERSM_NS1_30functor_manager_operation_typeENS1_16function_obj_tagE
FN:376,_ZN5boost6detail8function15functor_managerINS_3_bi6bind_tIvNS_4_mfi3mf0IvNS_9unit_test17test_unit_fixtureEEENS3_5list1INS3_5valueINS_10shared_ptrIS8_EEEEEEEEE7managerERKNS1_15function_bufferERSI_NS1_30functor_manager_operation_typeENS1_16function_obj_tagE
FNDA:0,_ZN5boost6detail8function15functor_managerINS_3_bi6bind_tIvNS_4_mfi3mf0IvNS_9unit_test17test_unit_fixtureEEENS3_5list1INS3_5valueINS_10shared_ptrIS8_EEEEEEEEE7managerERKNS1_15function_bufferERSI_NS1_30functor_manager_operation_typeENS1_16function_obj_tagE
FN:376,_ZN5boost6detail8function15functor_managerINS_3_bi6bind_tIvPFvRSoENS3_5list1INS_17reference_wrapperISoEEEEEEE7managerERKNS1_15function_bufferERSE_NS1_30functor_manager_operation_typeENS1_16function_obj_tagE
FNDA:0,_ZN5boost6detail8function15functor_managerINS_3_bi6bind_tIvPFvRSoENS3_5list1INS_17reference_wrapperISoEEEEEEE7managerERKNS1_15function_bufferERSE_NS1_30functor_manager_operation_typeENS1_16function_obj_tagE
FN:376,_ZN5boost6detail8function15functor_managerINS0_7forwardEE7managerERKNS1_15function_bufferERS5_NS1_30functor_manager_operation_typeENS1_16function_obj_tagE
FNDA:0,_ZN5boost6detail8function15functor_managerINS0_7forwardEE7managerERKNS1_15function_bufferERS5_NS1_30functor_manager_operation_typeENS1_16function_obj_tagE
FN:376,_ZN5boost6detail8function15functor_managerIZNS_9unit_test14runtime_config12_GLOBAL__N_119register_parametersERNS_7runtime16parameters_storeEEUlNS3_13basic_cstringIKcEEE_E7managerERKNS1_15function_bufferERSE_NS1_30functor_manager_operation_typeENS1_16function_obj_tagE
FNDA:0,_ZN5boost6detail8function15functor_managerIZNS_9unit_test14runtime_config12_GLOBAL__N_119register_parametersERNS_7runtime16parameters_storeEEUlNS3_13basic_cstringIKcEEE_E7managerERKNS1_15function_bufferERSE_NS1_30functor_manager_operation_typeENS1_16function_obj_tagE
FN:376,_ZN5boost6detail8function15functor_managerINS_3_bi6bind_tIvPFvPFPNS_9unit_test10test_suiteEiPPcEENS3_5list1INS3_5valueISB_EEEEEEE7managerERKNS1_15function_bufferERSK_NS1_30functor_manager_operation_typeENS1_16function_obj_tagE
FNDA:0,_ZN5boost6detail8function15functor_managerINS_3_bi6bind_tIvPFvPFPNS_9unit_test10test_suiteEiPPcEENS3_5list1INS3_5valueISB_EEEEEEE7managerERKNS1_15function_bufferERSK_NS1_30functor_manager_operation_typeENS1_16function_obj_tagE
FN:395,_ZN5boost6detail8function15functor_managerINS_3_bi6bind_tIvPFvRSoENS3_5list1INS_17reference_wrapperISoEEEEEEE6manageERKNS1_15function_bufferERSE_NS1_30functor_manager_operation_typeE
FNDA:0,_ZN5boost6detail8function15functor_managerINS_3_bi6bind_tIvPFvRSoENS3_5list1INS_17reference_wrapperISoEEEEEEE6manageERKNS1_15function_bufferERSE_NS1_30functor_manager_operation_typeE
FN:395,_ZN5boost6detail8function15functor_managerINS_3_bi6bind_tIvNS_4_mfi3mf0IvNS_9unit_test17test_unit_fixtureEEENS3_5list1INS3_5valueINS_10shared_ptrIS8_EEEEEEEEE6manageERKNS1_15function_bufferERSI_NS1_30functor_manager_operation_typeE
FNDA:0,_ZN5boost6detail8function15functor_managerINS_3_bi6bind_tIvNS_4_mfi3mf0IvNS_9unit_test17test_unit_fixtureEEENS3_5list1INS3_5valueINS_10shared_ptrIS8_EEEEEEEEE6manageERKNS1_15function_bufferERSI_NS1_30functor_manager_operation_typeE
FN:395,_ZN5boost6detail8function15functor_managerINS_3_bi6bind_tIvNS_4_mfi3mf1IvNS_9unit_test15unit_test_log_tERSoEENS3_5list2INS3_5valueIPS8_EENS_17reference_wrapperISoEEEEEEE6manageERKNS1_15function_bufferERSK_NS1_30functor_manager_operation_typeE
FNDA:0,_ZN5boost6detail8function15functor_managerINS_3_bi6bind_tIvNS_4_mfi3mf1IvNS_9unit_test15unit_test_log_tERSoEENS3_5list2INS3_5valueIPS8_EENS_17reference_wrapperISoEEEEEEE6manageERKNS1_15function_bufferERSK_NS1_30functor_manager_operation_typeE
FN:395,_ZN5boost6detail8function15functor_managerINS_3_bi6bind_tIvNS_4_mfi3mf2IvNS_9unit_test15unit_test_log_tENS7_13output_formatERSoEENS3_5list3INS3_5valueIPS8_EENSD_IS9_EENS_17reference_wrapperISoEEEEEEE6manageERKNS1_15function_bufferERSM_NS1_30functor_manager_operation_typeE
FNDA:0,_ZN5boost6detail8function15functor_managerINS_3_bi6bind_tIvNS_4_mfi3mf2IvNS_9unit_test15unit_test_log_tENS7_13output_formatERSoEENS3_5list3INS3_5valueIPS8_EENSD_IS9_EENS_17reference_wrapperISoEEEEEEE6manageERKNS1_15function_bufferERSM_NS1_30functor_manager_operation_typeE
FN:395,_ZN5boost6detail8function15functor_managerINS_3_bi6bind_tIvPFvPFPNS_9unit_test10test_suiteEiPPcEENS3_5list1INS3_5valueISB_EEEEEEE6manageERKNS1_15function_bufferERSK_NS1_30functor_manager_operation_typeE
FNDA:0,_ZN5boost6detail8function15functor_managerINS_3_bi6bind_tIvPFvPFPNS_9unit_test10test_suiteEiPPcEENS3_5list1INS3_5valueISB_EEEEEEE6manageERKNS1_15function_bufferERSK_NS1_30functor_manager_operation_typeE
FN:395,_ZN5boost6detail8function15functor_managerINS_3_bi6bind_tIvNS_4_mfi3mf2IvNS_9unit_test13test_observerEmmEENS3_5list3INS3_5valueIPS8_EENSB_INS7_17test_case_counter19readonly_property43EEENSB_ImEEEEEEE6manageERKNS1_15function_bufferERSL_NS1_30functor_manager_operation_typeE
FNDA:3,_ZN5boost6detail8function15functor_managerINS_3_bi6bind_tIvNS_4_mfi3mf2IvNS_9unit_test13test_observerEmmEENS3_5list3INS3_5valueIPS8_EENSB_INS7_17test_case_counter19readonly_property43EEENSB_ImEEEEEEE6manageERKNS1_15function_bufferERSL_NS1_30functor_manager_operation_typeE
FN:395,_ZN5boost6detail8function15functor_managerINS0_7forwardEE6manageERKNS1_15function_bufferERS5_NS1_30functor_manager_operation_typeE
FNDA:0,_ZN5boost6detail8function15functor_managerINS0_7forwardEE6manageERKNS1_15function_bufferERS5_NS1_30functor_manager_operation_typeE
FN:395,_ZN5boost6detail8function15functor_managerIPFvvEE6manageERKNS1_15function_bufferERS6_NS1_30functor_manager_operation_typeE
FNDA:8,_ZN5boost6detail8function15functor_managerIPFvvEE6manageERKNS1_15function_bufferERS6_NS1_30functor_manager_operation_typeE
FN:395,_ZN5boost6detail8function15functor_managerIPFvRKNS_5debug16dbg_startup_infoEEE6manageERKNS1_15function_bufferERSA_NS1_30functor_manager_operation_typeE
FNDA:9,_ZN5boost6detail8function15functor_managerIPFvRKNS_5debug16dbg_startup_infoEEE6manageERKNS1_15function_bufferERSA_NS1_30functor_manager_operation_typeE
FN:395,_ZN5boost6detail8function15functor_managerIZNS_9unit_test14runtime_config12_GLOBAL__N_119register_parametersERNS_7runtime16parameters_storeEEUlNS3_13basic_cstringIKcEEE_E6manageERKNS1_15function_bufferERSE_NS1_30functor_manager_operation_typeE
FNDA:0,_ZN5boost6detail8function15functor_managerIZNS_9unit_test14runtime_config12_GLOBAL__N_119register_parametersERNS_7runtime16parameters_storeEEUlNS3_13basic_cstringIKcEEE_E6manageERKNS1_15function_bufferERSE_NS1_30functor_manager_operation_typeE
FN:603,_ZN5boost13function_baseC2Ev
FNDA:146,_ZN5boost13function_baseC2Ev
FN:606,_ZNK5boost13function_base5emptyEv
FNDA:142,_ZNK5boost13function_base5emptyEv
FN:689,_ZNK5boost13function_base28has_trivial_copy_and_destroyEv
FNDA:73,_ZNK5boost13function_base28has_trivial_copy_and_destroyEv
FN:708,_ZN5boost17bad_function_callC2Ev
FNDA:0,_ZN5boost17bad_function_callC2Ev
FN:863,_ZN5boost6detail8function16has_empty_targetEz
FNDA:17,_ZN5boost6detail8function16has_empty_targetEz
DA:259,9
DA:262,9
DA:263,0
DA:264,9
DA:265,0
DA:266,0
DA:267,9
DA:268,9
DA:269,0
DA:270,0
DA:271,0
DA:273,0
DA:275,0
DA:276,0
DA:277,0
DA:279,9
DA:259,8
DA:262,8
DA:263,0
DA:264,8
DA:265,0
DA:266,0
DA:267,8
DA:268,8
DA:269,0
DA:270,0
DA:271,0
DA:273,0
DA:275,0
DA:276,0
DA:277,0
DA:279,8
DA:283,0
DA:286,0
DA:287,0
DA:289,0
DA:291,0
DA:292,0
DA:294,0
DA:296,0
DA:298,0
DA:300,0
DA:301,0
DA:302,0
DA:303,0
DA:305,0
DA:307,0
DA:308,0
DA:309,0
DA:311,0
DA:283,0
DA:286,0
DA:287,0
DA:289,0
DA:291,0
DA:292,0
DA:294,0
DA:296,0
DA:298,0
DA:300,0
DA:301,0
DA:302,0
DA:303,0
DA:305,0
DA:307,0
DA:308,0
DA:309,0
DA:311,0
DA:283,0
DA:286,0
DA:287,0
DA:289,0
DA:291,0
DA:292,0
DA:294,0
DA:296,0
DA:298,0
DA:300,0
DA:301,0
DA:302,0
DA:303,0
DA:305,0
DA:307,0
DA:308,0
DA:309,0
DA:311,0
DA:283,0
DA:286,0
DA:287,0
DA:289,0
DA:291,0
DA:292,0
DA:294,0
DA:296,0
DA:298,0
DA:300,0
DA:301,0
DA:302,0
DA:303,0
DA:305,0
DA:307,0
DA:308,0
DA:309,0
DA:311,0
DA:322,9
DA:325,9
DA:326,9
DA:322,8
DA:325,8
DA:326,8
DA:330,0
DA:333,0
DA:334,0
DA:330,0
DA:333,0
DA:334,0
DA:330,0
DA:333,0
DA:334,0
DA:330,0
DA:333,0
DA:334,0
DA:338,3
DA:341,3
DA:347,0
DA:349,0
DA:350,0
DA:351,3
DA:352,0
DA:353,0
DA:354,3
DA:356,3
DA:358,3
DA:359,3
DA:360,0
DA:361,0
DA:362,0
DA:364,0
DA:366,0
DA:367,0
DA:368,0
DA:370,3
DA:338,0
DA:341,0
DA:347,0
DA:349,0
DA:350,0
DA:351,0
DA:352,0
DA:353,0
DA:354,0
DA:356,0
DA:358,0
DA:359,0
DA:360,0
DA:361,0
DA:362,0
DA:364,0
DA:366,0
DA:367,0
DA:368,0
DA:370,0
DA:338,0
DA:341,0
DA:347,0
DA:349,0
DA:350,0
DA:351,0
DA:352,0
DA:353,0
DA:354,0
DA:356,0
DA:358,0
DA:359,0
DA:360,0
DA:361,0
DA:362,0
DA:364,0
DA:366,0
DA:367,0
DA:368,0
DA:370,0
DA:338,0
DA:341,0
DA:347,0
DA:349,0
DA:350,0
DA:351,0
DA:352,0
DA:353,0
DA:354,0
DA:356,0
DA:358,0
DA:359,0
DA:360,0
DA:361,0
DA:362,0
DA:364,0
DA:366,0
DA:367,0
DA:368,0
DA:370,0
DA:376,0
DA:379,0
DA:381,0
DA:376,0
DA:379,0
DA:381,0
DA:376,3
DA:379,3
DA:381,3
DA:376,0
DA:379,0
DA:381,0
DA:376,0
DA:379,0
DA:381,0
DA:376,0
DA:379,0
DA:381,0
DA:376,0
DA:379,0
DA:381,0
DA:376,0
DA:379,0
DA:381,0
DA:395,0
DA:399,0
DA:400,0
DA:401,0
DA:402,0
DA:404,0
DA:406,0
DA:395,9
DA:399,9
DA:400,0
DA:401,0
DA:402,0
DA:404,9
DA:406,9
DA:395,8
DA:399,8
DA:400,0
DA:401,0
DA:402,0
DA:404,8
DA:406,8
DA:395,0
DA:399,0
DA:400,0
DA:401,0
DA:402,0
DA:404,0
DA:406,0
DA:395,3
DA:399,3
DA:400,0
DA:401,0
DA:402,0
DA:404,3
DA:406,3
DA:395,0
DA:399,0
DA:400,0
DA:401,0
DA:402,0
DA:404,0
DA:406,0
DA:395,0
DA:399,0
DA:400,0
DA:401,0
DA:402,0
DA:404,0
DA:406,0
DA:395,0
DA:399,0
DA:400,0
DA:401,0
DA:402,0
DA:404,0
DA:406,0
DA:395,0
DA:399,0
DA:400,0
DA:401,0
DA:402,0
DA:404,0
DA:406,0
DA:395,0
DA:399,0
DA:400,0
DA:401,0
DA:402,0
DA:404,0
DA:406,0
DA:603,146
DA:606,142
DA:689,73
DA:690,73
DA:708,0
DA:863,17
DA:865,17
end_of_record
SF:/usr/include/c++/11/bits/stl_pair.h
FN:300,_ZNSt4pairImmEC2IKmmLb1EEERKS_IT_T0_E
FNDA:9,_ZNSt4pairImmEC2IKmmLb1EEERKS_IT_T0_E
FN:314,_ZNSt4pairIKN5boost9unit_test13basic_cstringIKcEENS1_9log_levelEEC2ERKS7_
FNDA:22,_ZNSt4pairIKN5boost9unit_test13basic_cstringIKcEENS1_9log_levelEEC2ERKS7_
FN:314,_ZNSt4pairIKN5boost9unit_test13basic_cstringIKcEENS1_13output_formatEEC2ERKS7_
FNDA:24,_ZNSt4pairIKN5boost9unit_test13basic_cstringIKcEENS1_13output_formatEEC2ERKS7_
FN:314,_ZNSt4pairIKN5boost9unit_test13basic_cstringIKcEENS1_12report_levelEEC2ERKS7_
FNDA:8,_ZNSt4pairIKN5boost9unit_test13basic_cstringIKcEENS1_12report_levelEEC2ERKS7_
FN:314,_ZNSt4pairIN5boost10shared_ptrINS0_9unit_test19test_unit_generatorEEESt6vectorINS1_INS2_9decorator4baseEEESaIS8_EEEC2ERKSB_
FNDA:0,_ZNSt4pairIN5boost10shared_ptrINS0_9unit_test19test_unit_generatorEEESt6vectorINS1_INS2_9decorator4baseEEESaIS8_EEEC2ERKSB_
FN:315,_ZNSt4pairIN5boost10shared_ptrINS0_9unit_test19test_unit_generatorEEESt6vectorINS1_INS2_9decorator4baseEEESaIS8_EEEC2EOSB_
FNDA:0,_ZNSt4pairIN5boost10shared_ptrINS0_9unit_test19test_unit_generatorEEESt6vectorINS1_INS2_9decorator4baseEEESaIS8_EEEC2EOSB_
FN:322,_ZNSt4pairIPSt18_Rb_tree_node_baseS1_EC2IRS1_Lb1EEEOT_RKS1_
FNDA:0,_ZNSt4pairIPSt18_Rb_tree_node_baseS1_EC2IRS1_Lb1EEEOT_RKS1_
FN:336,_ZNSt4pairIN5boost7runtime16parameter_cla_idENS0_10shared_ptrINS1_11basic_paramEEEEC2IRS5_Lb1EEERKS2_OT_
FNDA:0,_ZNSt4pairIN5boost7runtime16parameter_cla_idENS0_10shared_ptrINS1_11basic_paramEEEEC2IRS5_Lb1EEERKS2_OT_
FN:336,_ZNSt4pairIPSt18_Rb_tree_node_baseS1_EC2IRS1_Lb1EEERKS1_OT_
FNDA:41,_ZNSt4pairIPSt18_Rb_tree_node_baseS1_EC2IRS1_Lb1EEERKS1_OT_
FN:336,_ZNSt4pairIN5boost16exception_detail10type_info_ENS0_10shared_ptrINS1_15error_info_baseEEEEC2IRS5_Lb1EEERKS2_OT_
FNDA:0,_ZNSt4pairIN5boost16exception_detail10type_info_ENS0_10shared_ptrINS1_15error_info_baseEEEEC2IRS5_Lb1EEERKS2_OT_
FN:336,_ZNSt4pairIN5boost9unit_test9test_unit19readonly_property62ENS1_6output10junit_impl16junit_log_helperEEC2IS6_Lb1EEERKS3_OT_
FNDA:0,_ZNSt4pairIN5boost9unit_test9test_unit19readonly_property62ENS1_6output10junit_impl16junit_log_helperEEC2IS6_Lb1EEERKS3_OT_
FN:352,_ZNSt4pairIKN5boost9unit_test13basic_cstringIKcEENS1_9log_levelEEC1IRA11_S3_S6_Lb1EEEOT_OT0_
FNDA:2,_ZNSt4pairIKN5boost9unit_test13basic_cstringIKcEENS1_9log_levelEEC1IRA11_S3_S6_Lb1EEEOT_OT0_
FN:352,_ZNSt4pairISt17_Rb_tree_iteratorIS_IKN5boost16exception_detail10type_info_ENS1_10shared_ptrINS2_15error_info_baseEEEEEbEC2IS9_bLb1EEEOT_OT0_
FNDA:0,_ZNSt4pairISt17_Rb_tree_iteratorIS_IKN5boost16exception_detail10type_info_ENS1_10shared_ptrINS2_15error_info_baseEEEEEbEC2IS9_bLb1EEEOT_OT0_
FN:352,_ZNSt4pairIKN5boost9unit_test13basic_cstringIKcEENS1_13output_formatEEC1IRA6_S3_S6_Lb1EEEOT_OT0_
FNDA:1,_ZNSt4pairIKN5boost9unit_test13basic_cstringIKcEENS1_13output_formatEEC1IRA6_S3_S6_Lb1EEEOT_OT0_
FN:352,_ZNSt4pairISt17_Rb_tree_iteratorIPN5boost9unit_test14global_fixtureEEbEC2IS5_bLb1EEEOT_OT0_
FNDA:0,_ZNSt4pairISt17_Rb_tree_iteratorIPN5boost9unit_test14global_fixtureEEbEC2IS5_bLb1EEEOT_OT0_
FN:352,_ZNSt4pairISt17_Rb_tree_iteratorIPN5boost9unit_test13test_observerEEbEC2IS5_bLb1EEEOT_OT0_
FNDA:4,_ZNSt4pairISt17_Rb_tree_iteratorIPN5boost9unit_test13test_observerEEbEC2IS5_bLb1EEEOT_OT0_
FN:352,_ZNSt4pairISt17_Rb_tree_iteratorIS_IKmPN5boost9unit_test9test_unitEEEbEC2IS7_bLb1EEEOT_OT0_
FNDA:10,_ZNSt4pairISt17_Rb_tree_iteratorIS_IKmPN5boost9unit_test9test_unitEEEbEC2IS7_bLb1EEEOT_OT0_
FN:352,_ZNSt4pairISt23_Rb_tree_const_iteratorIS_IKmmEES3_EC2IS3_S3_Lb1EEEOT_OT0_
FNDA:0,_ZNSt4pairISt23_Rb_tree_const_iteratorIS_IKmmEES3_EC2IS3_S3_Lb1EEEOT_OT0_
FN:352,_ZNSt4pairISt17_Rb_tree_iteratorIS_IKmN5boost9unit_test6output10junit_impl16junit_log_helperEEEbEC2IS8_bLb1EEEOT_OT0_
FNDA:0,_ZNSt4pairISt17_Rb_tree_iteratorIS_IKmN5boost9unit_test6output10junit_impl16junit_log_helperEEEbEC2IS8_bLb1EEEOT_OT0_
FN:352,_ZNSt4pairIKN5boost9unit_test13basic_cstringIKcEENS1_9log_levelEEC1IRA4_S3_S6_Lb1EEEOT_OT0_
FNDA:1,_ZNSt4pairIKN5boost9unit_test13basic_cstringIKcEENS1_9log_levelEEC1IRA4_S3_S6_Lb1EEEOT_OT0_
FN:352,_ZNSt4pairIKN5boost9unit_test13basic_cstringIKcEENS1_9log_levelEEC1IRA8_S3_S6_Lb1EEEOT_OT0_
FNDA:4,_ZNSt4pairIKN5boost9unit_test13basic_cstringIKcEENS1_9log_levelEEC1IRA8_S3_S6_Lb1EEEOT_OT0_
FN:352,_ZNSt4pairIN5boost9unit_test13basic_cstringIKcEEbEC2IS4_bLb1EEEOT_OT0_
FNDA:25,_ZNSt4pairIN5boost9unit_test13basic_cstringIKcEEbEC2IS4_bLb1EEEOT_OT0_
FN:352,_ZNSt4pairISt23_Rb_tree_const_iteratorIPKN5boost7runtime16parameter_cla_idEEbEC2IRSt17_Rb_tree_iteratorIS5_ERbLb1EEEOT_OT0_
FNDA:0,_ZNSt4pairISt23_Rb_tree_const_iteratorIPKN5boost7runtime16parameter_cla_idEEbEC2IRSt17_Rb_tree_iteratorIS5_ERbLb1EEEOT_OT0_
FN:352,_ZNSt4pairIcN5boost10shared_ptrINS0_7runtime3cla13rt_cla_detail14parameter_trieEEEEC2IRcS6_Lb1EEEOT_OT0_
FNDA:569,_ZNSt4pairIcN5boost10shared_ptrINS0_7runtime3cla13rt_cla_detail14parameter_trieEEEEC2IRcS6_Lb1EEEOT_OT0_
FN:352,_ZNSt4pairIN5boost9unit_test13basic_cstringIKcEENS0_10shared_ptrINS0_7runtime11basic_paramEEEEC2IS4_RS8_Lb1EEEOT_OT0_
FNDA:28,_ZNSt4pairIN5boost9unit_test13basic_cstringIKcEENS0_10shared_ptrINS0_7runtime11basic_paramEEEEC2IS4_RS8_Lb1EEEOT_OT0_
FN:352,_ZNSt4pairISt23_Rb_tree_const_iteratorINSt7__cxx1112basic_stringIcSt11char_traitsIcESaIcEEEEbEC2IRSt17_Rb_tree_iteratorIS6_ERbLb1EEEOT_OT0_
FNDA:9,_ZNSt4pairISt23_Rb_tree_const_iteratorINSt7__cxx1112basic_stringIcSt11char_traitsIcESaIcEEEEbEC2IRSt17_Rb_tree_iteratorIS6_ERbLb1EEEOT_OT0_
FN:352,_ZNSt4pairIKN5boost9unit_test13basic_cstringIKcEENS1_9log_levelEEC1IRA13_S3_S6_Lb1EEEOT_OT0_
FNDA:1,_ZNSt4pairIKN5boost9unit_test13basic_cstringIKcEENS1_9log_levelEEC1IRA13_S3_S6_Lb1EEEOT_OT0_
FN:352,_ZNSt4pairISt23_Rb_tree_const_iteratorIPN5boost9unit_test14global_fixtureEEbEC2IRSt17_Rb_tree_iteratorIS4_ERbLb1EEEOT_OT0_
FNDA:0,_ZNSt4pairISt23_Rb_tree_const_iteratorIPN5boost9unit_test14global_fixtureEEbEC2IRSt17_Rb_tree_iteratorIS4_ERbLb1EEEOT_OT0_
FN:352,_ZNSt4pairISt23_Rb_tree_const_iteratorIPN5boost9unit_test13test_observerEEbEC2IRSt17_Rb_tree_iteratorIS4_ERbLb1EEEOT_OT0_
FNDA:4,_ZNSt4pairISt23_Rb_tree_const_iteratorIPN5boost9unit_test13test_observerEEbEC2IRSt17_Rb_tree_iteratorIS4_ERbLb1EEEOT_OT0_
FN:352,_ZNSt4pairIKN5boost9unit_test13basic_cstringIKcEENS1_9log_levelEEC1IRA6_S3_S6_Lb1EEEOT_OT0_
FNDA:1,_ZNSt4pairIKN5boost9unit_test13basic_cstringIKcEENS1_9log_levelEEC1IRA6_S3_S6_Lb1EEEOT_OT0_
FN:352,_ZNSt4pairImmEC2IRmS2_Lb1EEEOT_OT0_
FNDA:9,_ZNSt4pairImmEC2IRmS2_Lb1EEEOT_OT0_
FN:352,_ZNSt4pairIKN5boost9unit_test13basic_cstringIKcEENS1_9log_levelEEC1IRA14_S3_S6_Lb1EEEOT_OT0_
FNDA:1,_ZNSt4pairIKN5boost9unit_test13basic_cstringIKcEENS1_9log_levelEEC1IRA14_S3_S6_Lb1EEEOT_OT0_
FN:352,_ZNSt4pairIKN5boost9unit_test13basic_cstringIKcEENS1_13output_formatEEC1IRA4_S3_S6_Lb1EEEOT_OT0_
FNDA:11,_ZNSt4pairIKN5boost9unit_test13basic_cstringIKcEENS1_13output_formatEEC1IRA4_S3_S6_Lb1EEEOT_OT0_
FN:352,_ZNSt4pairIN5boost10shared_ptrINS0_9unit_test19test_unit_generatorEEESt6vectorINS1_INS2_9decorator4baseEEESaIS8_EEEC2IRS4_SA_Lb1EEEOT_OT0_
FNDA:0,_ZNSt4pairIN5boost10shared_ptrINS0_9unit_test19test_unit_generatorEEESt6vectorINS1_INS2_9decorator4baseEEESaIS8_EEEC2IRS4_SA_Lb1EEEOT_OT0_
FN:352,_ZNSt4pairIKmPN5boost9unit_test9test_unitEEC2IRmRPNS2_10test_suiteELb1EEEOT_OT0_
FNDA:2,_ZNSt4pairIKmPN5boost9unit_test9test_unitEEC2IRmRPNS2_10test_suiteELb1EEEOT_OT0_
FN:352,_ZNSt4pairIKmPN5boost9unit_test9test_unitEEC2IRmRPNS2_9test_caseELb1EEEOT_OT0_
FNDA:8,_ZNSt4pairIKmPN5boost9unit_test9test_unitEEC2IRmRPNS2_9test_caseELb1EEEOT_OT0_
FN:352,_ZNSt4pairIKN5boost9unit_test13basic_cstringIKcEENS1_12report_levelEEC1IRA3_S3_S6_Lb1EEEOT_OT0_
FNDA:1,_ZNSt4pairIKN5boost9unit_test13basic_cstringIKcEENS1_12report_levelEEC1IRA3_S3_S6_Lb1EEEOT_OT0_
FN:352,_ZNSt4pairIKN5boost9unit_test13basic_cstringIKcEENS1_12report_levelEEC1IRA9_S3_S6_Lb1EEEOT_OT0_
FNDA:1,_ZNSt4pairIKN5boost9unit_test13basic_cstringIKcEENS1_12report_levelEEC1IRA9_S3_S6_Lb1EEEOT_OT0_
FN:352,_ZNSt4pairIKN5boost9unit_test13basic_cstringIKcEENS1_12report_levelEEC1IRA6_S3_S6_Lb1EEEOT_OT0_
FNDA:1,_ZNSt4pairIKN5boost9unit_test13basic_cstringIKcEENS1_12report_levelEEC1IRA6_S3_S6_Lb1EEEOT_OT0_
FN:352,_ZNSt4pairIKN5boost9unit_test13basic_cstringIKcEENS1_12report_levelEEC1IRA8_S3_S6_Lb1EEEOT_OT0_
FNDA:1,_ZNSt4pairIKN5boost9unit_test13basic_cstringIKcEENS1_12report_levelEEC1IRA8_S3_S6_Lb1EEEOT_OT0_
FN:352,_ZNSt4pairIKN5boost9unit_test13basic_cstringIKcEENS1_9log_levelEEC1IRA12_S3_S6_Lb1EEEOT_OT0_
FNDA:1,_ZNSt4pairIKN5boost9unit_test13basic_cstringIKcEENS1_9log_levelEEC1IRA12_S3_S6_Lb1EEEOT_OT0_
FN:352,_ZNSt4pairISt17_Rb_tree_iteratorINSt7__cxx1112basic_stringIcSt11char_traitsIcESaIcEEEEbEC2IS7_bLb1EEEOT_OT0_
FNDA:9,_ZNSt4pairISt17_Rb_tree_iteratorINSt7__cxx1112basic_stringIcSt11char_traitsIcESaIcEEEEbEC2IS7_bLb1EEEOT_OT0_
FN:352,_ZNSt4pairIPSt18_Rb_tree_node_baseS1_EC2IRPSt13_Rb_tree_nodeIS_IKN5boost9unit_test13basic_cstringIKcEENS6_12report_levelEEERS1_Lb1EEEOT_OT0_
FNDA:3,_ZNSt4pairIPSt18_Rb_tree_node_baseS1_EC2IRPSt13_Rb_tree_nodeIS_IKN5boost9unit_test13basic_cstringIKcEENS6_12report_levelEEERS1_Lb1EEEOT_OT0_
FN:352,_ZNSt4pairIPSt18_Rb_tree_node_baseS1_EC2IRPSt13_Rb_tree_nodeIS_IKN5boost9unit_test13basic_cstringIKcEENS6_9log_levelEEERS1_Lb1EEEOT_OT0_
FNDA:7,_ZNSt4pairIPSt18_Rb_tree_node_baseS1_EC2IRPSt13_Rb_tree_nodeIS_IKN5boost9unit_test13basic_cstringIKcEENS6_9log_levelEEERS1_Lb1EEEOT_OT0_
FN:352,_ZNSt4pairIPSt18_Rb_tree_node_baseS1_EC2IRPSt13_Rb_tree_nodeIS_IKN5boost9unit_test13basic_cstringIKcEENS6_13output_formatEEERS1_Lb1EEEOT_OT0_
FNDA:8,_ZNSt4pairIPSt18_Rb_tree_node_baseS1_EC2IRPSt13_Rb_tree_nodeIS_IKN5boost9unit_test13basic_cstringIKcEENS6_13output_formatEEERS1_Lb1EEEOT_OT0_
FN:352,_ZNSt4pairIPSt18_Rb_tree_node_baseS1_EC2IRPSt13_Rb_tree_nodeIS_IKN5boost9unit_test13basic_cstringIKcEENS5_10shared_ptrINS5_7runtime8argumentEEEEERS1_Lb1EEEOT_OT0_
FNDA:1,_ZNSt4pairIPSt18_Rb_tree_node_baseS1_EC2IRPSt13_Rb_tree_nodeIS_IKN5boost9unit_test13basic_cstringIKcEENS5_10shared_ptrINS5_7runtime8argumentEEEEERS1_Lb1EEEOT_OT0_
FN:352,_ZNSt4pairIPSt18_Rb_tree_node_baseS1_EC2IRPSt13_Rb_tree_nodeIS_IKcPS5_EERS1_Lb1EEEOT_OT0_
FNDA:0,_ZNSt4pairIPSt18_Rb_tree_node_baseS1_EC2IRPSt13_Rb_tree_nodeIS_IKcPS5_EERS1_Lb1EEEOT_OT0_
FN:352,_ZNSt4pairIPSt18_Rb_tree_node_baseS1_EC2IRPSt13_Rb_tree_nodeIS_IKN5boost9unit_test13basic_cstringIKcEENS5_10shared_ptrINS5_7runtime3cla13rt_cla_detail14parameter_trieEEEEERS1_Lb1EEEOT_OT0_
FNDA:1,_ZNSt4pairIPSt18_Rb_tree_node_baseS1_EC2IRPSt13_Rb_tree_nodeIS_IKN5boost9unit_test13basic_cstringIKcEENS5_10shared_ptrINS5_7runtime3cla13rt_cla_detail14parameter_trieEEEEERS1_Lb1EEEOT_OT0_
FN:352,_ZNSt4pairIPSt18_Rb_tree_node_baseS1_EC2IRPSt13_Rb_tree_nodeIS_IKmN5boost9unit_test12test_resultsEEERS1_Lb1EEEOT_OT0_
FNDA:1,_ZNSt4pairIPSt18_Rb_tree_node_baseS1_EC2IRPSt13_Rb_tree_nodeIS_IKmN5boost9unit_test12test_resultsEEERS1_Lb1EEEOT_OT0_
FN:352,_ZNSt4pairIPSt18_Rb_tree_node_baseS1_EC2IRPSt13_Rb_tree_nodeIS_IKN5boost9unit_test13output_formatENS6_14runtime_config13stream_holderEEERS1_Lb1EEEOT_OT0_
FNDA:1,_ZNSt4pairIPSt18_Rb_tree_node_baseS1_EC2IRPSt13_Rb_tree_nodeIS_IKN5boost9unit_test13output_formatENS6_14runtime_config13stream_holderEEERS1_Lb1EEEOT_OT0_
FN:352,_ZNSt4pairIPSt18_Rb_tree_node_baseS1_EC2IRPSt13_Rb_tree_nodeIS_IKmN5boost9unit_test9framework4impl10order_infoEEERS1_Lb1EEEOT_OT0_
FNDA:1,_ZNSt4pairIPSt18_Rb_tree_node_baseS1_EC2IRPSt13_Rb_tree_nodeIS_IKmN5boost9unit_test9framework4impl10order_infoEEERS1_Lb1EEEOT_OT0_
FN:352,_ZNSt4pairIPSt18_Rb_tree_node_baseS1_EC2IRPSt13_Rb_tree_nodeIS_IKNSt7__cxx1112basic_stringIcSt11char_traitsIcESaIcEEEN5boost8functionIFvRKNSC_5debug16dbg_startup_infoEEEEEERS1_Lb1EEEOT_OT0_
FNDA:1,_ZNSt4pairIPSt18_Rb_tree_node_baseS1_EC2IRPSt13_Rb_tree_nodeIS_IKNSt7__cxx1112basic_stringIcSt11char_traitsIcESaIcEEEN5boost8functionIFvRKNSC_5debug16dbg_startup_infoEEEEEERS1_Lb1EEEOT_OT0_
FN:352,_ZNSt4pairIPSt18_Rb_tree_node_baseS1_EC2IRPSt13_Rb_tree_nodeIPKN5boost7runtime16parameter_cla_idEERS1_Lb1EEEOT_OT0_
FNDA:0,_ZNSt4pairIPSt18_Rb_tree_node_baseS1_EC2IRPSt13_Rb_tree_nodeIPKN5boost7runtime16parameter_cla_idEERS1_Lb1EEEOT_OT0_
FN:352,_ZNSt4pairIPSt18_Rb_tree_node_baseS1_EC2IRPSt13_Rb_tree_nodeIS_IKcN5boost10shared_ptrINS6_7runtime3cla13rt_cla_detail14parameter_trieEEEEERS1_Lb1EEEOT_OT0_
FNDA:569,_ZNSt4pairIPSt18_Rb_tree_node_baseS1_EC2IRPSt13_Rb_tree_nodeIS_IKcN5boost10shared_ptrINS6_7runtime3cla13rt_cla_detail14parameter_trieEEEEERS1_Lb1EEEOT_OT0_
FN:352,_ZNSt4pairIPSt18_Rb_tree_node_baseS1_EC2IRPSt13_Rb_tree_nodeIS_IKN5boost9unit_test13basic_cstringIKcEENS5_10shared_ptrINS5_7runtime11basic_paramEEEEERS1_Lb1EEEOT_OT0_
FNDA:28,_ZNSt4pairIPSt18_Rb_tree_node_baseS1_EC2IRPSt13_Rb_tree_nodeIS_IKN5boost9unit_test13basic_cstringIKcEENS5_10shared_ptrINS5_7runtime11basic_paramEEEEERS1_Lb1EEEOT_OT0_
FN:352,_ZNSt4pairIPSt18_Rb_tree_node_baseS1_EC2IRPSt13_Rb_tree_nodeINSt7__cxx1112basic_stringIcSt11char_traitsIcESaIcEEEERS1_Lb1EEEOT_OT0_
FNDA:9,_ZNSt4pairIPSt18_Rb_tree_node_baseS1_EC2IRPSt13_Rb_tree_nodeINSt7__cxx1112basic_stringIcSt11char_traitsIcESaIcEEEERS1_Lb1EEEOT_OT0_
FN:352,_ZNSt4pairIPSt18_Rb_tree_node_baseS1_EC2IRPSt13_Rb_tree_nodeIS_IKmPN5boost9unit_test9test_unitEEERS1_Lb1EEEOT_OT0_
FNDA:10,_ZNSt4pairIPSt18_Rb_tree_node_baseS1_EC2IRPSt13_Rb_tree_nodeIS_IKmPN5boost9unit_test9test_unitEEERS1_Lb1EEEOT_OT0_
FN:352,_ZNSt4pairIPKcPKN5boost9unit_test12lazy_ostreamEEC2IRS1_RS6_Lb1EEEOT_OT0_
FNDA:0,_ZNSt4pairIPKcPKN5boost9unit_test12lazy_ostreamEEC2IRS1_RS6_Lb1EEEOT_OT0_
FN:352,_ZNSt4pairISt17_Rb_tree_iteratorIS_IKN5boost9unit_test13basic_cstringIKcEENS1_10shared_ptrINS1_7runtime11basic_paramEEEEEbEC2ISC_bLb1EEEOT_OT0_
FNDA:28,_ZNSt4pairISt17_Rb_tree_iteratorIS_IKN5boost9unit_test13basic_cstringIKcEENS1_10shared_ptrINS1_7runtime11basic_paramEEEEEbEC2ISC_bLb1EEEOT_OT0_
FN:352,_ZNSt4pairISt17_Rb_tree_iteratorIS_IKcN5boost10shared_ptrINS2_7runtime3cla13rt_cla_detail14parameter_trieEEEEEbEC2ISA_bLb1EEEOT_OT0_
FNDA:569,_ZNSt4pairISt17_Rb_tree_iteratorIS_IKcN5boost10shared_ptrINS2_7runtime3cla13rt_cla_detail14parameter_trieEEEEEbEC2ISA_bLb1EEEOT_OT0_
FN:352,_ZNSt4pairISt17_Rb_tree_iteratorIPKN5boost7runtime16parameter_cla_idEEbEC2IS6_bLb1EEEOT_OT0_
FNDA:0,_ZNSt4pairISt17_Rb_tree_iteratorIPKN5boost7runtime16parameter_cla_idEEbEC2IS6_bLb1EEEOT_OT0_
FN:352,_ZNSt4pairIPSt18_Rb_tree_node_baseS1_EC2IRPSt13_Rb_tree_nodeIS_IKmN5boost9unit_test6output10junit_impl16junit_log_helperEEERS1_Lb1EEEOT_OT0_
FNDA:0,_ZNSt4pairIPSt18_Rb_tree_node_baseS1_EC2IRPSt13_Rb_tree_nodeIS_IKmN5boost9unit_test6output10junit_impl16junit_log_helperEEERS1_Lb1EEEOT_OT0_
FN:352,_ZNSt4pairIPSt18_Rb_tree_node_baseS1_EC2IRS1_S4_Lb1EEEOT_OT0_
FNDA:17,_ZNSt4pairIPSt18_Rb_tree_node_baseS1_EC2IRS1_S4_Lb1EEEOT_OT0_
FN:352,_ZNSt4pairIPSt18_Rb_tree_node_baseS1_EC2IRPSt13_Rb_tree_nodeIS_IKmmEERS1_Lb1EEEOT_OT0_
FNDA:9,_ZNSt4pairIPSt18_Rb_tree_node_baseS1_EC2IRPSt13_Rb_tree_nodeIS_IKmmEERS1_Lb1EEEOT_OT0_
FN:352,_ZNSt4pairIPSt18_Rb_tree_node_baseS1_EC2IRPSt13_Rb_tree_nodeIS_IKN5boost16exception_detail10type_info_ENS5_10shared_ptrINS6_15error_info_baseEEEEERS1_Lb1EEEOT_OT0_
FNDA:0,_ZNSt4pairIPSt18_Rb_tree_node_baseS1_EC2IRPSt13_Rb_tree_nodeIS_IKN5boost16exception_detail10type_info_ENS5_10shared_ptrINS6_15error_info_baseEEEEERS1_Lb1EEEOT_OT0_
FN:352,_ZNSt4pairISt17_Rb_tree_iteratorIS_IKmPN5boost9unit_test9test_unitEEES7_EC2IS7_S7_Lb1EEEOT_OT0_
FNDA:10,_ZNSt4pairISt17_Rb_tree_iteratorIS_IKmPN5boost9unit_test9test_unitEEES7_EC2IS7_S7_Lb1EEEOT_OT0_
FN:352,_ZNSt4pairIPSt18_Rb_tree_node_baseS1_EC2IRPSt13_Rb_tree_nodeIPN5boost9unit_test13test_observerEERS1_Lb1EEEOT_OT0_
FNDA:4,_ZNSt4pairIPSt18_Rb_tree_node_baseS1_EC2IRPSt13_Rb_tree_nodeIPN5boost9unit_test13test_observerEERS1_Lb1EEEOT_OT0_
FN:352,_ZNSt4pairISt17_Rb_tree_iteratorIPN5boost9unit_test13test_observerEES5_EC2IS5_S5_Lb1EEEOT_OT0_
FNDA:4,_ZNSt4pairISt17_Rb_tree_iteratorIPN5boost9unit_test13test_observerEES5_EC2IS5_S5_Lb1EEEOT_OT0_
FN:352,_ZNSt4pairIPSt18_Rb_tree_node_baseS1_EC2IRPSt13_Rb_tree_nodeIPN5boost9unit_test14global_fixtureEERS1_Lb1EEEOT_OT0_
FNDA:0,_ZNSt4pairIPSt18_Rb_tree_node_baseS1_EC2IRPSt13_Rb_tree_nodeIPN5boost9unit_test14global_fixtureEERS1_Lb1EEEOT_OT0_
FN:352,_ZNSt4pairISt17_Rb_tree_iteratorIPN5boost9unit_test14global_fixtureEES5_EC2IS5_S5_Lb1EEEOT_OT0_
FNDA:0,_ZNSt4pairISt17_Rb_tree_iteratorIPN5boost9unit_test14global_fixtureEES5_EC2IS5_S5_Lb1EEEOT_OT0_
FN:371,_ZNSt4pairIKmN5boost9unit_test6output10junit_impl16junit_log_helperEEC2INS2_9test_unit19readonly_property62ES5_Lb1EEEOS_IT_T0_E
FNDA:0,_ZNSt4pairIKmN5boost9unit_test6output10junit_impl16junit_log_helperEEC2INS2_9test_unit19readonly_property62ES5_Lb1EEEOS_IT_T0_E
FN:371,_ZNSt4pairIKmmEC2ImmLb1EEEOS_IT_T0_E
FNDA:9,_ZNSt4pairIKmmEC2ImmLb1EEEOS_IT_T0_E
FN:371,_ZNSt4pairIKN5boost16exception_detail10type_info_ENS0_10shared_ptrINS1_15error_info_baseEEEEC2IS2_S6_Lb1EEEOS_IT_T0_E
FNDA:0,_ZNSt4pairIKN5boost16exception_detail10type_info_ENS0_10shared_ptrINS1_15error_info_baseEEEEC2IS2_S6_Lb1EEEOS_IT_T0_E
FN:371,_ZNSt4pairIKN5boost9unit_test13basic_cstringIKcEENS0_10shared_ptrINS0_7runtime11basic_paramEEEEC2IS4_S9_Lb1EEEOS_IT_T0_E
FNDA:28,_ZNSt4pairIKN5boost9unit_test13basic_cstringIKcEENS0_10shared_ptrINS0_7runtime11basic_paramEEEEC2IS4_S9_Lb1EEEOS_IT_T0_E
FN:371,_ZNSt4pairIKcN5boost10shared_ptrINS1_7runtime3cla13rt_cla_detail14parameter_trieEEEEC2IcS7_Lb1EEEOS_IT_T0_E
FNDA:569,_ZNSt4pairIKcN5boost10shared_ptrINS1_7runtime3cla13rt_cla_detail14parameter_trieEEEEC2IcS7_Lb1EEEOS_IT_T0_E
FN:567,_ZSt9make_pairIRmS0_ESt4pairINSt25__strip_reference_wrapperINSt5decayIT_E4typeEE6__typeENS2_INS3_IT0_E4typeEE6__typeEEOS4_OS9_
FNDA:9,_ZSt9make_pairIRmS0_ESt4pairINSt25__strip_reference_wrapperINSt5decayIT_E4typeEE6__typeENS2_INS3_IT0_E4typeEE6__typeEEOS4_OS9_
FN:567,_ZSt9make_pairIRKN5boost9unit_test9test_unit19readonly_property62ENS1_6output10junit_impl16junit_log_helperEESt4pairINSt25__strip_reference_wrapperINSt5decayIT_E4typeEE6__typeENSA_INSB_IT0_E4typeEE6__typeEEOSC_OSH_
FNDA:0,_ZSt9make_pairIRKN5boost9unit_test9test_unit19readonly_property62ENS1_6output10junit_impl16junit_log_helperEESt4pairINSt25__strip_reference_wrapperINSt5decayIT_E4typeEE6__typeENSA_INSB_IT0_E4typeEE6__typeEEOSC_OSH_
FN:567,_ZSt9make_pairIRKN5boost16exception_detail10type_info_ERNS0_10shared_ptrINS1_15error_info_baseEEEESt4pairINSt25__strip_reference_wrapperINSt5decayIT_E4typeEE6__typeENSA_INSB_IT0_E4typeEE6__typeEEOSC_OSH_
FNDA:0,_ZSt9make_pairIRKN5boost16exception_detail10type_info_ERNS0_10shared_ptrINS1_15error_info_baseEEEESt4pairINSt25__strip_reference_wrapperINSt5decayIT_E4typeEE6__typeENSA_INSB_IT0_E4typeEE6__typeEEOSC_OSH_
FN:567,_ZSt9make_pairIRPKcRPKN5boost9unit_test12lazy_ostreamEESt4pairINSt25__strip_reference_wrapperINSt5decayIT_E4typeEE6__typeENSA_INSB_IT0_E4typeEE6__typeEEOSC_OSH_
FNDA:0,_ZSt9make_pairIRPKcRPKN5boost9unit_test12lazy_ostreamEESt4pairINSt25__strip_reference_wrapperINSt5decayIT_E4typeEE6__typeENSA_INSB_IT0_E4typeEE6__typeEEOSC_OSH_
FN:567,_ZSt9make_pairIN5boost9unit_test13basic_cstringIKcEERNS0_10shared_ptrINS0_7runtime11basic_paramEEEESt4pairINSt25__strip_reference_wrapperINSt5decayIT_E4typeEE6__typeENSB_INSC_IT0_E4typeEE6__typeEEOSD_OSI_
FNDA:28,_ZSt9make_pairIN5boost9unit_test13basic_cstringIKcEERNS0_10shared_ptrINS0_7runtime11basic_paramEEEESt4pairINSt25__strip_reference_wrapperINSt5decayIT_E4typeEE6__typeENSB_INSC_IT0_E4typeEE6__typeEEOSD_OSI_
FN:567,_ZSt9make_pairIRcN5boost10shared_ptrINS1_7runtime3cla13rt_cla_detail14parameter_trieEEEESt4pairINSt25__strip_reference_wrapperINSt5decayIT_E4typeEE6__typeENS9_INSA_IT0_E4typeEE6__typeEEOSB_OSG_
FNDA:569,_ZSt9make_pairIRcN5boost10shared_ptrINS1_7runtime3cla13rt_cla_detail14parameter_trieEEEESt4pairINSt25__strip_reference_wrapperINSt5decayIT_E4typeEE6__typeENS9_INSA_IT0_E4typeEE6__typeEEOSB_OSG_
FN:567,_ZSt9make_pairIN5boost9unit_test13basic_cstringIKcEEbESt4pairINSt25__strip_reference_wrapperINSt5decayIT_E4typeEE6__typeENS6_INS7_IT0_E4typeEE6__typeEEOS8_OSD_
FNDA:25,_ZSt9make_pairIN5boost9unit_test13basic_cstringIKcEEbESt4pairINSt25__strip_reference_wrapperINSt5decayIT_E4typeEE6__typeENS6_INS7_IT0_E4typeEE6__typeEEOS8_OSD_
DA:300,9
DA:301,9
DA:314,8
DA:314,22
DA:314,24
DA:314,0
DA:315,0
DA:322,0
DA:323,0
DA:336,41
DA:337,41
DA:336,0
DA:337,0
DA:336,0
DA:337,0
DA:336,0
DA:337,0
DA:352,2
DA:353,2
DA:352,0
DA:353,0
DA:352,4
DA:353,4
DA:352,10
DA:353,10
DA:352,0
DA:353,0
DA:352,0
DA:353,0
DA:352,25
DA:353,25
DA:352,0
DA:353,0
DA:352,569
DA:353,569
DA:352,28
DA:353,28
DA:352,9
DA:353,9
DA:352,0
DA:353,0
DA:352,4
DA:353,4
DA:352,9
DA:353,9
DA:352,0
DA:353,0
DA:352,0
DA:353,0
DA:352,8
DA:353,8
DA:352,1
DA:353,1
DA:352,1
DA:353,1
DA:352,1
DA:353,1
DA:352,1
DA:353,1
DA:352,1
DA:353,1
DA:352,1
DA:353,1
DA:352,1
DA:353,1
DA:352,1
DA:353,1
DA:352,2
DA:353,2
DA:352,4
DA:353,4
DA:352,1
DA:353,1
DA:352,1
DA:353,1
DA:352,11
DA:353,11
DA:352,0
DA:353,0
DA:352,7
DA:353,7
DA:352,8
DA:353,8
DA:352,1
DA:353,1
DA:352,0
DA:353,0
DA:352,1
DA:353,1
DA:352,1
DA:353,1
DA:352,1
DA:353,1
DA:352,1
DA:353,1
DA:352,1
DA:353,1
DA:352,0
DA:353,0
DA:352,569
DA:353,569
DA:352,28
DA:353,28
DA:352,9
DA:353,9
DA:352,0
DA:353,0
DA:352,3
DA:353,3
DA:352,0
DA:353,0
DA:352,4
DA:353,4
DA:352,4
DA:353,4
DA:352,10
DA:353,10
DA:352,10
DA:353,10
DA:352,9
DA:353,9
DA:352,17
DA:353,17
DA:352,0
DA:353,0
DA:352,0
DA:353,0
DA:352,569
DA:353,569
DA:352,28
DA:353,28
DA:352,9
DA:353,9
DA:352,0
DA:353,0
DA:371,569
DA:372,569
DA:373,569
DA:371,28
DA:372,28
DA:373,28
DA:371,0
DA:372,0
DA:373,0
DA:371,9
DA:372,9
DA:373,9
DA:371,0
DA:372,0
DA:373,0
DA:567,0
DA:572,0
DA:567,25
DA:572,25
DA:567,569
DA:572,569
DA:567,28
DA:572,28
DA:567,0
DA:572,0
DA:567,9
DA:572,9
DA:567,0
DA:572,0
end_of_record
SF:/usr/include/boost/smart_ptr/detail/sp_counted_base_gcc_atomic.hpp
FN:33,_ZN5boost6detail16atomic_incrementEPj
FNDA:2168,_ZN5boost6detail16atomic_incrementEPj
FN:38,_ZN5boost6detail16atomic_decrementEPj
FNDA:3434,_ZN5boost6detail16atomic_decrementEPj
FN:82,_ZN5boost6detail15sp_counted_baseC2Ev
FNDA:633,_ZN5boost6detail15sp_counted_baseC2Ev
FN:86,_ZN5boost6detail15sp_counted_baseD0Ev
FNDA:0,_ZN5boost6detail15sp_counted_baseD0Ev
FN:86,_ZN5boost6detail15sp_counted_baseD2Ev
FNDA:633,_ZN5boost6detail15sp_counted_baseD2Ev
FN:97,_ZN5boost6detail15sp_counted_base7destroyEv
FNDA:633,_ZN5boost6detail15sp_counted_base7destroyEv
FN:106,_ZN5boost6detail15sp_counted_base12add_ref_copyEv
FNDA:2168,_ZN5boost6detail15sp_counted_base12add_ref_copyEv
FN:116,_ZN5boost6detail15sp_counted_base7releaseEv
FNDA:2801,_ZN5boost6detail15sp_counted_base7releaseEv
FN:130,_ZN5boost6detail15sp_counted_base12weak_releaseEv
FNDA:633,_ZN5boost6detail15sp_counted_base12weak_releaseEv
DA:33,2168
DA:35,2168
DA:36,2168
DA:38,3434
DA:40,3434
DA:82,633
DA:84,633
DA:86,0
DA:88,0
DA:86,633
DA:87,633
DA:88,633
DA:97,633
DA:99,633
DA:100,633
DA:106,2168
DA:108,2168
DA:109,2168
DA:116,2801
DA:118,2801
DA:120,633
DA:121,633
DA:123,2801
DA:130,633
DA:132,633
DA:134,633
DA:136,633
end_of_record
SF:/usr/include/c++/11/bits/stl_vector.h
FN:97,_ZNSt12_Vector_baseIN5boost9unit_test12_GLOBAL__N_130unit_test_log_data_helper_implESaIS3_EE17_Vector_impl_dataC2Ev
FNDA:1,_ZNSt12_Vector_baseIN5boost9unit_test12_GLOBAL__N_130unit_test_log_data_helper_implESaIS3_EE17_Vector_impl_dataC2Ev
FN:97,_ZNSt12_Vector_baseIN5boost9unit_test6output10junit_impl16junit_log_helper15assertion_entryESaIS5_EE17_Vector_impl_dataC2Ev
FNDA:1,_ZNSt12_Vector_baseIN5boost9unit_test6output10junit_impl16junit_log_helper15assertion_entryESaIS5_EE17_Vector_impl_dataC2Ev
FN:97,_ZNSt12_Vector_baseIN5boost10shared_ptrINS0_9unit_test9decorator4baseEEESaIS5_EE17_Vector_impl_dataC2Ev
FNDA:11,_ZNSt12_Vector_baseIN5boost10shared_ptrINS0_9unit_test9decorator4baseEEESaIS5_EE17_Vector_impl_dataC2Ev
FN:97,_ZNSt12_Vector_baseImSaImEE17_Vector_impl_dataC2Ev
FNDA:23,_ZNSt12_Vector_baseImSaImEE17_Vector_impl_dataC2Ev
FN:97,_ZNSt12_Vector_baseISt6vectorIN5boost9unit_test9framework4impl11name_filter9componentESaIS6_EESaIS8_EE17_Vector_impl_dataC2Ev
FNDA:0,_ZNSt12_Vector_baseISt6vectorIN5boost9unit_test9framework4impl11name_filter9componentESaIS6_EESaIS8_EE17_Vector_impl_dataC2Ev
FN:97,_ZNSt12_Vector_baseIN5boost7runtime16parameter_cla_idESaIS2_EE17_Vector_impl_dataC2Ev
FNDA:56,_ZNSt12_Vector_baseIN5boost7runtime16parameter_cla_idESaIS2_EE17_Vector_impl_dataC2Ev
FN:97,_ZNSt12_Vector_baseIPN5boost9unit_test10test_suiteESaIS3_EE17_Vector_impl_dataC2Ev
FNDA:1,_ZNSt12_Vector_baseIPN5boost9unit_test10test_suiteESaIS3_EE17_Vector_impl_dataC2Ev
FN:97,_ZNSt12_Vector_baseIN5boost9unit_test9framework5state13context_frameESaIS4_EE17_Vector_impl_dataC2Ev
FNDA:1,_ZNSt12_Vector_baseIN5boost9unit_test9framework5state13context_frameESaIS4_EE17_Vector_impl_dataC2Ev
FN:97,_ZNSt12_Vector_baseINSt7__cxx1112basic_stringIcSt11char_traitsIcESaIcEEESaIS5_EE17_Vector_impl_dataC2Ev
FNDA:14,_ZNSt12_Vector_baseINSt7__cxx1112basic_stringIcSt11char_traitsIcESaIcEEESaIS5_EE17_Vector_impl_dataC2Ev
FN:97,_ZNSt12_Vector_baseIcSaIcEE17_Vector_impl_dataC2Ev
FNDA:0,_ZNSt12_Vector_baseIcSaIcEE17_Vector_impl_dataC2Ev
FN:97,_ZNSt12_Vector_baseISt4pairIN5boost10shared_ptrINS1_9unit_test19test_unit_generatorEEESt6vectorINS2_INS3_9decorator4baseEEESaIS9_EEESaISC_EE17_Vector_impl_dataC2Ev
FNDA:2,_ZNSt12_Vector_baseISt4pairIN5boost10shared_ptrINS1_9unit_test19test_unit_generatorEEESt6vectorINS2_INS3_9decorator4baseEEESaIS9_EEESaISC_EE17_Vector_impl_dataC2Ev
FN:97,_ZNSt12_Vector_baseIPN5boost9unit_test12_GLOBAL__N_130unit_test_log_data_helper_implESaIS4_EE17_Vector_impl_dataC2Ev
FNDA:1,_ZNSt12_Vector_baseIPN5boost9unit_test12_GLOBAL__N_130unit_test_log_data_helper_implESaIS4_EE17_Vector_impl_dataC2Ev
FN:97,_ZNSt12_Vector_baseIN5boost10shared_ptrINS0_9unit_test17test_unit_fixtureEEESaIS4_EE17_Vector_impl_dataC2Ev
FNDA:12,_ZNSt12_Vector_baseIN5boost10shared_ptrINS0_9unit_test17test_unit_fixtureEEESaIS4_EE17_Vector_impl_dataC2Ev
FN:97,_ZNSt12_Vector_baseIN5boost17reference_wrapperIKNS0_7runtime16parameter_cla_idEEESaIS5_EE17_Vector_impl_dataC2Ev
FNDA:572,_ZNSt12_Vector_baseIN5boost17reference_wrapperIKNS0_7runtime16parameter_cla_idEEESaIS5_EE17_Vector_impl_dataC2Ev
FN:97,_ZNSt12_Vector_baseIN5boost10shared_ptrINS0_7runtime3cla13rt_cla_detail14parameter_trieEEESaIS6_EE17_Vector_impl_dataC2Ev
FNDA:0,_ZNSt12_Vector_baseIN5boost10shared_ptrINS0_7runtime3cla13rt_cla_detail14parameter_trieEEESaIS6_EE17_Vector_impl_dataC2Ev
FN:97,_ZNSt12_Vector_baseIN5boost9unit_test13basic_cstringIKcEESaIS4_EE17_Vector_impl_dataC2Ev
FNDA:12,_ZNSt12_Vector_baseIN5boost9unit_test13basic_cstringIKcEESaIS4_EE17_Vector_impl_dataC2Ev
FN:97,_ZNSt12_Vector_baseIN5boost8functionIFNS0_10test_tools16assertion_resultEmEEESaIS5_EE17_Vector_impl_dataC2Ev
FNDA:10,_ZNSt12_Vector_baseIN5boost8functionIFNS0_10test_tools16assertion_resultEmEEESaIS5_EE17_Vector_impl_dataC2Ev
FN:97,_ZNSt12_Vector_baseISt6vectorIN5boost10shared_ptrINS1_9unit_test9decorator4baseEEESaIS6_EESaIS8_EE17_Vector_impl_dataC2Ev
FNDA:1,_ZNSt12_Vector_baseISt6vectorIN5boost10shared_ptrINS1_9unit_test9decorator4baseEEESaIS6_EESaIS8_EE17_Vector_impl_dataC2Ev
FN:97,_ZNSt12_Vector_baseIN5boost9unit_test9framework4impl11name_filter9componentESaIS5_EE17_Vector_impl_dataC2Ev
FNDA:0,_ZNSt12_Vector_baseIN5boost9unit_test9framework4impl11name_filter9componentESaIS5_EE17_Vector_impl_dataC2Ev
FN:97,_ZNSt12_Vector_baseISt4pairIPKcPKN5boost9unit_test12lazy_ostreamEESaIS8_EE17_Vector_impl_dataC2Ev
FNDA:0,_ZNSt12_Vector_baseISt4pairIPKcPKN5boost9unit_test12lazy_ostreamEESaIS8_EE17_Vector_impl_dataC2Ev
FN:102,_ZNSt12_Vector_baseIN5boost9unit_test13basic_cstringIKcEESaIS4_EE17_Vector_impl_dataC2EOS7_
FNDA:0,_ZNSt12_Vector_baseIN5boost9unit_test13basic_cstringIKcEESaIS4_EE17_Vector_impl_dataC2EOS7_
FN:102,_ZNSt12_Vector_baseIN5boost10shared_ptrINS0_9unit_test9decorator4baseEEESaIS5_EE17_Vector_impl_dataC2EOS8_
FNDA:0,_ZNSt12_Vector_baseIN5boost10shared_ptrINS0_9unit_test9decorator4baseEEESaIS5_EE17_Vector_impl_dataC2EOS8_
FN:102,_ZNSt12_Vector_baseIN5boost9unit_test9framework4impl11name_filter9componentESaIS5_EE17_Vector_impl_dataC2EOS8_
FNDA:0,_ZNSt12_Vector_baseIN5boost9unit_test9framework4impl11name_filter9componentESaIS5_EE17_Vector_impl_dataC2EOS8_
FN:102,_ZNSt12_Vector_baseIN5boost9unit_test6output10junit_impl16junit_log_helper15assertion_entryESaIS5_EE17_Vector_impl_dataC2EOS8_
FNDA:0,_ZNSt12_Vector_baseIN5boost9unit_test6output10junit_impl16junit_log_helper15assertion_entryESaIS5_EE17_Vector_impl_dataC2EOS8_
FN:109,_ZNSt12_Vector_baseIN5boost10shared_ptrINS0_9unit_test9decorator4baseEEESaIS5_EE17_Vector_impl_data12_M_copy_dataERKS8_
FNDA:0,_ZNSt12_Vector_baseIN5boost10shared_ptrINS0_9unit_test9decorator4baseEEESaIS5_EE17_Vector_impl_data12_M_copy_dataERKS8_
FN:109,_ZNSt12_Vector_baseIN5boost10shared_ptrINS0_9unit_test17test_unit_fixtureEEESaIS4_EE17_Vector_impl_data12_M_copy_dataERKS7_
FNDA:3,_ZNSt12_Vector_baseIN5boost10shared_ptrINS0_9unit_test17test_unit_fixtureEEESaIS4_EE17_Vector_impl_data12_M_copy_dataERKS7_
FN:109,_ZNSt12_Vector_baseIN5boost10shared_ptrINS0_7runtime3cla13rt_cla_detail14parameter_trieEEESaIS6_EE17_Vector_impl_data12_M_copy_dataERKS9_
FNDA:0,_ZNSt12_Vector_baseIN5boost10shared_ptrINS0_7runtime3cla13rt_cla_detail14parameter_trieEEESaIS6_EE17_Vector_impl_data12_M_copy_dataERKS9_
FN:117,_ZNSt12_Vector_baseIN5boost10shared_ptrINS0_9unit_test17test_unit_fixtureEEESaIS4_EE17_Vector_impl_data12_M_swap_dataERS7_
FNDA:1,_ZNSt12_Vector_baseIN5boost10shared_ptrINS0_9unit_test17test_unit_fixtureEEESaIS4_EE17_Vector_impl_data12_M_swap_dataERS7_
FN:117,_ZNSt12_Vector_baseIN5boost10shared_ptrINS0_7runtime3cla13rt_cla_detail14parameter_trieEEESaIS6_EE17_Vector_impl_data12_M_swap_dataERS9_
FNDA:0,_ZNSt12_Vector_baseIN5boost10shared_ptrINS0_7runtime3cla13rt_cla_detail14parameter_trieEEESaIS6_EE17_Vector_impl_data12_M_swap_dataERS9_
FN:117,_ZNSt12_Vector_baseIN5boost10shared_ptrINS0_9unit_test9decorator4baseEEESaIS5_EE17_Vector_impl_data12_M_swap_dataERS8_
FNDA:0,_ZNSt12_Vector_baseIN5boost10shared_ptrINS0_9unit_test9decorator4baseEEESaIS5_EE17_Vector_impl_data12_M_swap_dataERS8_
FN:131,_ZNSt12_Vector_baseIN5boost7runtime16parameter_cla_idESaIS2_EE12_Vector_implC2Ev
FNDA:28,_ZNSt12_Vector_baseIN5boost7runtime16parameter_cla_idESaIS2_EE12_Vector_implC2Ev
FN:131,_ZNSt12_Vector_baseINSt7__cxx1112basic_stringIcSt11char_traitsIcESaIcEEESaIS5_EE12_Vector_implC2Ev
FNDA:12,_ZNSt12_Vector_baseINSt7__cxx1112basic_stringIcSt11char_traitsIcESaIcEEESaIS5_EE12_Vector_implC2Ev
FN:131,_ZNSt12_Vector_baseIN5boost9unit_test13basic_cstringIKcEESaIS4_EE12_Vector_implC2Ev
FNDA:6,_ZNSt12_Vector_baseIN5boost9unit_test13basic_cstringIKcEESaIS4_EE12_Vector_implC2Ev
FN:131,_ZNSt12_Vector_baseIN5boost10shared_ptrINS0_7runtime3cla13rt_cla_detail14parameter_trieEEESaIS6_EE12_Vector_implC2Ev
FNDA:0,_ZNSt12_Vector_baseIN5boost10shared_ptrINS0_7runtime3cla13rt_cla_detail14parameter_trieEEESaIS6_EE12_Vector_implC2Ev
FN:131,_ZNSt12_Vector_baseIN5boost17reference_wrapperIKNS0_7runtime16parameter_cla_idEEESaIS5_EE12_Vector_implC2Ev
FNDA:572,_ZNSt12_Vector_baseIN5boost17reference_wrapperIKNS0_7runtime16parameter_cla_idEEESaIS5_EE12_Vector_implC2Ev
FN:131,_ZNSt12_Vector_baseIPN5boost9unit_test12_GLOBAL__N_130unit_test_log_data_helper_implESaIS4_EE12_Vector_implC2Ev
FNDA:1,_ZNSt12_Vector_baseIPN5boost9unit_test12_GLOBAL__N_130unit_test_log_data_helper_implESaIS4_EE12_Vector_implC2Ev
FN:131,_ZNSt12_Vector_baseIN5boost9unit_test12_GLOBAL__N_130unit_test_log_data_helper_implESaIS3_EE12_Vector_implC2Ev
FNDA:1,_ZNSt12_Vector_baseIN5boost9unit_test12_GLOBAL__N_130unit_test_log_data_helper_implESaIS3_EE12_Vector_implC2Ev
FN:131,_ZNSt12_Vector_baseISt4pairIN5boost10shared_ptrINS1_9unit_test19test_unit_generatorEEESt6vectorINS2_INS3_9decorator4baseEEESaIS9_EEESaISC_EE12_Vector_implC2Ev
FNDA:2,_ZNSt12_Vector_baseISt4pairIN5boost10shared_ptrINS1_9unit_test19test_unit_generatorEEESt6vectorINS2_INS3_9decorator4baseEEESaIS9_EEESaISC_EE12_Vector_implC2Ev
FN:131,_ZNSt12_Vector_baseIN5boost9unit_test6output10junit_impl16junit_log_helper15assertion_entryESaIS5_EE12_Vector_implC2Ev
FNDA:1,_ZNSt12_Vector_baseIN5boost9unit_test6output10junit_impl16junit_log_helper15assertion_entryESaIS5_EE12_Vector_implC2Ev
FN:131,_ZNSt12_Vector_baseIN5boost8functionIFNS0_10test_tools16assertion_resultEmEEESaIS5_EE12_Vector_implC2Ev
FNDA:10,_ZNSt12_Vector_baseIN5boost8functionIFNS0_10test_tools16assertion_resultEmEEESaIS5_EE12_Vector_implC2Ev
FN:131,_ZNSt12_Vector_baseIN5boost10shared_ptrINS0_9unit_test17test_unit_fixtureEEESaIS4_EE12_Vector_implC2Ev
FNDA:10,_ZNSt12_Vector_baseIN5boost10shared_ptrINS0_9unit_test17test_unit_fixtureEEESaIS4_EE12_Vector_implC2Ev
FN:131,_ZNSt12_Vector_baseIcSaIcEE12_Vector_implC2Ev
FNDA:0,_ZNSt12_Vector_baseIcSaIcEE12_Vector_implC2Ev
FN:131,_ZNSt12_Vector_baseIN5boost10shared_ptrINS0_9unit_test9decorator4baseEEESaIS5_EE12_Vector_implC2Ev
FNDA:11,_ZNSt12_Vector_baseIN5boost10shared_ptrINS0_9unit_test9decorator4baseEEESaIS5_EE12_Vector_implC2Ev
FN:131,_ZNSt12_Vector_baseImSaImEE12_Vector_implC2Ev
FNDA:23,_ZNSt12_Vector_baseImSaImEE12_Vector_implC2Ev
FN:131,_ZNSt12_Vector_baseISt6vectorIN5boost9unit_test9framework4impl11name_filter9componentESaIS6_EESaIS8_EE12_Vector_implC2Ev
FNDA:0,_ZNSt12_Vector_baseISt6vectorIN5boost9unit_test9framework4impl11name_filter9componentESaIS6_EESaIS8_EE12_Vector_implC2Ev
FN:131,_ZNSt12_Vector_baseIPN5boost9unit_test10test_suiteESaIS3_EE12_Vector_implC2Ev
FNDA:1,_ZNSt12_Vector_baseIPN5boost9unit_test10test_suiteESaIS3_EE12_Vector_implC2Ev
FN:131,_ZNSt12_Vector_baseIN5boost9unit_test9framework5state13context_frameESaIS4_EE12_Vector_implC2Ev
FNDA:1,_ZNSt12_Vector_baseIN5boost9unit_test9framework5state13context_frameESaIS4_EE12_Vector_implC2Ev
FN:131,_ZNSt12_Vector_baseISt4pairIPKcPKN5boost9unit_test12lazy_ostreamEESaIS8_EE12_Vector_implC2Ev
FNDA:0,_ZNSt12_Vector_baseISt4pairIPKcPKN5boost9unit_test12lazy_ostreamEESaIS8_EE12_Vector_implC2Ev
FN:136,_ZNSt12_Vector_baseIN5boost7runtime16parameter_cla_idESaIS2_EE12_Vector_implC2ERKS3_
FNDA:28,_ZNSt12_Vector_baseIN5boost7runtime16parameter_cla_idESaIS2_EE12_Vector_implC2ERKS3_
FN:136,_ZNSt12_Vector_baseINSt7__cxx1112basic_stringIcSt11char_traitsIcESaIcEEESaIS5_EE12_Vector_implC2ERKS6_
FNDA:2,_ZNSt12_Vector_baseINSt7__cxx1112basic_stringIcSt11char_traitsIcESaIcEEESaIS5_EE12_Vector_implC2ERKS6_
FN:136,_ZNSt12_Vector_baseIN5boost10shared_ptrINS0_9unit_test17test_unit_fixtureEEESaIS4_EE12_Vector_implC2ERKS5_
FNDA:1,_ZNSt12_Vector_baseIN5boost10shared_ptrINS0_9unit_test17test_unit_fixtureEEESaIS4_EE12_Vector_implC2ERKS5_
FN:136,_ZNSt12_Vector_baseIN5boost9unit_test9framework4impl11name_filter9componentESaIS5_EE12_Vector_implC2ERKS6_
FNDA:0,_ZNSt12_Vector_baseIN5boost9unit_test9framework4impl11name_filter9componentESaIS5_EE12_Vector_implC2ERKS6_
FN:136,_ZNSt12_Vector_baseIN5boost10shared_ptrINS0_9unit_test9decorator4baseEEESaIS5_EE12_Vector_implC2ERKS6_
FNDA:0,_ZNSt12_Vector_baseIN5boost10shared_ptrINS0_9unit_test9decorator4baseEEESaIS5_EE12_Vector_implC2ERKS6_
FN:136,_ZNSt12_Vector_baseIN5boost9unit_test13basic_cstringIKcEESaIS4_EE12_Vector_implC2ERKS5_
FNDA:6,_ZNSt12_Vector_baseIN5boost9unit_test13basic_cstringIKcEESaIS4_EE12_Vector_implC2ERKS5_
FN:136,_ZNSt12_Vector_baseISt6vectorIN5boost10shared_ptrINS1_9unit_test9decorator4baseEEESaIS6_EESaIS8_EE12_Vector_implC2ERKS9_
FNDA:1,_ZNSt12_Vector_baseISt6vectorIN5boost10shared_ptrINS1_9unit_test9decorator4baseEEESaIS6_EESaIS8_EE12_Vector_implC2ERKS9_
FN:143,_ZNSt12_Vector_baseIN5boost9unit_test6output10junit_impl16junit_log_helper15assertion_entryESaIS5_EE12_Vector_implC2EOS8_
FNDA:0,_ZNSt12_Vector_baseIN5boost9unit_test6output10junit_impl16junit_log_helper15assertion_entryESaIS5_EE12_Vector_implC2EOS8_
FN:143,_ZNSt12_Vector_baseIN5boost10shared_ptrINS0_9unit_test9decorator4baseEEESaIS5_EE12_Vector_implC2EOS8_
FNDA:0,_ZNSt12_Vector_baseIN5boost10shared_ptrINS0_9unit_test9decorator4baseEEESaIS5_EE12_Vector_implC2EOS8_
FN:143,_ZNSt12_Vector_baseIN5boost9unit_test13basic_cstringIKcEESaIS4_EE12_Vector_implC2EOS7_
FNDA:0,_ZNSt12_Vector_baseIN5boost9unit_test13basic_cstringIKcEESaIS4_EE12_Vector_implC2EOS7_
FN:143,_ZNSt12_Vector_baseIN5boost9unit_test9framework4impl11name_filter9componentESaIS5_EE12_Vector_implC2EOS8_
FNDA:0,_ZNSt12_Vector_baseIN5boost9unit_test9framework4impl11name_filter9componentESaIS5_EE12_Vector_implC2EOS8_
FN:276,_ZNSt12_Vector_baseIN5boost10shared_ptrINS0_9unit_test17test_unit_fixtureEEESaIS4_EE19_M_get_Tp_allocatorEv
FNDA:15,_ZNSt12_Vector_baseIN5boost10shared_ptrINS0_9unit_test17test_unit_fixtureEEESaIS4_EE19_M_get_Tp_allocatorEv
FN:276,_ZNSt12_Vector_baseIN5boost10shared_ptrINS0_7runtime3cla13rt_cla_detail14parameter_trieEEESaIS6_EE19_M_get_Tp_allocatorEv
FNDA:0,_ZNSt12_Vector_baseIN5boost10shared_ptrINS0_7runtime3cla13rt_cla_detail14parameter_trieEEESaIS6_EE19_M_get_Tp_allocatorEv
FN:276,_ZNSt12_Vector_baseIN5boost17reference_wrapperIKNS0_7runtime16parameter_cla_idEEESaIS5_EE19_M_get_Tp_allocatorEv
FNDA:1870,_ZNSt12_Vector_baseIN5boost17reference_wrapperIKNS0_7runtime16parameter_cla_idEEESaIS5_EE19_M_get_Tp_allocatorEv
FN:276,_ZNSt12_Vector_baseISt4pairIPKcPKN5boost9unit_test12lazy_ostreamEESaIS8_EE19_M_get_Tp_allocatorEv
FNDA:0,_ZNSt12_Vector_baseISt4pairIPKcPKN5boost9unit_test12lazy_ostreamEESaIS8_EE19_M_get_Tp_allocatorEv
FN:276,_ZNSt12_Vector_baseIN5boost7runtime16parameter_cla_idESaIS2_EE19_M_get_Tp_allocatorEv
FNDA:226,_ZNSt12_Vector_baseIN5boost7runtime16parameter_cla_idESaIS2_EE19_M_get_Tp_allocatorEv
FN:276,_ZNSt12_Vector_baseIPN5boost9unit_test12_GLOBAL__N_130unit_test_log_data_helper_implESaIS4_EE19_M_get_Tp_allocatorEv
FNDA:4,_ZNSt12_Vector_baseIPN5boost9unit_test12_GLOBAL__N_130unit_test_log_data_helper_implESaIS4_EE19_M_get_Tp_allocatorEv
FN:276,_ZNSt12_Vector_baseIN5boost9unit_test12_GLOBAL__N_130unit_test_log_data_helper_implESaIS3_EE19_M_get_Tp_allocatorEv
FNDA:7,_ZNSt12_Vector_baseIN5boost9unit_test12_GLOBAL__N_130unit_test_log_data_helper_implESaIS3_EE19_M_get_Tp_allocatorEv
FN:276,_ZNSt12_Vector_baseIcSaIcEE19_M_get_Tp_allocatorEv
FNDA:0,_ZNSt12_Vector_baseIcSaIcEE19_M_get_Tp_allocatorEv
FN:276,_ZNSt12_Vector_baseIN5boost9unit_test9framework5state13context_frameESaIS4_EE19_M_get_Tp_allocatorEv
FNDA:1,_ZNSt12_Vector_baseIN5boost9unit_test9framework5state13context_frameESaIS4_EE19_M_get_Tp_allocatorEv
FN:276,_ZNSt12_Vector_baseIPN5boost9unit_test10test_suiteESaIS3_EE19_M_get_Tp_allocatorEv
FNDA:5,_ZNSt12_Vector_baseIPN5boost9unit_test10test_suiteESaIS3_EE19_M_get_Tp_allocatorEv
FN:276,_ZNSt12_Vector_baseIN5boost9unit_test9framework4impl11name_filter9componentESaIS5_EE19_M_get_Tp_allocatorEv
FNDA:0,_ZNSt12_Vector_baseIN5boost9unit_test9framework4impl11name_filter9componentESaIS5_EE19_M_get_Tp_allocatorEv
FN:276,_ZNSt12_Vector_baseIN5boost9unit_test13basic_cstringIKcEESaIS4_EE19_M_get_Tp_allocatorEv
FNDA:75,_ZNSt12_Vector_baseIN5boost9unit_test13basic_cstringIKcEESaIS4_EE19_M_get_Tp_allocatorEv
FN:276,_ZNSt12_Vector_baseINSt7__cxx1112basic_stringIcSt11char_traitsIcESaIcEEESaIS5_EE19_M_get_Tp_allocatorEv
FNDA:16,_ZNSt12_Vector_baseINSt7__cxx1112basic_stringIcSt11char_traitsIcESaIcEEESaIS5_EE19_M_get_Tp_allocatorEv
FN:276,_ZNSt12_Vector_baseISt6vectorIN5boost9unit_test9framework4impl11name_filter9componentESaIS6_EESaIS8_EE19_M_get_Tp_allocatorEv
FNDA:0,_ZNSt12_Vector_baseISt6vectorIN5boost9unit_test9framework4impl11name_filter9componentESaIS6_EESaIS8_EE19_M_get_Tp_allocatorEv
FN:276,_ZNSt12_Vector_baseImSaImEE19_M_get_Tp_allocatorEv
FNDA:33,_ZNSt12_Vector_baseImSaImEE19_M_get_Tp_allocatorEv
FN:276,_ZNSt12_Vector_baseIN5boost9unit_test6output10junit_impl16junit_log_helper15assertion_entryESaIS5_EE19_M_get_Tp_allocatorEv
FNDA:1,_ZNSt12_Vector_baseIN5boost9unit_test6output10junit_impl16junit_log_helper15assertion_entryESaIS5_EE19_M_get_Tp_allocatorEv
FN:276,_ZNSt12_Vector_baseIN5boost10shared_ptrINS0_9unit_test9decorator4baseEEESaIS5_EE19_M_get_Tp_allocatorEv
FNDA:11,_ZNSt12_Vector_baseIN5boost10shared_ptrINS0_9unit_test9decorator4baseEEESaIS5_EE19_M_get_Tp_allocatorEv
FN:276,_ZNSt12_Vector_baseISt6vectorIN5boost10shared_ptrINS1_9unit_test9decorator4baseEEESaIS6_EESaIS8_EE19_M_get_Tp_allocatorEv
FNDA:2,_ZNSt12_Vector_baseISt6vectorIN5boost10shared_ptrINS1_9unit_test9decorator4baseEEESaIS6_EESaIS8_EE19_M_get_Tp_allocatorEv
FN:276,_ZNSt12_Vector_baseISt4pairIN5boost10shared_ptrINS1_9unit_test19test_unit_generatorEEESt6vectorINS2_INS3_9decorator4baseEEESaIS9_EEESaISC_EE19_M_get_Tp_allocatorEv
FNDA:2,_ZNSt12_Vector_baseISt4pairIN5boost10shared_ptrINS1_9unit_test19test_unit_generatorEEESt6vectorINS2_INS3_9decorator4baseEEESaIS9_EEESaISC_EE19_M_get_Tp_allocatorEv
FN:276,_ZNSt12_Vector_baseIN5boost8functionIFNS0_10test_tools16assertion_resultEmEEESaIS5_EE19_M_get_Tp_allocatorEv
FNDA:10,_ZNSt12_Vector_baseIN5boost8functionIFNS0_10test_tools16assertion_resultEmEEESaIS5_EE19_M_get_Tp_allocatorEv
FN:280,_ZNKSt12_Vector_baseIN5boost10shared_ptrINS0_7runtime3cla13rt_cla_detail14parameter_trieEEESaIS6_EE19_M_get_Tp_allocatorEv
FNDA:0,_ZNKSt12_Vector_baseIN5boost10shared_ptrINS0_7runtime3cla13rt_cla_detail14parameter_trieEEESaIS6_EE19_M_get_Tp_allocatorEv
FN:280,_ZNKSt12_Vector_baseIN5boost8functionIFNS0_10test_tools16assertion_resultEmEEESaIS5_EE19_M_get_Tp_allocatorEv
FNDA:0,_ZNKSt12_Vector_baseIN5boost8functionIFNS0_10test_tools16assertion_resultEmEEESaIS5_EE19_M_get_Tp_allocatorEv
FN:280,_ZNKSt12_Vector_baseIN5boost9unit_test12_GLOBAL__N_130unit_test_log_data_helper_implESaIS3_EE19_M_get_Tp_allocatorEv
FNDA:6,_ZNKSt12_Vector_baseIN5boost9unit_test12_GLOBAL__N_130unit_test_log_data_helper_implESaIS3_EE19_M_get_Tp_allocatorEv
FN:280,_ZNKSt12_Vector_baseIN5boost7runtime16parameter_cla_idESaIS2_EE19_M_get_Tp_allocatorEv
FNDA:170,_ZNKSt12_Vector_baseIN5boost7runtime16parameter_cla_idESaIS2_EE19_M_get_Tp_allocatorEv
FN:280,_ZNKSt12_Vector_baseISt4pairIPKcPKN5boost9unit_test12lazy_ostreamEESaIS8_EE19_M_get_Tp_allocatorEv
FNDA:0,_ZNKSt12_Vector_baseISt4pairIPKcPKN5boost9unit_test12lazy_ostreamEESaIS8_EE19_M_get_Tp_allocatorEv
FN:280,_ZNKSt12_Vector_baseIN5boost9unit_test9framework5state13context_frameESaIS4_EE19_M_get_Tp_allocatorEv
FNDA:0,_ZNKSt12_Vector_baseIN5boost9unit_test9framework5state13context_frameESaIS4_EE19_M_get_Tp_allocatorEv
FN:280,_ZNKSt12_Vector_baseISt6vectorIN5boost10shared_ptrINS1_9unit_test9decorator4baseEEESaIS6_EESaIS8_EE19_M_get_Tp_allocatorEv
FNDA:0,_ZNKSt12_Vector_baseISt6vectorIN5boost10shared_ptrINS1_9unit_test9decorator4baseEEESaIS6_EESaIS8_EE19_M_get_Tp_allocatorEv
FN:280,_ZNKSt12_Vector_baseIN5boost9unit_test6output10junit_impl16junit_log_helper15assertion_entryESaIS5_EE19_M_get_Tp_allocatorEv
FNDA:0,_ZNKSt12_Vector_baseIN5boost9unit_test6output10junit_impl16junit_log_helper15assertion_entryESaIS5_EE19_M_get_Tp_allocatorEv
FN:280,_ZNKSt12_Vector_baseISt6vectorIN5boost9unit_test9framework4impl11name_filter9componentESaIS6_EESaIS8_EE19_M_get_Tp_allocatorEv
FNDA:0,_ZNKSt12_Vector_baseISt6vectorIN5boost9unit_test9framework4impl11name_filter9componentESaIS6_EESaIS8_EE19_M_get_Tp_allocatorEv
FN:280,_ZNKSt12_Vector_baseIN5boost17reference_wrapperIKNS0_7runtime16parameter_cla_idEEESaIS5_EE19_M_get_Tp_allocatorEv
FNDA:1298,_ZNKSt12_Vector_baseIN5boost17reference_wrapperIKNS0_7runtime16parameter_cla_idEEESaIS5_EE19_M_get_Tp_allocatorEv
FN:280,_ZNKSt12_Vector_baseIN5boost10shared_ptrINS0_9unit_test17test_unit_fixtureEEESaIS4_EE19_M_get_Tp_allocatorEv
FNDA:0,_ZNKSt12_Vector_baseIN5boost10shared_ptrINS0_9unit_test17test_unit_fixtureEEESaIS4_EE19_M_get_Tp_allocatorEv
FN:280,_ZNKSt12_Vector_baseIN5boost9unit_test9framework4impl11name_filter9componentESaIS5_EE19_M_get_Tp_allocatorEv
FNDA:0,_ZNKSt12_Vector_baseIN5boost9unit_test9framework4impl11name_filter9componentESaIS5_EE19_M_get_Tp_allocatorEv
FN:280,_ZNKSt12_Vector_baseIPN5boost9unit_test12_GLOBAL__N_130unit_test_log_data_helper_implESaIS4_EE19_M_get_Tp_allocatorEv
FNDA:2,_ZNKSt12_Vector_baseIPN5boost9unit_test12_GLOBAL__N_130unit_test_log_data_helper_implESaIS4_EE19_M_get_Tp_allocatorEv
FN:280,_ZNKSt12_Vector_baseISt4pairIN5boost10shared_ptrINS1_9unit_test19test_unit_generatorEEESt6vectorINS2_INS3_9decorator4baseEEESaIS9_EEESaISC_EE19_M_get_Tp_allocatorEv
FNDA:0,_ZNKSt12_Vector_baseISt4pairIN5boost10shared_ptrINS1_9unit_test19test_unit_generatorEEESt6vectorINS2_INS3_9decorator4baseEEESaIS9_EEESaISC_EE19_M_get_Tp_allocatorEv
FN:280,_ZNKSt12_Vector_baseImSaImEE19_M_get_Tp_allocatorEv
FNDA:10,_ZNKSt12_Vector_baseImSaImEE19_M_get_Tp_allocatorEv
FN:280,_ZNKSt12_Vector_baseIN5boost9unit_test13basic_cstringIKcEESaIS4_EE19_M_get_Tp_allocatorEv
FNDA:44,_ZNKSt12_Vector_baseIN5boost9unit_test13basic_cstringIKcEESaIS4_EE19_M_get_Tp_allocatorEv
FN:280,_ZNKSt12_Vector_baseIcSaIcEE19_M_get_Tp_allocatorEv
FNDA:0,_ZNKSt12_Vector_baseIcSaIcEE19_M_get_Tp_allocatorEv
FN:280,_ZNKSt12_Vector_baseINSt7__cxx1112basic_stringIcSt11char_traitsIcESaIcEEESaIS5_EE19_M_get_Tp_allocatorEv
FNDA:2,_ZNKSt12_Vector_baseINSt7__cxx1112basic_stringIcSt11char_traitsIcESaIcEEESaIS5_EE19_M_get_Tp_allocatorEv
FN:280,_ZNKSt12_Vector_baseIN5boost10shared_ptrINS0_9unit_test9decorator4baseEEESaIS5_EE19_M_get_Tp_allocatorEv
FNDA:0,_ZNKSt12_Vector_baseIN5boost10shared_ptrINS0_9unit_test9decorator4baseEEESaIS5_EE19_M_get_Tp_allocatorEv
FN:280,_ZNKSt12_Vector_baseIPN5boost9unit_test10test_suiteESaIS3_EE19_M_get_Tp_allocatorEv
FNDA:4,_ZNKSt12_Vector_baseIPN5boost9unit_test10test_suiteESaIS3_EE19_M_get_Tp_allocatorEv
FN:284,_ZNKSt12_Vector_baseIN5boost10shared_ptrINS0_9unit_test9decorator4baseEEESaIS5_EE13get_allocatorEv
FNDA:0,_ZNKSt12_Vector_baseIN5boost10shared_ptrINS0_9unit_test9decorator4baseEEESaIS5_EE13get_allocatorEv
FN:288,_ZNSt12_Vector_baseImSaImEEC2Ev
FNDA:23,_ZNSt12_Vector_baseImSaImEEC2Ev
FN:288,_ZNSt12_Vector_baseIcSaIcEEC2Ev
FNDA:0,_ZNSt12_Vector_baseIcSaIcEEC2Ev
FN:288,_ZNSt12_Vector_baseINSt7__cxx1112basic_stringIcSt11char_traitsIcESaIcEEESaIS5_EEC2Ev
FNDA:12,_ZNSt12_Vector_baseINSt7__cxx1112basic_stringIcSt11char_traitsIcESaIcEEESaIS5_EEC2Ev
FN:288,_ZNSt12_Vector_baseIPN5boost9unit_test10test_suiteESaIS3_EEC2Ev
FNDA:1,_ZNSt12_Vector_baseIPN5boost9unit_test10test_suiteESaIS3_EEC2Ev
FN:288,_ZNSt12_Vector_baseIN5boost9unit_test9framework5state13context_frameESaIS4_EEC2Ev
FNDA:1,_ZNSt12_Vector_baseIN5boost9unit_test9framework5state13context_frameESaIS4_EEC2Ev
FN:288,_ZNSt12_Vector_baseIN5boost9unit_test6output10junit_impl16junit_log_helper15assertion_entryESaIS5_EEC2Ev
FNDA:1,_ZNSt12_Vector_baseIN5boost9unit_test6output10junit_impl16junit_log_helper15assertion_entryESaIS5_EEC2Ev
FN:288,_ZNSt12_Vector_baseISt6vectorIN5boost9unit_test9framework4impl11name_filter9componentESaIS6_EESaIS8_EEC2Ev
FNDA:0,_ZNSt12_Vector_baseISt6vectorIN5boost9unit_test9framework4impl11name_filter9componentESaIS6_EESaIS8_EEC2Ev
FN:288,_ZNSt12_Vector_baseIN5boost10shared_ptrINS0_9unit_test9decorator4baseEEESaIS5_EEC2Ev
FNDA:11,_ZNSt12_Vector_baseIN5boost10shared_ptrINS0_9unit_test9decorator4baseEEESaIS5_EEC2Ev
FN:288,_ZNSt12_Vector_baseIN5boost9unit_test12_GLOBAL__N_130unit_test_log_data_helper_implESaIS3_EEC2Ev
FNDA:1,_ZNSt12_Vector_baseIN5boost9unit_test12_GLOBAL__N_130unit_test_log_data_helper_implESaIS3_EEC2Ev
FN:288,_ZNSt12_Vector_baseIN5boost8functionIFNS0_10test_tools16assertion_resultEmEEESaIS5_EEC2Ev
FNDA:10,_ZNSt12_Vector_baseIN5boost8functionIFNS0_10test_tools16assertion_resultEmEEESaIS5_EEC2Ev
FN:288,_ZNSt12_Vector_baseISt4pairIPKcPKN5boost9unit_test12lazy_ostreamEESaIS8_EEC2Ev
FNDA:0,_ZNSt12_Vector_baseISt4pairIPKcPKN5boost9unit_test12lazy_ostreamEESaIS8_EEC2Ev
FN:288,_ZNSt12_Vector_baseIN5boost10shared_ptrINS0_9unit_test17test_unit_fixtureEEESaIS4_EEC2Ev
FNDA:10,_ZNSt12_Vector_baseIN5boost10shared_ptrINS0_9unit_test17test_unit_fixtureEEESaIS4_EEC2Ev
FN:288,_ZNSt12_Vector_baseIN5boost9unit_test13basic_cstringIKcEESaIS4_EEC2Ev
FNDA:6,_ZNSt12_Vector_baseIN5boost9unit_test13basic_cstringIKcEESaIS4_EEC2Ev
FN:288,_ZNSt12_Vector_baseIN5boost10shared_ptrINS0_7runtime3cla13rt_cla_detail14parameter_trieEEESaIS6_EEC2Ev
FNDA:0,_ZNSt12_Vector_baseIN5boost10shared_ptrINS0_7runtime3cla13rt_cla_detail14parameter_trieEEESaIS6_EEC2Ev
FN:288,_ZNSt12_Vector_baseIN5boost17reference_wrapperIKNS0_7runtime16parameter_cla_idEEESaIS5_EEC2Ev
FNDA:572,_ZNSt12_Vector_baseIN5boost17reference_wrapperIKNS0_7runtime16parameter_cla_idEEESaIS5_EEC2Ev
FN:288,_ZNSt12_Vector_baseIPN5boost9unit_test12_GLOBAL__N_130unit_test_log_data_helper_implESaIS4_EEC2Ev
FNDA:1,_ZNSt12_Vector_baseIPN5boost9unit_test12_GLOBAL__N_130unit_test_log_data_helper_implESaIS4_EEC2Ev
FN:288,_ZNSt12_Vector_baseIN5boost7runtime16parameter_cla_idESaIS2_EEC2Ev
FNDA:28,_ZNSt12_Vector_baseIN5boost7runtime16parameter_cla_idESaIS2_EEC2Ev
FN:288,_ZNSt12_Vector_baseISt4pairIN5boost10shared_ptrINS1_9unit_test19test_unit_generatorEEESt6vectorINS2_INS3_9decorator4baseEEESaIS9_EEESaISC_EEC2Ev
FNDA:2,_ZNSt12_Vector_baseISt4pairIN5boost10shared_ptrINS1_9unit_test19test_unit_generatorEEESt6vectorINS2_INS3_9decorator4baseEEESaIS9_EEESaISC_EEC2Ev
FN:293,_ZNSt12_Vector_baseIN5boost10shared_ptrINS0_9unit_test9decorator4baseEEESaIS5_EEC2ERKS6_
FNDA:0,_ZNSt12_Vector_baseIN5boost10shared_ptrINS0_9unit_test9decorator4baseEEESaIS5_EEC2ERKS6_
FN:293,_ZNSt12_Vector_baseIN5boost10shared_ptrINS0_9unit_test17test_unit_fixtureEEESaIS4_EEC2ERKS5_
FNDA:1,_ZNSt12_Vector_baseIN5boost10shared_ptrINS0_9unit_test17test_unit_fixtureEEESaIS4_EEC2ERKS5_
FN:293,_ZNSt12_Vector_baseIN5boost9unit_test9framework4impl11name_filter9componentESaIS5_EEC2ERKS6_
FNDA:0,_ZNSt12_Vector_baseIN5boost9unit_test9framework4impl11name_filter9componentESaIS5_EEC2ERKS6_
FN:303,_ZNSt12_Vector_baseIN5boost7runtime16parameter_cla_idESaIS2_EEC2EmRKS3_
FNDA:28,_ZNSt12_Vector_baseIN5boost7runtime16parameter_cla_idESaIS2_EEC2EmRKS3_
FN:303,_ZNSt12_Vector_baseIN5boost9unit_test13basic_cstringIKcEESaIS4_EEC2EmRKS5_
FNDA:6,_ZNSt12_Vector_baseIN5boost9unit_test13basic_cstringIKcEESaIS4_EEC2EmRKS5_
FN:303,_ZNSt12_Vector_baseISt6vectorIN5boost10shared_ptrINS1_9unit_test9decorator4baseEEESaIS6_EESaIS8_EEC2EmRKS9_
FNDA:1,_ZNSt12_Vector_baseISt6vectorIN5boost10shared_ptrINS1_9unit_test9decorator4baseEEESaIS6_EESaIS8_EEC2EmRKS9_
FN:303,_ZNSt12_Vector_baseIN5boost10shared_ptrINS0_9unit_test9decorator4baseEEESaIS5_EEC2EmRKS6_
FNDA:0,_ZNSt12_Vector_baseIN5boost10shared_ptrINS0_9unit_test9decorator4baseEEESaIS5_EEC2EmRKS6_
FN:303,_ZNSt12_Vector_baseINSt7__cxx1112basic_stringIcSt11char_traitsIcESaIcEEESaIS5_EEC2EmRKS6_
FNDA:2,_ZNSt12_Vector_baseINSt7__cxx1112basic_stringIcSt11char_traitsIcESaIcEEESaIS5_EEC2EmRKS6_
FN:308,_ZNSt12_Vector_baseIN5boost10shared_ptrINS0_9unit_test9decorator4baseEEESaIS5_EEC2EOS7_
FNDA:0,_ZNSt12_Vector_baseIN5boost10shared_ptrINS0_9unit_test9decorator4baseEEESaIS5_EEC2EOS7_
FN:308,_ZNSt12_Vector_baseIN5boost9unit_test13basic_cstringIKcEESaIS4_EEC2EOS6_
FNDA:0,_ZNSt12_Vector_baseIN5boost9unit_test13basic_cstringIKcEESaIS4_EEC2EOS6_
FN:308,_ZNSt12_Vector_baseIN5boost9unit_test6output10junit_impl16junit_log_helper15assertion_entryESaIS5_EEC2EOS7_
FNDA:0,_ZNSt12_Vector_baseIN5boost9unit_test6output10junit_impl16junit_log_helper15assertion_entryESaIS5_EEC2EOS7_
FN:308,_ZNSt12_Vector_baseIN5boost9unit_test9framework4impl11name_filter9componentESaIS5_EEC2EOS7_
FNDA:0,_ZNSt12_Vector_baseIN5boost9unit_test9framework4impl11name_filter9componentESaIS5_EEC2EOS7_
FN:333,_ZNSt12_Vector_baseIN5boost9unit_test12_GLOBAL__N_130unit_test_log_data_helper_implESaIS3_EED2Ev
FNDA:1,_ZNSt12_Vector_baseIN5boost9unit_test12_GLOBAL__N_130unit_test_log_data_helper_implESaIS3_EED2Ev
FN:333,_ZNSt12_Vector_baseISt4pairIN5boost10shared_ptrINS1_9unit_test19test_unit_generatorEEESt6vectorINS2_INS3_9decorator4baseEEESaIS9_EEESaISC_EED2Ev
FNDA:2,_ZNSt12_Vector_baseISt4pairIN5boost10shared_ptrINS1_9unit_test19test_unit_generatorEEESt6vectorINS2_INS3_9decorator4baseEEESaIS9_EEESaISC_EED2Ev
FN:333,_ZNSt12_Vector_baseIN5boost9unit_test9framework4impl11name_filter9componentESaIS5_EED2Ev
FNDA:0,_ZNSt12_Vector_baseIN5boost9unit_test9framework4impl11name_filter9componentESaIS5_EED2Ev
FN:333,_ZNSt12_Vector_baseIN5boost10shared_ptrINS0_9unit_test17test_unit_fixtureEEESaIS4_EED2Ev
FNDA:11,_ZNSt12_Vector_baseIN5boost10shared_ptrINS0_9unit_test17test_unit_fixtureEEESaIS4_EED2Ev
FN:333,_ZNSt12_Vector_baseISt6vectorIN5boost9unit_test9framework4impl11name_filter9componentESaIS6_EESaIS8_EED2Ev
FNDA:0,_ZNSt12_Vector_baseISt6vectorIN5boost9unit_test9framework4impl11name_filter9componentESaIS6_EESaIS8_EED2Ev
FN:333,_ZNSt12_Vector_baseImSaImEED2Ev
FNDA:23,_ZNSt12_Vector_baseImSaImEED2Ev
FN:333,_ZNSt12_Vector_baseISt4pairIPKcPKN5boost9unit_test12lazy_ostreamEESaIS8_EED2Ev
FNDA:0,_ZNSt12_Vector_baseISt4pairIPKcPKN5boost9unit_test12lazy_ostreamEESaIS8_EED2Ev
FN:333,_ZNSt12_Vector_baseIcSaIcEED2Ev
FNDA:0,_ZNSt12_Vector_baseIcSaIcEED2Ev
FN:333,_ZNSt12_Vector_baseIN5boost9unit_test13basic_cstringIKcEESaIS4_EED2Ev
FNDA:12,_ZNSt12_Vector_baseIN5boost9unit_test13basic_cstringIKcEESaIS4_EED2Ev
FN:333,_ZNSt12_Vector_baseIN5boost9unit_test6output10junit_impl16junit_log_helper15assertion_entryESaIS5_EED2Ev
FNDA:1,_ZNSt12_Vector_baseIN5boost9unit_test6output10junit_impl16junit_log_helper15assertion_entryESaIS5_EED2Ev
FN:333,_ZNSt12_Vector_baseIN5boost7runtime16parameter_cla_idESaIS2_EED2Ev
FNDA:56,_ZNSt12_Vector_baseIN5boost7runtime16parameter_cla_idESaIS2_EED2Ev
FN:333,_ZNSt12_Vector_baseIN5boost8functionIFNS0_10test_tools16assertion_resultEmEEESaIS5_EED2Ev
FNDA:10,_ZNSt12_Vector_baseIN5boost8functionIFNS0_10test_tools16assertion_resultEmEEESaIS5_EED2Ev
FN:333,_ZNSt12_Vector_baseIN5boost17reference_wrapperIKNS0_7runtime16parameter_cla_idEEESaIS5_EED2Ev
FNDA:572,_ZNSt12_Vector_baseIN5boost17reference_wrapperIKNS0_7runtime16parameter_cla_idEEESaIS5_EED2Ev
FN:333,_ZNSt12_Vector_baseIPN5boost9unit_test12_GLOBAL__N_130unit_test_log_data_helper_implESaIS4_EED2Ev
FNDA:1,_ZNSt12_Vector_baseIPN5boost9unit_test12_GLOBAL__N_130unit_test_log_data_helper_implESaIS4_EED2Ev
FN:333,_ZNSt12_Vector_baseISt6vectorIN5boost10shared_ptrINS1_9unit_test9decorator4baseEEESaIS6_EESaIS8_EED2Ev
FNDA:1,_ZNSt12_Vector_baseISt6vectorIN5boost10shared_ptrINS1_9unit_test9decorator4baseEEESaIS6_EESaIS8_EED2Ev
FN:333,_ZNSt12_Vector_baseINSt7__cxx1112basic_stringIcSt11char_traitsIcESaIcEEESaIS5_EED2Ev
FNDA:14,_ZNSt12_Vector_baseINSt7__cxx1112basic_stringIcSt11char_traitsIcESaIcEEESaIS5_EED2Ev
FN:333,_ZNSt12_Vector_baseIN5boost9unit_test9framework5state13context_frameESaIS4_EED2Ev
FNDA:1,_ZNSt12_Vector_baseIN5boost9unit_test9framework5state13context_frameESaIS4_EED2Ev
FN:333,_ZNSt12_Vector_baseIPN5boost9unit_test10test_suiteESaIS3_EED2Ev
FNDA:1,_ZNSt12_Vector_baseIPN5boost9unit_test10test_suiteESaIS3_EED2Ev
FN:333,_ZNSt12_Vector_baseIN5boost10shared_ptrINS0_9unit_test9decorator4baseEEESaIS5_EED2Ev
FNDA:11,_ZNSt12_Vector_baseIN5boost10shared_ptrINS0_9unit_test9decorator4baseEEESaIS5_EED2Ev
FN:333,_ZNSt12_Vector_baseIN5boost10shared_ptrINS0_7runtime3cla13rt_cla_detail14parameter_trieEEESaIS6_EED2Ev
FNDA:0,_ZNSt12_Vector_baseIN5boost10shared_ptrINS0_7runtime3cla13rt_cla_detail14parameter_trieEEESaIS6_EED2Ev
FN:343,_ZNSt12_Vector_baseISt4pairIPKcPKN5boost9unit_test12lazy_ostreamEESaIS8_EE11_M_allocateEm
FNDA:0,_ZNSt12_Vector_baseISt4pairIPKcPKN5boost9unit_test12lazy_ostreamEESaIS8_EE11_M_allocateEm
FN:343,_ZNSt12_Vector_baseISt6vectorIN5boost9unit_test9framework4impl11name_filter9componentESaIS6_EESaIS8_EE11_M_allocateEm
FNDA:0,_ZNSt12_Vector_baseISt6vectorIN5boost9unit_test9framework4impl11name_filter9componentESaIS6_EESaIS8_EE11_M_allocateEm
FN:343,_ZNSt12_Vector_baseIN5boost8functionIFNS0_10test_tools16assertion_resultEmEEESaIS5_EE11_M_allocateEm
FNDA:0,_ZNSt12_Vector_baseIN5boost8functionIFNS0_10test_tools16assertion_resultEmEEESaIS5_EE11_M_allocateEm
FN:343,_ZNSt12_Vector_baseIN5boost7runtime16parameter_cla_idESaIS2_EE11_M_allocateEm
FNDA:99,_ZNSt12_Vector_baseIN5boost7runtime16parameter_cla_idESaIS2_EE11_M_allocateEm
FN:343,_ZNSt12_Vector_baseIPN5boost9unit_test12_GLOBAL__N_130unit_test_log_data_helper_implESaIS4_EE11_M_allocateEm
FNDA:1,_ZNSt12_Vector_baseIPN5boost9unit_test12_GLOBAL__N_130unit_test_log_data_helper_implESaIS4_EE11_M_allocateEm
FN:343,_ZNSt12_Vector_baseIcSaIcEE11_M_allocateEm
FNDA:0,_ZNSt12_Vector_baseIcSaIcEE11_M_allocateEm
FN:343,_ZNSt12_Vector_baseIN5boost10shared_ptrINS0_9unit_test17test_unit_fixtureEEESaIS4_EE11_M_allocateEm
FNDA:1,_ZNSt12_Vector_baseIN5boost10shared_ptrINS0_9unit_test17test_unit_fixtureEEESaIS4_EE11_M_allocateEm
FN:343,_ZNSt12_Vector_baseIN5boost9unit_test12_GLOBAL__N_130unit_test_log_data_helper_implESaIS3_EE11_M_allocateEm
FNDA:3,_ZNSt12_Vector_baseIN5boost9unit_test12_GLOBAL__N_130unit_test_log_data_helper_implESaIS3_EE11_M_allocateEm
FN:343,_ZNSt12_Vector_baseImSaImEE11_M_allocateEm
FNDA:5,_ZNSt12_Vector_baseImSaImEE11_M_allocateEm
FN:343,_ZNSt12_Vector_baseIN5boost9unit_test9framework5state13context_frameESaIS4_EE11_M_allocateEm
FNDA:0,_ZNSt12_Vector_baseIN5boost9unit_test9framework5state13context_frameESaIS4_EE11_M_allocateEm
FN:343,_ZNSt12_Vector_baseIN5boost9unit_test6output10junit_impl16junit_log_helper15assertion_entryESaIS5_EE11_M_allocateEm
FNDA:0,_ZNSt12_Vector_baseIN5boost9unit_test6output10junit_impl16junit_log_helper15assertion_entryESaIS5_EE11_M_allocateEm
FN:343,_ZNSt12_Vector_baseIPN5boost9unit_test10test_suiteESaIS3_EE11_M_allocateEm
FNDA:2,_ZNSt12_Vector_baseIPN5boost9unit_test10test_suiteESaIS3_EE11_M_allocateEm
FN:343,_ZNSt12_Vector_baseINSt7__cxx1112basic_stringIcSt11char_traitsIcESaIcEEESaIS5_EE11_M_allocateEm
FNDA:2,_ZNSt12_Vector_baseINSt7__cxx1112basic_stringIcSt11char_traitsIcESaIcEEESaIS5_EE11_M_allocateEm
FN:343,_ZNSt12_Vector_baseISt4pairIN5boost10shared_ptrINS1_9unit_test19test_unit_generatorEEESt6vectorINS2_INS3_9decorator4baseEEESaIS9_EEESaISC_EE11_M_allocateEm
FNDA:0,_ZNSt12_Vector_baseISt4pairIN5boost10shared_ptrINS1_9unit_test19test_unit_generatorEEESt6vectorINS2_INS3_9decorator4baseEEESaIS9_EEESaISC_EE11_M_allocateEm
FN:343,_ZNSt12_Vector_baseIN5boost9unit_test13basic_cstringIKcEESaIS4_EE11_M_allocateEm
FNDA:25,_ZNSt12_Vector_baseIN5boost9unit_test13basic_cstringIKcEESaIS4_EE11_M_allocateEm
FN:343,_ZNSt12_Vector_baseIN5boost10shared_ptrINS0_9unit_test9decorator4baseEEESaIS5_EE11_M_allocateEm
FNDA:0,_ZNSt12_Vector_baseIN5boost10shared_ptrINS0_9unit_test9decorator4baseEEESaIS5_EE11_M_allocateEm
FN:343,_ZNSt12_Vector_baseIN5boost10shared_ptrINS0_7runtime3cla13rt_cla_detail14parameter_trieEEESaIS6_EE11_M_allocateEm
FNDA:0,_ZNSt12_Vector_baseIN5boost10shared_ptrINS0_7runtime3cla13rt_cla_detail14parameter_trieEEESaIS6_EE11_M_allocateEm
FN:343,_ZNSt12_Vector_baseISt6vectorIN5boost10shared_ptrINS1_9unit_test9decorator4baseEEESaIS6_EESaIS8_EE11_M_allocateEm
FNDA:1,_ZNSt12_Vector_baseISt6vectorIN5boost10shared_ptrINS1_9unit_test9decorator4baseEEESaIS6_EESaIS8_EE11_M_allocateEm
FN:343,_ZNSt12_Vector_baseIN5boost9unit_test9framework4impl11name_filter9componentESaIS5_EE11_M_allocateEm
FNDA:0,_ZNSt12_Vector_baseIN5boost9unit_test9framework4impl11name_filter9componentESaIS5_EE11_M_allocateEm
FN:343,_ZNSt12_Vector_baseIN5boost17reference_wrapperIKNS0_7runtime16parameter_cla_idEEESaIS5_EE11_M_allocateEm
FNDA:649,_ZNSt12_Vector_baseIN5boost17reference_wrapperIKNS0_7runtime16parameter_cla_idEEESaIS5_EE11_M_allocateEm
FN:350,_ZNSt12_Vector_baseIN5boost17reference_wrapperIKNS0_7runtime16parameter_cla_idEEESaIS5_EE13_M_deallocateEPS5_m
FNDA:1221,_ZNSt12_Vector_baseIN5boost17reference_wrapperIKNS0_7runtime16parameter_cla_idEEESaIS5_EE13_M_deallocateEPS5_m
FN:350,_ZNSt12_Vector_baseIN5boost10shared_ptrINS0_9unit_test17test_unit_fixtureEEESaIS4_EE13_M_deallocateEPS4_m
FNDA:11,_ZNSt12_Vector_baseIN5boost10shared_ptrINS0_9unit_test17test_unit_fixtureEEESaIS4_EE13_M_deallocateEPS4_m
FN:350,_ZNSt12_Vector_baseISt6vectorIN5boost10shared_ptrINS1_9unit_test9decorator4baseEEESaIS6_EESaIS8_EE13_M_deallocateEPS8_m
FNDA:1,_ZNSt12_Vector_baseISt6vectorIN5boost10shared_ptrINS1_9unit_test9decorator4baseEEESaIS6_EESaIS8_EE13_M_deallocateEPS8_m
FN:350,_ZNSt12_Vector_baseIN5boost9unit_test6output10junit_impl16junit_log_helper15assertion_entryESaIS5_EE13_M_deallocateEPS5_m
FNDA:1,_ZNSt12_Vector_baseIN5boost9unit_test6output10junit_impl16junit_log_helper15assertion_entryESaIS5_EE13_M_deallocateEPS5_m
FN:350,_ZNSt12_Vector_baseIPN5boost9unit_test12_GLOBAL__N_130unit_test_log_data_helper_implESaIS4_EE13_M_deallocateEPS4_m
FNDA:2,_ZNSt12_Vector_baseIPN5boost9unit_test12_GLOBAL__N_130unit_test_log_data_helper_implESaIS4_EE13_M_deallocateEPS4_m
FN:350,_ZNSt12_Vector_baseIN5boost9unit_test12_GLOBAL__N_130unit_test_log_data_helper_implESaIS3_EE13_M_deallocateEPS3_m
FNDA:4,_ZNSt12_Vector_baseIN5boost9unit_test12_GLOBAL__N_130unit_test_log_data_helper_implESaIS3_EE13_M_deallocateEPS3_m
FN:350,_ZNSt12_Vector_baseIN5boost8functionIFNS0_10test_tools16assertion_resultEmEEESaIS5_EE13_M_deallocateEPS5_m
FNDA:10,_ZNSt12_Vector_baseIN5boost8functionIFNS0_10test_tools16assertion_resultEmEEESaIS5_EE13_M_deallocateEPS5_m
FN:350,_ZNSt12_Vector_baseIN5boost9unit_test13basic_cstringIKcEESaIS4_EE13_M_deallocateEPS4_m
FNDA:31,_ZNSt12_Vector_baseIN5boost9unit_test13basic_cstringIKcEESaIS4_EE13_M_deallocateEPS4_m
FN:350,_ZNSt12_Vector_baseISt4pairIN5boost10shared_ptrINS1_9unit_test19test_unit_generatorEEESt6vectorINS2_INS3_9decorator4baseEEESaIS9_EEESaISC_EE13_M_deallocateEPSC_m
FNDA:2,_ZNSt12_Vector_baseISt4pairIN5boost10shared_ptrINS1_9unit_test19test_unit_generatorEEESt6vectorINS2_INS3_9decorator4baseEEESaIS9_EEESaISC_EE13_M_deallocateEPSC_m
FN:350,_ZNSt12_Vector_baseISt4pairIPKcPKN5boost9unit_test12lazy_ostreamEESaIS8_EE13_M_deallocateEPS8_m
FNDA:0,_ZNSt12_Vector_baseISt4pairIPKcPKN5boost9unit_test12lazy_ostreamEESaIS8_EE13_M_deallocateEPS8_m
FN:350,_ZNSt12_Vector_baseIN5boost10shared_ptrINS0_9unit_test9decorator4baseEEESaIS5_EE13_M_deallocateEPS5_m
FNDA:11,_ZNSt12_Vector_baseIN5boost10shared_ptrINS0_9unit_test9decorator4baseEEESaIS5_EE13_M_deallocateEPS5_m
FN:350,_ZNSt12_Vector_baseIN5boost10shared_ptrINS0_7runtime3cla13rt_cla_detail14parameter_trieEEESaIS6_EE13_M_deallocateEPS6_m
FNDA:0,_ZNSt12_Vector_baseIN5boost10shared_ptrINS0_7runtime3cla13rt_cla_detail14parameter_trieEEESaIS6_EE13_M_deallocateEPS6_m
FN:350,_ZNSt12_Vector_baseIcSaIcEE13_M_deallocateEPcm
FNDA:0,_ZNSt12_Vector_baseIcSaIcEE13_M_deallocateEPcm
FN:350,_ZNSt12_Vector_baseIN5boost9unit_test9framework4impl11name_filter9componentESaIS5_EE13_M_deallocateEPS5_m
FNDA:0,_ZNSt12_Vector_baseIN5boost9unit_test9framework4impl11name_filter9componentESaIS5_EE13_M_deallocateEPS5_m
FN:350,_ZNSt12_Vector_baseINSt7__cxx1112basic_stringIcSt11char_traitsIcESaIcEEESaIS5_EE13_M_deallocateEPS5_m
FNDA:14,_ZNSt12_Vector_baseINSt7__cxx1112basic_stringIcSt11char_traitsIcESaIcEEESaIS5_EE13_M_deallocateEPS5_m
FN:350,_ZNSt12_Vector_baseIN5boost7runtime16parameter_cla_idESaIS2_EE13_M_deallocateEPS2_m
FNDA:127,_ZNSt12_Vector_baseIN5boost7runtime16parameter_cla_idESaIS2_EE13_M_deallocateEPS2_m
FN:350,_ZNSt12_Vector_baseImSaImEE13_M_deallocateEPmm
FNDA:28,_ZNSt12_Vector_baseImSaImEE13_M_deallocateEPmm
FN:350,_ZNSt12_Vector_baseIN5boost9unit_test9framework5state13context_frameESaIS4_EE13_M_deallocateEPS4_m
FNDA:1,_ZNSt12_Vector_baseIN5boost9unit_test9framework5state13context_frameESaIS4_EE13_M_deallocateEPS4_m
FN:350,_ZNSt12_Vector_baseIPN5boost9unit_test10test_suiteESaIS3_EE13_M_deallocateEPS3_m
FNDA:3,_ZNSt12_Vector_baseIPN5boost9unit_test10test_suiteESaIS3_EE13_M_deallocateEPS3_m
FN:350,_ZNSt12_Vector_baseISt6vectorIN5boost9unit_test9framework4impl11name_filter9componentESaIS6_EESaIS8_EE13_M_deallocateEPS8_m
FNDA:0,_ZNSt12_Vector_baseISt6vectorIN5boost9unit_test9framework4impl11name_filter9componentESaIS6_EESaIS8_EE13_M_deallocateEPS8_m
FN:359,_ZNSt12_Vector_baseISt6vectorIN5boost10shared_ptrINS1_9unit_test9decorator4baseEEESaIS6_EESaIS8_EE17_M_create_storageEm
FNDA:1,_ZNSt12_Vector_baseISt6vectorIN5boost10shared_ptrINS1_9unit_test9decorator4baseEEESaIS6_EESaIS8_EE17_M_create_storageEm
FN:359,_ZNSt12_Vector_baseINSt7__cxx1112basic_stringIcSt11char_traitsIcESaIcEEESaIS5_EE17_M_create_storageEm
FNDA:2,_ZNSt12_Vector_baseINSt7__cxx1112basic_stringIcSt11char_traitsIcESaIcEEESaIS5_EE17_M_create_storageEm
FN:359,_ZNSt12_Vector_baseIN5boost10shared_ptrINS0_9unit_test9decorator4baseEEESaIS5_EE17_M_create_storageEm
FNDA:0,_ZNSt12_Vector_baseIN5boost10shared_ptrINS0_9unit_test9decorator4baseEEESaIS5_EE17_M_create_storageEm
FN:359,_ZNSt12_Vector_baseIN5boost9unit_test13basic_cstringIKcEESaIS4_EE17_M_create_storageEm
FNDA:6,_ZNSt12_Vector_baseIN5boost9unit_test13basic_cstringIKcEESaIS4_EE17_M_create_storageEm
FN:359,_ZNSt12_Vector_baseIN5boost7runtime16parameter_cla_idESaIS2_EE17_M_create_storageEm
FNDA:28,_ZNSt12_Vector_baseIN5boost7runtime16parameter_cla_idESaIS2_EE17_M_create_storageEm
FN:453,_ZNSt6vectorIS_IN5boost9unit_test9framework4impl11name_filter9componentESaIS5_EESaIS7_EE14_S_do_relocateEPS7_SA_SA_RS8_St17integral_constantIbLb1EE
FNDA:0,_ZNSt6vectorIS_IN5boost9unit_test9framework4impl11name_filter9componentESaIS5_EESaIS7_EE14_S_do_relocateEPS7_SA_SA_RS8_St17integral_constantIbLb1EE
FN:453,_ZNSt6vectorIN5boost9unit_test9framework5state13context_frameESaIS4_EE14_S_do_relocateEPS4_S7_S7_RS5_St17integral_constantIbLb1EE
FNDA:0,_ZNSt6vectorIN5boost9unit_test9framework5state13context_frameESaIS4_EE14_S_do_relocateEPS4_S7_S7_RS5_St17integral_constantIbLb1EE
FN:453,_ZNSt6vectorIPN5boost9unit_test12_GLOBAL__N_130unit_test_log_data_helper_implESaIS4_EE14_S_do_relocateEPS4_S7_S7_RS5_St17integral_constantIbLb1EE
FNDA:2,_ZNSt6vectorIPN5boost9unit_test12_GLOBAL__N_130unit_test_log_data_helper_implESaIS4_EE14_S_do_relocateEPS4_S7_S7_RS5_St17integral_constantIbLb1EE
FN:453,_ZNSt6vectorINSt7__cxx1112basic_stringIcSt11char_traitsIcESaIcEEESaIS5_EE14_S_do_relocateEPS5_S8_S8_RS6_St17integral_constantIbLb1EE
FNDA:0,_ZNSt6vectorINSt7__cxx1112basic_stringIcSt11char_traitsIcESaIcEEESaIS5_EE14_S_do_relocateEPS5_S8_S8_RS6_St17integral_constantIbLb1EE
FN:453,_ZNSt6vectorIS_IN5boost10shared_ptrINS0_9unit_test9decorator4baseEEESaIS5_EESaIS7_EE14_S_do_relocateEPS7_SA_SA_RS8_St17integral_constantIbLb1EE
FNDA:0,_ZNSt6vectorIS_IN5boost10shared_ptrINS0_9unit_test9decorator4baseEEESaIS5_EESaIS7_EE14_S_do_relocateEPS7_SA_SA_RS8_St17integral_constantIbLb1EE
FN:453,_ZNSt6vectorIPN5boost9unit_test10test_suiteESaIS3_EE14_S_do_relocateEPS3_S6_S6_RS4_St17integral_constantIbLb1EE
FNDA:4,_ZNSt6vectorIPN5boost9unit_test10test_suiteESaIS3_EE14_S_do_relocateEPS3_S6_S6_RS4_St17integral_constantIbLb1EE
FN:453,_ZNSt6vectorIN5boost7runtime16parameter_cla_idESaIS2_EE14_S_do_relocateEPS2_S5_S5_RS3_St17integral_constantIbLb1EE
FNDA:142,_ZNSt6vectorIN5boost7runtime16parameter_cla_idESaIS2_EE14_S_do_relocateEPS2_S5_S5_RS3_St17integral_constantIbLb1EE
FN:453,_ZNSt6vectorISt4pairIPKcPKN5boost9unit_test12lazy_ostreamEESaIS8_EE14_S_do_relocateEPS8_SB_SB_RS9_St17integral_constantIbLb1EE
FNDA:0,_ZNSt6vectorISt4pairIPKcPKN5boost9unit_test12lazy_ostreamEESaIS8_EE14_S_do_relocateEPS8_SB_SB_RS9_St17integral_constantIbLb1EE
FN:453,_ZNSt6vectorIN5boost10shared_ptrINS0_9unit_test9decorator4baseEEESaIS5_EE14_S_do_relocateEPS5_S8_S8_RS6_St17integral_constantIbLb1EE
FNDA:0,_ZNSt6vectorIN5boost10shared_ptrINS0_9unit_test9decorator4baseEEESaIS5_EE14_S_do_relocateEPS5_S8_S8_RS6_St17integral_constantIbLb1EE
FN:453,_ZNSt6vectorIcSaIcEE14_S_do_relocateEPcS2_S2_RS0_St17integral_constantIbLb1EE
FNDA:0,_ZNSt6vectorIcSaIcEE14_S_do_relocateEPcS2_S2_RS0_St17integral_constantIbLb1EE
FN:453,_ZNSt6vectorISt4pairIN5boost10shared_ptrINS1_9unit_test19test_unit_generatorEEES_INS2_INS3_9decorator4baseEEESaIS8_EEESaISB_EE14_S_do_relocateEPSB_SE_SE_RSC_St17integral_constantIbLb1EE
FNDA:0,_ZNSt6vectorISt4pairIN5boost10shared_ptrINS1_9unit_test19test_unit_generatorEEES_INS2_INS3_9decorator4baseEEESaIS8_EEESaISB_EE14_S_do_relocateEPSB_SE_SE_RSC_St17integral_constantIbLb1EE
FN:453,_ZNSt6vectorIN5boost10shared_ptrINS0_7runtime3cla13rt_cla_detail14parameter_trieEEESaIS6_EE14_S_do_relocateEPS6_S9_S9_RS7_St17integral_constantIbLb1EE
FNDA:0,_ZNSt6vectorIN5boost10shared_ptrINS0_7runtime3cla13rt_cla_detail14parameter_trieEEESaIS6_EE14_S_do_relocateEPS6_S9_S9_RS7_St17integral_constantIbLb1EE
FN:453,_ZNSt6vectorIN5boost17reference_wrapperIKNS0_7runtime16parameter_cla_idEEESaIS5_EE14_S_do_relocateEPS5_S8_S8_RS6_St17integral_constantIbLb1EE
FNDA:1298,_ZNSt6vectorIN5boost17reference_wrapperIKNS0_7runtime16parameter_cla_idEEESaIS5_EE14_S_do_relocateEPS5_S8_S8_RS6_St17integral_constantIbLb1EE
FN:453,_ZNSt6vectorIN5boost9unit_test12_GLOBAL__N_130unit_test_log_data_helper_implESaIS3_EE14_S_do_relocateEPS3_S6_S6_RS4_St17integral_constantIbLb1EE
FNDA:6,_ZNSt6vectorIN5boost9unit_test12_GLOBAL__N_130unit_test_log_data_helper_implESaIS3_EE14_S_do_relocateEPS3_S6_S6_RS4_St17integral_constantIbLb1EE
FN:453,_ZNSt6vectorIN5boost9unit_test6output10junit_impl16junit_log_helper15assertion_entryESaIS5_EE14_S_do_relocateEPS5_S8_S8_RS6_St17integral_constantIbLb1EE
FNDA:0,_ZNSt6vectorIN5boost9unit_test6output10junit_impl16junit_log_helper15assertion_entryESaIS5_EE14_S_do_relocateEPS5_S8_S8_RS6_St17integral_constantIbLb1EE
FN:453,_ZNSt6vectorImSaImEE14_S_do_relocateEPmS2_S2_RS0_St17integral_constantIbLb1EE
FNDA:10,_ZNSt6vectorImSaImEE14_S_do_relocateEPmS2_S2_RS0_St17integral_constantIbLb1EE
FN:453,_ZNSt6vectorIN5boost10shared_ptrINS0_9unit_test17test_unit_fixtureEEESaIS4_EE14_S_do_relocateEPS4_S7_S7_RS5_St17integral_constantIbLb1EE
FNDA:0,_ZNSt6vectorIN5boost10shared_ptrINS0_9unit_test17test_unit_fixtureEEESaIS4_EE14_S_do_relocateEPS4_S7_S7_RS5_St17integral_constantIbLb1EE
FN:465,_ZNSt6vectorIS_IN5boost10shared_ptrINS0_9unit_test9decorator4baseEEESaIS5_EESaIS7_EE11_S_relocateEPS7_SA_SA_RS8_
FNDA:0,_ZNSt6vectorIS_IN5boost10shared_ptrINS0_9unit_test9decorator4baseEEESaIS5_EESaIS7_EE11_S_relocateEPS7_SA_SA_RS8_
FN:465,_ZNSt6vectorISt4pairIN5boost10shared_ptrINS1_9unit_test19test_unit_generatorEEES_INS2_INS3_9decorator4baseEEESaIS8_EEESaISB_EE11_S_relocateEPSB_SE_SE_RSC_
FNDA:0,_ZNSt6vectorISt4pairIN5boost10shared_ptrINS1_9unit_test19test_unit_generatorEEES_INS2_INS3_9decorator4baseEEESaIS8_EEESaISB_EE11_S_relocateEPSB_SE_SE_RSC_
FN:465,_ZNSt6vectorINSt7__cxx1112basic_stringIcSt11char_traitsIcESaIcEEESaIS5_EE11_S_relocateEPS5_S8_S8_RS6_
FNDA:0,_ZNSt6vectorINSt7__cxx1112basic_stringIcSt11char_traitsIcESaIcEEESaIS5_EE11_S_relocateEPS5_S8_S8_RS6_
FN:465,_ZNSt6vectorIN5boost17reference_wrapperIKNS0_7runtime16parameter_cla_idEEESaIS5_EE11_S_relocateEPS5_S8_S8_RS6_
FNDA:1298,_ZNSt6vectorIN5boost17reference_wrapperIKNS0_7runtime16parameter_cla_idEEESaIS5_EE11_S_relocateEPS5_S8_S8_RS6_
FN:465,_ZNSt6vectorIPN5boost9unit_test10test_suiteESaIS3_EE11_S_relocateEPS3_S6_S6_RS4_
FNDA:4,_ZNSt6vectorIPN5boost9unit_test10test_suiteESaIS3_EE11_S_relocateEPS3_S6_S6_RS4_
FN:465,_ZNSt6vectorIN5boost10shared_ptrINS0_7runtime3cla13rt_cla_detail14parameter_trieEEESaIS6_EE11_S_relocateEPS6_S9_S9_RS7_
FNDA:0,_ZNSt6vectorIN5boost10shared_ptrINS0_7runtime3cla13rt_cla_detail14parameter_trieEEESaIS6_EE11_S_relocateEPS6_S9_S9_RS7_
FN:465,_ZNSt6vectorIN5boost9unit_test9framework5state13context_frameESaIS4_EE11_S_relocateEPS4_S7_S7_RS5_
FNDA:0,_ZNSt6vectorIN5boost9unit_test9framework5state13context_frameESaIS4_EE11_S_relocateEPS4_S7_S7_RS5_
FN:465,_ZNSt6vectorIN5boost7runtime16parameter_cla_idESaIS2_EE11_S_relocateEPS2_S5_S5_RS3_
FNDA:142,_ZNSt6vectorIN5boost7runtime16parameter_cla_idESaIS2_EE11_S_relocateEPS2_S5_S5_RS3_
FN:465,_ZNSt6vectorIPN5boost9unit_test12_GLOBAL__N_130unit_test_log_data_helper_implESaIS4_EE11_S_relocateEPS4_S7_S7_RS5_
FNDA:2,_ZNSt6vectorIPN5boost9unit_test12_GLOBAL__N_130unit_test_log_data_helper_implESaIS4_EE11_S_relocateEPS4_S7_S7_RS5_
FN:465,_ZNSt6vectorIN5boost10shared_ptrINS0_9unit_test9decorator4baseEEESaIS5_EE11_S_relocateEPS5_S8_S8_RS6_
FNDA:0,_ZNSt6vectorIN5boost10shared_ptrINS0_9unit_test9decorator4baseEEESaIS5_EE11_S_relocateEPS5_S8_S8_RS6_
FN:465,_ZNSt6vectorIcSaIcEE11_S_relocateEPcS2_S2_RS0_
FNDA:0,_ZNSt6vectorIcSaIcEE11_S_relocateEPcS2_S2_RS0_
FN:465,_ZNSt6vectorIN5boost9unit_test6output10junit_impl16junit_log_helper15assertion_entryESaIS5_EE11_S_relocateEPS5_S8_S8_RS6_
FNDA:0,_ZNSt6vectorIN5boost9unit_test6output10junit_impl16junit_log_helper15assertion_entryESaIS5_EE11_S_relocateEPS5_S8_S8_RS6_
FN:465,_ZNSt6vectorISt4pairIPKcPKN5boost9unit_test12lazy_ostreamEESaIS8_EE11_S_relocateEPS8_SB_SB_RS9_
FNDA:0,_ZNSt6vectorISt4pairIPKcPKN5boost9unit_test12lazy_ostreamEESaIS8_EE11_S_relocateEPS8_SB_SB_RS9_
FN:465,_ZNSt6vectorImSaImEE11_S_relocateEPmS2_S2_RS0_
FNDA:10,_ZNSt6vectorImSaImEE11_S_relocateEPmS2_S2_RS0_
FN:465,_ZNSt6vectorIS_IN5boost9unit_test9framework4impl11name_filter9componentESaIS5_EESaIS7_EE11_S_relocateEPS7_SA_SA_RS8_
FNDA:0,_ZNSt6vectorIS_IN5boost9unit_test9framework4impl11name_filter9componentESaIS5_EESaIS7_EE11_S_relocateEPS7_SA_SA_RS8_
FN:465,_ZNSt6vectorIN5boost9unit_test12_GLOBAL__N_130unit_test_log_data_helper_implESaIS3_EE11_S_relocateEPS3_S6_S6_RS4_
FNDA:6,_ZNSt6vectorIN5boost9unit_test12_GLOBAL__N_130unit_test_log_data_helper_implESaIS3_EE11_S_relocateEPS3_S6_S6_RS4_
FN:465,_ZNSt6vectorIN5boost10shared_ptrINS0_9unit_test17test_unit_fixtureEEESaIS4_EE11_S_relocateEPS4_S7_S7_RS5_
FNDA:0,_ZNSt6vectorIN5boost10shared_ptrINS0_9unit_test17test_unit_fixtureEEESaIS4_EE11_S_relocateEPS4_S7_S7_RS5_
FN:487,_ZNSt6vectorIPN5boost9unit_test12_GLOBAL__N_130unit_test_log_data_helper_implESaIS4_EEC2Ev
FNDA:1,_ZNSt6vectorIPN5boost9unit_test12_GLOBAL__N_130unit_test_log_data_helper_implESaIS4_EEC2Ev
FN:487,_ZNSt6vectorIcSaIcEEC2Ev
FNDA:0,_ZNSt6vectorIcSaIcEEC2Ev
FN:487,_ZNSt6vectorIN5boost9unit_test13basic_cstringIKcEESaIS4_EEC2Ev
FNDA:6,_ZNSt6vectorIN5boost9unit_test13basic_cstringIKcEESaIS4_EEC2Ev
FN:487,_ZNSt6vectorIN5boost10shared_ptrINS0_9unit_test9decorator4baseEEESaIS5_EEC2Ev
FNDA:11,_ZNSt6vectorIN5boost10shared_ptrINS0_9unit_test9decorator4baseEEESaIS5_EEC2Ev
FN:487,_ZNSt6vectorIN5boost10shared_ptrINS0_9unit_test17test_unit_fixtureEEESaIS4_EEC2Ev
FNDA:10,_ZNSt6vectorIN5boost10shared_ptrINS0_9unit_test17test_unit_fixtureEEESaIS4_EEC2Ev
FN:487,_ZNSt6vectorImSaImEEC2Ev
FNDA:23,_ZNSt6vectorImSaImEEC2Ev
FN:487,_ZNSt6vectorIN5boost9unit_test12_GLOBAL__N_130unit_test_log_data_helper_implESaIS3_EEC2Ev
FNDA:1,_ZNSt6vectorIN5boost9unit_test12_GLOBAL__N_130unit_test_log_data_helper_implESaIS3_EEC2Ev
FN:487,_ZNSt6vectorINSt7__cxx1112basic_stringIcSt11char_traitsIcESaIcEEESaIS5_EEC2Ev
FNDA:12,_ZNSt6vectorINSt7__cxx1112basic_stringIcSt11char_traitsIcESaIcEEESaIS5_EEC2Ev
FN:487,_ZNSt6vectorIN5boost9unit_test6output10junit_impl16junit_log_helper15assertion_entryESaIS5_EEC2Ev
FNDA:1,_ZNSt6vectorIN5boost9unit_test6output10junit_impl16junit_log_helper15assertion_entryESaIS5_EEC2Ev
FN:487,_ZNSt6vectorIN5boost10shared_ptrINS0_7runtime3cla13rt_cla_detail14parameter_trieEEESaIS6_EEC2Ev
FNDA:0,_ZNSt6vectorIN5boost10shared_ptrINS0_7runtime3cla13rt_cla_detail14parameter_trieEEESaIS6_EEC2Ev
FN:487,_ZNSt6vectorIN5boost17reference_wrapperIKNS0_7runtime16parameter_cla_idEEESaIS5_EEC2Ev
FNDA:572,_ZNSt6vectorIN5boost17reference_wrapperIKNS0_7runtime16parameter_cla_idEEESaIS5_EEC2Ev
FN:487,_ZNSt6vectorIN5boost8functionIFNS0_10test_tools16assertion_resultEmEEESaIS5_EEC2Ev
FNDA:10,_ZNSt6vectorIN5boost8functionIFNS0_10test_tools16assertion_resultEmEEESaIS5_EEC2Ev
FN:487,_ZNSt6vectorIS_IN5boost9unit_test9framework4impl11name_filter9componentESaIS5_EESaIS7_EEC2Ev
FNDA:0,_ZNSt6vectorIS_IN5boost9unit_test9framework4impl11name_filter9componentESaIS5_EESaIS7_EEC2Ev
FN:487,_ZNSt6vectorIPN5boost9unit_test10test_suiteESaIS3_EEC2Ev
FNDA:1,_ZNSt6vectorIPN5boost9unit_test10test_suiteESaIS3_EEC2Ev
FN:487,_ZNSt6vectorISt4pairIPKcPKN5boost9unit_test12lazy_ostreamEESaIS8_EEC2Ev
FNDA:0,_ZNSt6vectorISt4pairIPKcPKN5boost9unit_test12lazy_ostreamEESaIS8_EEC2Ev
FN:487,_ZNSt6vectorISt4pairIN5boost10shared_ptrINS1_9unit_test19test_unit_generatorEEES_INS2_INS3_9decorator4baseEEESaIS8_EEESaISB_EEC2Ev
FNDA:2,_ZNSt6vectorISt4pairIN5boost10shared_ptrINS1_9unit_test19test_unit_generatorEEES_INS2_INS3_9decorator4baseEEESaIS8_EEESaISB_EEC2Ev
FN:487,_ZNSt6vectorIN5boost7runtime16parameter_cla_idESaIS2_EEC2Ev
FNDA:28,_ZNSt6vectorIN5boost7runtime16parameter_cla_idESaIS2_EEC2Ev
FN:487,_ZNSt6vectorIN5boost9unit_test9framework5state13context_frameESaIS4_EEC2Ev
FNDA:1,_ZNSt6vectorIN5boost9unit_test9framework5state13context_frameESaIS4_EEC2Ev
FN:497,_ZNSt6vectorIN5boost10shared_ptrINS0_9unit_test9decorator4baseEEESaIS5_EEC2ERKS6_
FNDA:0,_ZNSt6vectorIN5boost10shared_ptrINS0_9unit_test9decorator4baseEEESaIS5_EEC2ERKS6_
FN:510,_ZNSt6vectorIS_IN5boost10shared_ptrINS0_9unit_test9decorator4baseEEESaIS5_EESaIS7_EEC2EmRKS8_
FNDA:1,_ZNSt6vectorIS_IN5boost10shared_ptrINS0_9unit_test9decorator4baseEEESaIS5_EESaIS7_EEC2EmRKS8_
FN:522,_ZNSt6vectorINSt7__cxx1112basic_stringIcSt11char_traitsIcESaIcEEESaIS5_EEC2EmRKS5_RKS6_
FNDA:0,_ZNSt6vectorINSt7__cxx1112basic_stringIcSt11char_traitsIcESaIcEEESaIS5_EEC2EmRKS5_RKS6_
FN:553,_ZNSt6vectorIN5boost7runtime16parameter_cla_idESaIS2_EEC2ERKS4_
FNDA:28,_ZNSt6vectorIN5boost7runtime16parameter_cla_idESaIS2_EEC2ERKS4_
FN:553,_ZNSt6vectorINSt7__cxx1112basic_stringIcSt11char_traitsIcESaIcEEESaIS5_EEC2ERKS7_
FNDA:2,_ZNSt6vectorINSt7__cxx1112basic_stringIcSt11char_traitsIcESaIcEEESaIS5_EEC2ERKS7_
FN:553,_ZNSt6vectorIN5boost9unit_test13basic_cstringIKcEESaIS4_EEC2ERKS6_
FNDA:6,_ZNSt6vectorIN5boost9unit_test13basic_cstringIKcEESaIS4_EEC2ERKS6_
FN:553,_ZNSt6vectorIN5boost10shared_ptrINS0_9unit_test9decorator4baseEEESaIS5_EEC2ERKS7_
FNDA:0,_ZNSt6vectorIN5boost10shared_ptrINS0_9unit_test9decorator4baseEEESaIS5_EEC2ERKS7_
FN:572,_ZNSt6vectorIN5boost10shared_ptrINS0_9unit_test9decorator4baseEEESaIS5_EEC2EOS7_
FNDA:0,_ZNSt6vectorIN5boost10shared_ptrINS0_9unit_test9decorator4baseEEESaIS5_EEC2EOS7_
FN:572,_ZNSt6vectorIN5boost9unit_test9framework4impl11name_filter9componentESaIS5_EEC2EOS7_
FNDA:0,_ZNSt6vectorIN5boost9unit_test9framework4impl11name_filter9componentESaIS5_EEC2EOS7_
FN:572,_ZNSt6vectorIN5boost9unit_test6output10junit_impl16junit_log_helper15assertion_entryESaIS5_EEC2EOS7_
FNDA:0,_ZNSt6vectorIN5boost9unit_test6output10junit_impl16junit_log_helper15assertion_entryESaIS5_EEC2EOS7_
FN:572,_ZNSt6vectorIN5boost9unit_test13basic_cstringIKcEESaIS4_EEC2EOS6_
FNDA:0,_ZNSt6vectorIN5boost9unit_test13basic_cstringIKcEESaIS4_EEC2EOS6_
FN:653,_ZNSt6vectorIN5boost10shared_ptrINS0_9unit_test17test_unit_fixtureEEESaIS4_EEC2IN9__gnu_cxx17__normal_iteratorIPS4_S6_EEvEET_SC_RKS5_
FNDA:1,_ZNSt6vectorIN5boost10shared_ptrINS0_9unit_test17test_unit_fixtureEEESaIS4_EEC2IN9__gnu_cxx17__normal_iteratorIPS4_S6_EEvEET_SC_RKS5_
FN:653,_ZNSt6vectorIN5boost9unit_test9framework4impl11name_filter9componentESaIS5_EEC2INS1_5utils27basic_string_token_iteratorIcNS9_9ut_detail20default_char_compareIcEEEEvEET_SF_RKS6_
FNDA:0,_ZNSt6vectorIN5boost9unit_test9framework4impl11name_filter9componentESaIS5_EEC2INS1_5utils27basic_string_token_iteratorIcNS9_9ut_detail20default_char_compareIcEEEEvEET_SF_RKS6_
FN:678,_ZNSt6vectorIN5boost9unit_test9framework4impl11name_filter9componentESaIS5_EED2Ev
FNDA:0,_ZNSt6vectorIN5boost9unit_test9framework4impl11name_filter9componentESaIS5_EED2Ev
FN:678,_ZNSt6vectorIN5boost17reference_wrapperIKNS0_7runtime16parameter_cla_idEEESaIS5_EED2Ev
FNDA:572,_ZNSt6vectorIN5boost17reference_wrapperIKNS0_7runtime16parameter_cla_idEEESaIS5_EED2Ev
FN:678,_ZNSt6vectorIN5boost10shared_ptrINS0_9unit_test9decorator4baseEEESaIS5_EED2Ev
FNDA:11,_ZNSt6vectorIN5boost10shared_ptrINS0_9unit_test9decorator4baseEEESaIS5_EED2Ev
FN:678,_ZNSt6vectorISt4pairIPKcPKN5boost9unit_test12lazy_ostreamEESaIS8_EED2Ev
FNDA:0,_ZNSt6vectorISt4pairIPKcPKN5boost9unit_test12lazy_ostreamEESaIS8_EED2Ev
FN:678,_ZNSt6vectorIN5boost10shared_ptrINS0_7runtime3cla13rt_cla_detail14parameter_trieEEESaIS6_EED2Ev
FNDA:0,_ZNSt6vectorIN5boost10shared_ptrINS0_7runtime3cla13rt_cla_detail14parameter_trieEEESaIS6_EED2Ev
FN:678,_ZNSt6vectorIcSaIcEED2Ev
FNDA:0,_ZNSt6vectorIcSaIcEED2Ev
FN:678,_ZNSt6vectorIS_IN5boost9unit_test9framework4impl11name_filter9componentESaIS5_EESaIS7_EED2Ev
FNDA:0,_ZNSt6vectorIS_IN5boost9unit_test9framework4impl11name_filter9componentESaIS5_EESaIS7_EED2Ev
FN:678,_ZNSt6vectorIN5boost7runtime16parameter_cla_idESaIS2_EED2Ev
FNDA:56,_ZNSt6vectorIN5boost7runtime16parameter_cla_idESaIS2_EED2Ev
FN:678,_ZNSt6vectorImSaImEED2Ev
FNDA:23,_ZNSt6vectorImSaImEED2Ev
FN:678,_ZNSt6vectorIPN5boost9unit_test12_GLOBAL__N_130unit_test_log_data_helper_implESaIS4_EED2Ev
FNDA:1,_ZNSt6vectorIPN5boost9unit_test12_GLOBAL__N_130unit_test_log_data_helper_implESaIS4_EED2Ev
FN:678,_ZNSt6vectorINSt7__cxx1112basic_stringIcSt11char_traitsIcESaIcEEESaIS5_EED2Ev
FNDA:14,_ZNSt6vectorINSt7__cxx1112basic_stringIcSt11char_traitsIcESaIcEEESaIS5_EED2Ev
FN:678,_ZNSt6vectorIN5boost8functionIFNS0_10test_tools16assertion_resultEmEEESaIS5_EED2Ev
FNDA:10,_ZNSt6vectorIN5boost8functionIFNS0_10test_tools16assertion_resultEmEEESaIS5_EED2Ev
FN:678,_ZNSt6vectorIN5boost9unit_test12_GLOBAL__N_130unit_test_log_data_helper_implESaIS3_EED2Ev
FNDA:1,_ZNSt6vectorIN5boost9unit_test12_GLOBAL__N_130unit_test_log_data_helper_implESaIS3_EED2Ev
FN:678,_ZNSt6vectorIN5boost9unit_test6output10junit_impl16junit_log_helper15assertion_entryESaIS5_EED2Ev
FNDA:1,_ZNSt6vectorIN5boost9unit_test6output10junit_impl16junit_log_helper15assertion_entryESaIS5_EED2Ev
FN:678,_ZNSt6vectorISt4pairIN5boost10shared_ptrINS1_9unit_test19test_unit_generatorEEES_INS2_INS3_9decorator4baseEEESaIS8_EEESaISB_EED2Ev
FNDA:2,_ZNSt6vectorISt4pairIN5boost10shared_ptrINS1_9unit_test19test_unit_generatorEEES_INS2_INS3_9decorator4baseEEESaIS8_EEESaISB_EED2Ev
FN:678,_ZNSt6vectorIS_IN5boost10shared_ptrINS0_9unit_test9decorator4baseEEESaIS5_EESaIS7_EED2Ev
FNDA:1,_ZNSt6vectorIS_IN5boost10shared_ptrINS0_9unit_test9decorator4baseEEESaIS5_EESaIS7_EED2Ev
FN:678,_ZNSt6vectorIN5boost9unit_test9framework5state13context_frameESaIS4_EED2Ev
FNDA:1,_ZNSt6vectorIN5boost9unit_test9framework5state13context_frameESaIS4_EED2Ev
FN:678,_ZNSt6vectorIN5boost9unit_test13basic_cstringIKcEESaIS4_EED2Ev
FNDA:12,_ZNSt6vectorIN5boost9unit_test13basic_cstringIKcEESaIS4_EED2Ev
FN:678,_ZNSt6vectorIPN5boost9unit_test10test_suiteESaIS3_EED2Ev
FNDA:1,_ZNSt6vectorIPN5boost9unit_test10test_suiteESaIS3_EED2Ev
FN:678,_ZNSt6vectorIN5boost10shared_ptrINS0_9unit_test17test_unit_fixtureEEESaIS4_EED2Ev
FNDA:11,_ZNSt6vectorIN5boost10shared_ptrINS0_9unit_test17test_unit_fixtureEEESaIS4_EED2Ev
FN:709,_ZNSt6vectorIN5boost10shared_ptrINS0_9unit_test9decorator4baseEEESaIS5_EEaSEOS7_
FNDA:0,_ZNSt6vectorIN5boost10shared_ptrINS0_9unit_test9decorator4baseEEESaIS5_EEaSEOS7_
FN:811,_ZNSt6vectorIN5boost17reference_wrapperIKNS0_7runtime16parameter_cla_idEEESaIS5_EE5beginEv
FNDA:649,_ZNSt6vectorIN5boost17reference_wrapperIKNS0_7runtime16parameter_cla_idEEESaIS5_EE5beginEv
FN:811,_ZNSt6vectorIN5boost9unit_test9framework4impl11name_filter9componentESaIS5_EE5beginEv
FNDA:0,_ZNSt6vectorIN5boost9unit_test9framework4impl11name_filter9componentESaIS5_EE5beginEv
FN:811,_ZNSt6vectorIN5boost10shared_ptrINS0_9unit_test9decorator4baseEEESaIS5_EE5beginEv
FNDA:27,_ZNSt6vectorIN5boost10shared_ptrINS0_9unit_test9decorator4baseEEESaIS5_EE5beginEv
FN:811,_ZNSt6vectorIN5boost7runtime16parameter_cla_idESaIS2_EE5beginEv
FNDA:71,_ZNSt6vectorIN5boost7runtime16parameter_cla_idESaIS2_EE5beginEv
FN:811,_ZNSt6vectorIS_IN5boost10shared_ptrINS0_9unit_test9decorator4baseEEESaIS5_EESaIS7_EE5beginEv
FNDA:27,_ZNSt6vectorIS_IN5boost10shared_ptrINS0_9unit_test9decorator4baseEEESaIS5_EESaIS7_EE5beginEv
FN:811,_ZNSt6vectorIN5boost8functionIFNS0_10test_tools16assertion_resultEmEEESaIS5_EE5beginEv
FNDA:0,_ZNSt6vectorIN5boost8functionIFNS0_10test_tools16assertion_resultEmEEESaIS5_EE5beginEv
FN:811,_ZNSt6vectorIN5boost9unit_test9framework5state13context_frameESaIS4_EE5beginEv
FNDA:0,_ZNSt6vectorIN5boost9unit_test9framework5state13context_frameESaIS4_EE5beginEv
FN:811,_ZNSt6vectorIN5boost10shared_ptrINS0_7runtime3cla13rt_cla_detail14parameter_trieEEESaIS6_EE5beginEv
FNDA:0,_ZNSt6vectorIN5boost10shared_ptrINS0_7runtime3cla13rt_cla_detail14parameter_trieEEESaIS6_EE5beginEv
FN:811,_ZNSt6vectorIPN5boost9unit_test10test_suiteESaIS3_EE5beginEv
FNDA:2,_ZNSt6vectorIPN5boost9unit_test10test_suiteESaIS3_EE5beginEv
FN:811,_ZNSt6vectorISt4pairIPKcPKN5boost9unit_test12lazy_ostreamEESaIS8_EE5beginEv
FNDA:0,_ZNSt6vectorISt4pairIPKcPKN5boost9unit_test12lazy_ostreamEESaIS8_EE5beginEv
FN:811,_ZNSt6vectorIN5boost9unit_test13basic_cstringIKcEESaIS4_EE5beginEv
FNDA:19,_ZNSt6vectorIN5boost9unit_test13basic_cstringIKcEESaIS4_EE5beginEv
FN:811,_ZNSt6vectorISt4pairIN5boost10shared_ptrINS1_9unit_test19test_unit_generatorEEES_INS2_INS3_9decorator4baseEEESaIS8_EEESaISB_EE5beginEv
FNDA:2,_ZNSt6vectorISt4pairIN5boost10shared_ptrINS1_9unit_test19test_unit_generatorEEES_INS2_INS3_9decorator4baseEEESaIS8_EEESaISB_EE5beginEv
FN:811,_ZNSt6vectorIN5boost10shared_ptrINS0_9unit_test17test_unit_fixtureEEESaIS4_EE5beginEv
FNDA:1,_ZNSt6vectorIN5boost10shared_ptrINS0_9unit_test17test_unit_fixtureEEESaIS4_EE5beginEv
FN:811,_ZNSt6vectorIcSaIcEE5beginEv
FNDA:0,_ZNSt6vectorIcSaIcEE5beginEv
FN:811,_ZNSt6vectorINSt7__cxx1112basic_stringIcSt11char_traitsIcESaIcEEESaIS5_EE5beginEv
FNDA:0,_ZNSt6vectorINSt7__cxx1112basic_stringIcSt11char_traitsIcESaIcEEESaIS5_EE5beginEv
FN:811,_ZNSt6vectorIN5boost9unit_test6output10junit_impl16junit_log_helper15assertion_entryESaIS5_EE5beginEv
FNDA:0,_ZNSt6vectorIN5boost9unit_test6output10junit_impl16junit_log_helper15assertion_entryESaIS5_EE5beginEv
FN:811,_ZNSt6vectorIPN5boost9unit_test12_GLOBAL__N_130unit_test_log_data_helper_implESaIS4_EE5beginEv
FNDA:119,_ZNSt6vectorIPN5boost9unit_test12_GLOBAL__N_130unit_test_log_data_helper_implESaIS4_EE5beginEv
FN:811,_ZNSt6vectorImSaImEE5beginEv
FNDA:11,_ZNSt6vectorImSaImEE5beginEv
FN:811,_ZNSt6vectorIN5boost9unit_test12_GLOBAL__N_130unit_test_log_data_helper_implESaIS3_EE5beginEv
FNDA:8,_ZNSt6vectorIN5boost9unit_test12_GLOBAL__N_130unit_test_log_data_helper_implESaIS3_EE5beginEv
FN:811,_ZNSt6vectorIS_IN5boost9unit_test9framework4impl11name_filter9componentESaIS5_EESaIS7_EE5beginEv
FNDA:0,_ZNSt6vectorIS_IN5boost9unit_test9framework4impl11name_filter9componentESaIS5_EESaIS7_EE5beginEv
FN:820,_ZNKSt6vectorIN5boost9unit_test13basic_cstringIKcEESaIS4_EE5beginEv
FNDA:6,_ZNKSt6vectorIN5boost9unit_test13basic_cstringIKcEESaIS4_EE5beginEv
FN:820,_ZNKSt6vectorINSt7__cxx1112basic_stringIcSt11char_traitsIcESaIcEEESaIS5_EE5beginEv
FNDA:4,_ZNKSt6vectorINSt7__cxx1112basic_stringIcSt11char_traitsIcESaIcEEESaIS5_EE5beginEv
FN:820,_ZNKSt6vectorImSaImEE5beginEv
FNDA:36,_ZNKSt6vectorImSaImEE5beginEv
FN:820,_ZNKSt6vectorIN5boost10shared_ptrINS0_9unit_test9decorator4baseEEESaIS5_EE5beginEv
FNDA:10,_ZNKSt6vectorIN5boost10shared_ptrINS0_9unit_test9decorator4baseEEESaIS5_EE5beginEv
FN:820,_ZNKSt6vectorIN5boost9unit_test9framework4impl11name_filter9componentESaIS5_EE5beginEv
FNDA:0,_ZNKSt6vectorIN5boost9unit_test9framework4impl11name_filter9componentESaIS5_EE5beginEv
FN:820,_ZNKSt6vectorIN5boost7runtime16parameter_cla_idESaIS2_EE5beginEv
FNDA:56,_ZNKSt6vectorIN5boost7runtime16parameter_cla_idESaIS2_EE5beginEv
FN:820,_ZNKSt6vectorIN5boost8functionIFNS0_10test_tools16assertion_resultEmEEESaIS5_EE5beginEv
FNDA:10,_ZNKSt6vectorIN5boost8functionIFNS0_10test_tools16assertion_resultEmEEESaIS5_EE5beginEv
FN:820,_ZNKSt6vectorIPN5boost9unit_test10test_suiteESaIS3_EE5beginEv
FNDA:12,_ZNKSt6vectorIPN5boost9unit_test10test_suiteESaIS3_EE5beginEv
FN:820,_ZNKSt6vectorIN5boost9unit_test9framework5state13context_frameESaIS4_EE5beginEv
FNDA:0,_ZNKSt6vectorIN5boost9unit_test9framework5state13context_frameESaIS4_EE5beginEv
FN:820,_ZNKSt6vectorIN5boost9unit_test6output10junit_impl16junit_log_helper15assertion_entryESaIS5_EE5beginEv
FNDA:0,_ZNKSt6vectorIN5boost9unit_test6output10junit_impl16junit_log_helper15assertion_entryESaIS5_EE5beginEv
FN:820,_ZNKSt6vectorIN5boost17reference_wrapperIKNS0_7runtime16parameter_cla_idEEESaIS5_EE5beginEv
FNDA:71,_ZNKSt6vectorIN5boost17reference_wrapperIKNS0_7runtime16parameter_cla_idEEESaIS5_EE5beginEv
FN:820,_ZNKSt6vectorIN5boost10shared_ptrINS0_9unit_test17test_unit_fixtureEEESaIS4_EE5beginEv
FNDA:20,_ZNKSt6vectorIN5boost10shared_ptrINS0_9unit_test17test_unit_fixtureEEESaIS4_EE5beginEv
FN:820,_ZNKSt6vectorIS_IN5boost10shared_ptrINS0_9unit_test9decorator4baseEEESaIS5_EESaIS7_EE5beginEv
FNDA:0,_ZNKSt6vectorIS_IN5boost10shared_ptrINS0_9unit_test9decorator4baseEEESaIS5_EESaIS7_EE5beginEv
FN:820,_ZNKSt6vectorIPN5boost9unit_test12_GLOBAL__N_130unit_test_log_data_helper_implESaIS4_EE5beginEv
FNDA:61,_ZNKSt6vectorIPN5boost9unit_test12_GLOBAL__N_130unit_test_log_data_helper_implESaIS4_EE5beginEv
FN:829,_ZNSt6vectorISt4pairIN5boost10shared_ptrINS1_9unit_test19test_unit_generatorEEES_INS2_INS3_9decorator4baseEEESaIS8_EEESaISB_EE3endEv
FNDA:2,_ZNSt6vectorISt4pairIN5boost10shared_ptrINS1_9unit_test19test_unit_generatorEEES_INS2_INS3_9decorator4baseEEESaIS8_EEESaISB_EE3endEv
FN:829,_ZNSt6vectorIN5boost9unit_test6output10junit_impl16junit_log_helper15assertion_entryESaIS5_EE3endEv
FNDA:0,_ZNSt6vectorIN5boost9unit_test6output10junit_impl16junit_log_helper15assertion_entryESaIS5_EE3endEv
FN:829,_ZNSt6vectorIN5boost9unit_test9framework5state13context_frameESaIS4_EE3endEv
FNDA:0,_ZNSt6vectorIN5boost9unit_test9framework5state13context_frameESaIS4_EE3endEv
FN:829,_ZNSt6vectorIN5boost10shared_ptrINS0_7runtime3cla13rt_cla_detail14parameter_trieEEESaIS6_EE3endEv
FNDA:0,_ZNSt6vectorIN5boost10shared_ptrINS0_7runtime3cla13rt_cla_detail14parameter_trieEEESaIS6_EE3endEv
FN:829,_ZNSt6vectorIPN5boost9unit_test12_GLOBAL__N_130unit_test_log_data_helper_implESaIS4_EE3endEv
FNDA:121,_ZNSt6vectorIPN5boost9unit_test12_GLOBAL__N_130unit_test_log_data_helper_implESaIS4_EE3endEv
FN:829,_ZNSt6vectorIS_IN5boost9unit_test9framework4impl11name_filter9componentESaIS5_EESaIS7_EE3endEv
FNDA:0,_ZNSt6vectorIS_IN5boost9unit_test9framework4impl11name_filter9componentESaIS5_EESaIS7_EE3endEv
FN:829,_ZNSt6vectorIN5boost9unit_test12_GLOBAL__N_130unit_test_log_data_helper_implESaIS3_EE3endEv
FNDA:11,_ZNSt6vectorIN5boost9unit_test12_GLOBAL__N_130unit_test_log_data_helper_implESaIS3_EE3endEv
FN:829,_ZNSt6vectorIN5boost9unit_test13basic_cstringIKcEESaIS4_EE3endEv
FNDA:19,_ZNSt6vectorIN5boost9unit_test13basic_cstringIKcEESaIS4_EE3endEv
FN:829,_ZNSt6vectorIN5boost10shared_ptrINS0_9unit_test17test_unit_fixtureEEESaIS4_EE3endEv
FNDA:1,_ZNSt6vectorIN5boost10shared_ptrINS0_9unit_test17test_unit_fixtureEEESaIS4_EE3endEv
FN:829,_ZNSt6vectorImSaImEE3endEv
FNDA:11,_ZNSt6vectorImSaImEE3endEv
FN:829,_ZNSt6vectorIN5boost17reference_wrapperIKNS0_7runtime16parameter_cla_idEEESaIS5_EE3endEv
FNDA:649,_ZNSt6vectorIN5boost17reference_wrapperIKNS0_7runtime16parameter_cla_idEEESaIS5_EE3endEv
FN:829,_ZNSt6vectorINSt7__cxx1112basic_stringIcSt11char_traitsIcESaIcEEESaIS5_EE3endEv
FNDA:0,_ZNSt6vectorINSt7__cxx1112basic_stringIcSt11char_traitsIcESaIcEEESaIS5_EE3endEv
FN:829,_ZNSt6vectorIN5boost9unit_test9framework4impl11name_filter9componentESaIS5_EE3endEv
FNDA:0,_ZNSt6vectorIN5boost9unit_test9framework4impl11name_filter9componentESaIS5_EE3endEv
FN:829,_ZNSt6vectorIPN5boost9unit_test10test_suiteESaIS3_EE3endEv
FNDA:15,_ZNSt6vectorIPN5boost9unit_test10test_suiteESaIS3_EE3endEv
FN:829,_ZNSt6vectorIS_IN5boost10shared_ptrINS0_9unit_test9decorator4baseEEESaIS5_EESaIS7_EE3endEv
FNDA:0,_ZNSt6vectorIS_IN5boost10shared_ptrINS0_9unit_test9decorator4baseEEESaIS5_EESaIS7_EE3endEv
FN:829,_ZNSt6vectorIN5boost8functionIFNS0_10test_tools16assertion_resultEmEEESaIS5_EE3endEv
FNDA:0,_ZNSt6vectorIN5boost8functionIFNS0_10test_tools16assertion_resultEmEEESaIS5_EE3endEv
FN:829,_ZNSt6vectorIN5boost10shared_ptrINS0_9unit_test9decorator4baseEEESaIS5_EE3endEv
FNDA:18,_ZNSt6vectorIN5boost10shared_ptrINS0_9unit_test9decorator4baseEEESaIS5_EE3endEv
FN:829,_ZNSt6vectorISt4pairIPKcPKN5boost9unit_test12lazy_ostreamEESaIS8_EE3endEv
FNDA:0,_ZNSt6vectorISt4pairIPKcPKN5boost9unit_test12lazy_ostreamEESaIS8_EE3endEv
FN:829,_ZNSt6vectorIcSaIcEE3endEv
FNDA:0,_ZNSt6vectorIcSaIcEE3endEv
FN:829,_ZNSt6vectorIN5boost7runtime16parameter_cla_idESaIS2_EE3endEv
FNDA:142,_ZNSt6vectorIN5boost7runtime16parameter_cla_idESaIS2_EE3endEv
FN:838,_ZNKSt6vectorImSaImEE3endEv
FNDA:36,_ZNKSt6vectorImSaImEE3endEv
FN:838,_ZNKSt6vectorIN5boost9unit_test13basic_cstringIKcEESaIS4_EE3endEv
FNDA:6,_ZNKSt6vectorIN5boost9unit_test13basic_cstringIKcEESaIS4_EE3endEv
FN:838,_ZNKSt6vectorIN5boost7runtime16parameter_cla_idESaIS2_EE3endEv
FNDA:56,_ZNKSt6vectorIN5boost7runtime16parameter_cla_idESaIS2_EE3endEv
FN:838,_ZNKSt6vectorINSt7__cxx1112basic_stringIcSt11char_traitsIcESaIcEEESaIS5_EE3endEv
FNDA:4,_ZNKSt6vectorINSt7__cxx1112basic_stringIcSt11char_traitsIcESaIcEEESaIS5_EE3endEv
FN:838,_ZNKSt6vectorIN5boost10shared_ptrINS0_9unit_test9decorator4baseEEESaIS5_EE3endEv
FNDA:10,_ZNKSt6vectorIN5boost10shared_ptrINS0_9unit_test9decorator4baseEEESaIS5_EE3endEv
FN:838,_ZNKSt6vectorIN5boost9unit_test9framework4impl11name_filter9componentESaIS5_EE3endEv
FNDA:0,_ZNKSt6vectorIN5boost9unit_test9framework4impl11name_filter9componentESaIS5_EE3endEv
FN:838,_ZNKSt6vectorIN5boost17reference_wrapperIKNS0_7runtime16parameter_cla_idEEESaIS5_EE3endEv
FNDA:71,_ZNKSt6vectorIN5boost17reference_wrapperIKNS0_7runtime16parameter_cla_idEEESaIS5_EE3endEv
FN:838,_ZNKSt6vectorIN5boost9unit_test6output10junit_impl16junit_log_helper15assertion_entryESaIS5_EE3endEv
FNDA:0,_ZNKSt6vectorIN5boost9unit_test6output10junit_impl16junit_log_helper15assertion_entryESaIS5_EE3endEv
FN:838,_ZNKSt6vectorIPN5boost9unit_test12_GLOBAL__N_130unit_test_log_data_helper_implESaIS4_EE3endEv
FNDA:61,_ZNKSt6vectorIPN5boost9unit_test12_GLOBAL__N_130unit_test_log_data_helper_implESaIS4_EE3endEv
FN:838,_ZNKSt6vectorIN5boost10shared_ptrINS0_9unit_test17test_unit_fixtureEEESaIS4_EE3endEv
FNDA:20,_ZNKSt6vectorIN5boost10shared_ptrINS0_9unit_test17test_unit_fixtureEEESaIS4_EE3endEv
FN:838,_ZNKSt6vectorIPN5boost9unit_test10test_suiteESaIS3_EE3endEv
FNDA:12,_ZNKSt6vectorIPN5boost9unit_test10test_suiteESaIS3_EE3endEv
FN:838,_ZNKSt6vectorIN5boost8functionIFNS0_10test_tools16assertion_resultEmEEESaIS5_EE3endEv
FNDA:10,_ZNKSt6vectorIN5boost8functionIFNS0_10test_tools16assertion_resultEmEEESaIS5_EE3endEv
FN:838,_ZNKSt6vectorIN5boost9unit_test9framework5state13context_frameESaIS4_EE3endEv
FNDA:0,_ZNKSt6vectorIN5boost9unit_test9framework5state13context_frameESaIS4_EE3endEv
FN:884,_ZNKSt6vectorIS_IN5boost10shared_ptrINS0_9unit_test9decorator4baseEEESaIS5_EESaIS7_EE6cbeginEv
FNDA:0,_ZNKSt6vectorIS_IN5boost10shared_ptrINS0_9unit_test9decorator4baseEEESaIS5_EESaIS7_EE6cbeginEv
FN:884,_ZNKSt6vectorIN5boost9unit_test9framework5state13context_frameESaIS4_EE6cbeginEv
FNDA:0,_ZNKSt6vectorIN5boost9unit_test9framework5state13context_frameESaIS4_EE6cbeginEv
FN:884,_ZNKSt6vectorImSaImEE6cbeginEv
FNDA:0,_ZNKSt6vectorImSaImEE6cbeginEv
FN:884,_ZNKSt6vectorIN5boost10shared_ptrINS0_9unit_test17test_unit_fixtureEEESaIS4_EE6cbeginEv
FNDA:0,_ZNKSt6vectorIN5boost10shared_ptrINS0_9unit_test17test_unit_fixtureEEESaIS4_EE6cbeginEv
FN:884,_ZNKSt6vectorIN5boost9unit_test12_GLOBAL__N_130unit_test_log_data_helper_implESaIS3_EE6cbeginEv
FNDA:0,_ZNKSt6vectorIN5boost9unit_test12_GLOBAL__N_130unit_test_log_data_helper_implESaIS3_EE6cbeginEv
FN:884,_ZNKSt6vectorIN5boost10shared_ptrINS0_9unit_test9decorator4baseEEESaIS5_EE6cbeginEv
FNDA:9,_ZNKSt6vectorIN5boost10shared_ptrINS0_9unit_test9decorator4baseEEESaIS5_EE6cbeginEv
FN:893,_ZNKSt6vectorIN5boost10shared_ptrINS0_9unit_test17test_unit_fixtureEEESaIS4_EE4cendEv
FNDA:0,_ZNKSt6vectorIN5boost10shared_ptrINS0_9unit_test17test_unit_fixtureEEESaIS4_EE4cendEv
FN:893,_ZNKSt6vectorIS_IN5boost10shared_ptrINS0_9unit_test9decorator4baseEEESaIS5_EESaIS7_EE4cendEv
FNDA:0,_ZNKSt6vectorIS_IN5boost10shared_ptrINS0_9unit_test9decorator4baseEEESaIS5_EESaIS7_EE4cendEv
FN:918,_ZNKSt6vectorIN5boost9unit_test12_GLOBAL__N_130unit_test_log_data_helper_implESaIS3_EE4sizeEv
FNDA:12,_ZNKSt6vectorIN5boost9unit_test12_GLOBAL__N_130unit_test_log_data_helper_implESaIS3_EE4sizeEv
FN:918,_ZNKSt6vectorINSt7__cxx1112basic_stringIcSt11char_traitsIcESaIcEEESaIS5_EE4sizeEv
FNDA:2,_ZNKSt6vectorINSt7__cxx1112basic_stringIcSt11char_traitsIcESaIcEEESaIS5_EE4sizeEv
FN:918,_ZNKSt6vectorIN5boost9unit_test9framework5state13context_frameESaIS4_EE4sizeEv
FNDA:19,_ZNKSt6vectorIN5boost9unit_test9framework5state13context_frameESaIS4_EE4sizeEv
FN:918,_ZNKSt6vectorIPN5boost9unit_test12_GLOBAL__N_130unit_test_log_data_helper_implESaIS4_EE4sizeEv
FNDA:4,_ZNKSt6vectorIPN5boost9unit_test12_GLOBAL__N_130unit_test_log_data_helper_implESaIS4_EE4sizeEv
FN:918,_ZNKSt6vectorIS_IN5boost9unit_test9framework4impl11name_filter9componentESaIS5_EESaIS7_EE4sizeEv
FNDA:0,_ZNKSt6vectorIS_IN5boost9unit_test9framework4impl11name_filter9componentESaIS5_EESaIS7_EE4sizeEv
FN:918,_ZNKSt6vectorIS_IN5boost10shared_ptrINS0_9unit_test9decorator4baseEEESaIS5_EESaIS7_EE4sizeEv
FNDA:18,_ZNKSt6vectorIS_IN5boost10shared_ptrINS0_9unit_test9decorator4baseEEESaIS5_EESaIS7_EE4sizeEv
FN:918,_ZNKSt6vectorIcSaIcEE4sizeEv
FNDA:0,_ZNKSt6vectorIcSaIcEE4sizeEv
FN:918,_ZNKSt6vectorIN5boost10shared_ptrINS0_9unit_test17test_unit_fixtureEEESaIS4_EE4sizeEv
FNDA:0,_ZNKSt6vectorIN5boost10shared_ptrINS0_9unit_test17test_unit_fixtureEEESaIS4_EE4sizeEv
FN:918,_ZNKSt6vectorIPN5boost9unit_test10test_suiteESaIS3_EE4sizeEv
FNDA:8,_ZNKSt6vectorIPN5boost9unit_test10test_suiteESaIS3_EE4sizeEv
FN:918,_ZNKSt6vectorIN5boost7runtime16parameter_cla_idESaIS2_EE4sizeEv
FNDA:312,_ZNKSt6vectorIN5boost7runtime16parameter_cla_idESaIS2_EE4sizeEv
FN:918,_ZNKSt6vectorISt4pairIPKcPKN5boost9unit_test12lazy_ostreamEESaIS8_EE4sizeEv
FNDA:0,_ZNKSt6vectorISt4pairIPKcPKN5boost9unit_test12lazy_ostreamEESaIS8_EE4sizeEv
FN:918,_ZNKSt6vectorIN5boost10shared_ptrINS0_9unit_test9decorator4baseEEESaIS5_EE4sizeEv
FNDA:0,_ZNKSt6vectorIN5boost10shared_ptrINS0_9unit_test9decorator4baseEEESaIS5_EE4sizeEv
FN:918,_ZNKSt6vectorImSaImEE4sizeEv
FNDA:75,_ZNKSt6vectorImSaImEE4sizeEv
FN:918,_ZNKSt6vectorIN5boost10shared_ptrINS0_7runtime3cla13rt_cla_detail14parameter_trieEEESaIS6_EE4sizeEv
FNDA:0,_ZNKSt6vectorIN5boost10shared_ptrINS0_7runtime3cla13rt_cla_detail14parameter_trieEEESaIS6_EE4sizeEv
FN:918,_ZNKSt6vectorIN5boost9unit_test9framework4impl11name_filter9componentESaIS5_EE4sizeEv
FNDA:0,_ZNKSt6vectorIN5boost9unit_test9framework4impl11name_filter9componentESaIS5_EE4sizeEv
FN:918,_ZNKSt6vectorIN5boost8functionIFNS0_10test_tools16assertion_resultEmEEESaIS5_EE4sizeEv
FNDA:0,_ZNKSt6vectorIN5boost8functionIFNS0_10test_tools16assertion_resultEmEEESaIS5_EE4sizeEv
FN:918,_ZNKSt6vectorISt4pairIN5boost10shared_ptrINS1_9unit_test19test_unit_generatorEEES_INS2_INS3_9decorator4baseEEESaIS8_EEESaISB_EE4sizeEv
FNDA:0,_ZNKSt6vectorISt4pairIN5boost10shared_ptrINS1_9unit_test19test_unit_generatorEEES_INS2_INS3_9decorator4baseEEESaIS8_EEESaISB_EE4sizeEv
FN:918,_ZNKSt6vectorIN5boost17reference_wrapperIKNS0_7runtime16parameter_cla_idEEESaIS5_EE4sizeEv
FNDA:3271,_ZNKSt6vectorIN5boost17reference_wrapperIKNS0_7runtime16parameter_cla_idEEESaIS5_EE4sizeEv
FN:918,_ZNKSt6vectorIN5boost9unit_test6output10junit_impl16junit_log_helper15assertion_entryESaIS5_EE4sizeEv
FNDA:0,_ZNKSt6vectorIN5boost9unit_test6output10junit_impl16junit_log_helper15assertion_entryESaIS5_EE4sizeEv
FN:918,_ZNKSt6vectorIN5boost9unit_test13basic_cstringIKcEESaIS4_EE4sizeEv
FNDA:82,_ZNKSt6vectorIN5boost9unit_test13basic_cstringIKcEESaIS4_EE4sizeEv
FN:923,_ZNKSt6vectorIN5boost8functionIFNS0_10test_tools16assertion_resultEmEEESaIS5_EE8max_sizeEv
FNDA:0,_ZNKSt6vectorIN5boost8functionIFNS0_10test_tools16assertion_resultEmEEESaIS5_EE8max_sizeEv
FN:923,_ZNKSt6vectorISt4pairIPKcPKN5boost9unit_test12lazy_ostreamEESaIS8_EE8max_sizeEv
FNDA:0,_ZNKSt6vectorISt4pairIPKcPKN5boost9unit_test12lazy_ostreamEESaIS8_EE8max_sizeEv
FN:923,_ZNKSt6vectorIN5boost17reference_wrapperIKNS0_7runtime16parameter_cla_idEEESaIS5_EE8max_sizeEv
FNDA:1298,_ZNKSt6vectorIN5boost17reference_wrapperIKNS0_7runtime16parameter_cla_idEEESaIS5_EE8max_sizeEv
FN:923,_ZNKSt6vectorIN5boost9unit_test9framework4impl11name_filter9componentESaIS5_EE8max_sizeEv
FNDA:0,_ZNKSt6vectorIN5boost9unit_test9framework4impl11name_filter9componentESaIS5_EE8max_sizeEv
FN:923,_ZNKSt6vectorISt4pairIN5boost10shared_ptrINS1_9unit_test19test_unit_generatorEEES_INS2_INS3_9decorator4baseEEESaIS8_EEESaISB_EE8max_sizeEv
FNDA:0,_ZNKSt6vectorISt4pairIN5boost10shared_ptrINS1_9unit_test19test_unit_generatorEEES_INS2_INS3_9decorator4baseEEESaIS8_EEESaISB_EE8max_sizeEv
FN:923,_ZNKSt6vectorIN5boost10shared_ptrINS0_7runtime3cla13rt_cla_detail14parameter_trieEEESaIS6_EE8max_sizeEv
FNDA:0,_ZNKSt6vectorIN5boost10shared_ptrINS0_7runtime3cla13rt_cla_detail14parameter_trieEEESaIS6_EE8max_sizeEv
FN:923,_ZNKSt6vectorIN5boost7runtime16parameter_cla_idESaIS2_EE8max_sizeEv
FNDA:142,_ZNKSt6vectorIN5boost7runtime16parameter_cla_idESaIS2_EE8max_sizeEv
FN:923,_ZNKSt6vectorIcSaIcEE8max_sizeEv
FNDA:0,_ZNKSt6vectorIcSaIcEE8max_sizeEv
FN:923,_ZNKSt6vectorIN5boost10shared_ptrINS0_9unit_test9decorator4baseEEESaIS5_EE8max_sizeEv
FNDA:0,_ZNKSt6vectorIN5boost10shared_ptrINS0_9unit_test9decorator4baseEEESaIS5_EE8max_sizeEv
FN:923,_ZNKSt6vectorINSt7__cxx1112basic_stringIcSt11char_traitsIcESaIcEEESaIS5_EE8max_sizeEv
FNDA:0,_ZNKSt6vectorINSt7__cxx1112basic_stringIcSt11char_traitsIcESaIcEEESaIS5_EE8max_sizeEv
FN:923,_ZNKSt6vectorIN5boost9unit_test9framework5state13context_frameESaIS4_EE8max_sizeEv
FNDA:0,_ZNKSt6vectorIN5boost9unit_test9framework5state13context_frameESaIS4_EE8max_sizeEv
FN:923,_ZNKSt6vectorIN5boost9unit_test6output10junit_impl16junit_log_helper15assertion_entryESaIS5_EE8max_sizeEv
FNDA:0,_ZNKSt6vectorIN5boost9unit_test6output10junit_impl16junit_log_helper15assertion_entryESaIS5_EE8max_sizeEv
FN:923,_ZNKSt6vectorIN5boost10shared_ptrINS0_9unit_test17test_unit_fixtureEEESaIS4_EE8max_sizeEv
FNDA:0,_ZNKSt6vectorIN5boost10shared_ptrINS0_9unit_test17test_unit_fixtureEEESaIS4_EE8max_sizeEv
FN:923,_ZNKSt6vectorIN5boost9unit_test12_GLOBAL__N_130unit_test_log_data_helper_implESaIS3_EE8max_sizeEv
FNDA:6,_ZNKSt6vectorIN5boost9unit_test12_GLOBAL__N_130unit_test_log_data_helper_implESaIS3_EE8max_sizeEv
FN:923,_ZNKSt6vectorIN5boost9unit_test13basic_cstringIKcEESaIS4_EE8max_sizeEv
FNDA:38,_ZNKSt6vectorIN5boost9unit_test13basic_cstringIKcEESaIS4_EE8max_sizeEv
FN:923,_ZNKSt6vectorImSaImEE8max_sizeEv
FNDA:10,_ZNKSt6vectorImSaImEE8max_sizeEv
FN:923,_ZNKSt6vectorIPN5boost9unit_test10test_suiteESaIS3_EE8max_sizeEv
FNDA:4,_ZNKSt6vectorIPN5boost9unit_test10test_suiteESaIS3_EE8max_sizeEv
FN:923,_ZNKSt6vectorIS_IN5boost9unit_test9framework4impl11name_filter9componentESaIS5_EESaIS7_EE8max_sizeEv
FNDA:0,_ZNKSt6vectorIS_IN5boost9unit_test9framework4impl11name_filter9componentESaIS5_EESaIS7_EE8max_sizeEv
FN:923,_ZNKSt6vectorIPN5boost9unit_test12_GLOBAL__N_130unit_test_log_data_helper_implESaIS4_EE8max_sizeEv
FNDA:2,_ZNKSt6vectorIPN5boost9unit_test12_GLOBAL__N_130unit_test_log_data_helper_implESaIS4_EE8max_sizeEv
FN:923,_ZNKSt6vectorIS_IN5boost10shared_ptrINS0_9unit_test9decorator4baseEEESaIS5_EESaIS7_EE8max_sizeEv
FNDA:0,_ZNKSt6vectorIS_IN5boost10shared_ptrINS0_9unit_test9decorator4baseEEESaIS5_EESaIS7_EE8max_sizeEv
FN:998,_ZNKSt6vectorISt4pairIPKcPKN5boost9unit_test12lazy_ostreamEESaIS8_EE8capacityEv
FNDA:0,_ZNKSt6vectorISt4pairIPKcPKN5boost9unit_test12lazy_ostreamEESaIS8_EE8capacityEv
FN:998,_ZNKSt6vectorIN5boost9unit_test13basic_cstringIKcEESaIS4_EE8capacityEv
FNDA:0,_ZNKSt6vectorIN5boost9unit_test13basic_cstringIKcEESaIS4_EE8capacityEv
FN:1007,_ZNKSt6vectorIN5boost9unit_test9framework5state13context_frameESaIS4_EE5emptyEv
FNDA:0,_ZNKSt6vectorIN5boost9unit_test9framework5state13context_frameESaIS4_EE5emptyEv
FN:1007,_ZNKSt6vectorINSt7__cxx1112basic_stringIcSt11char_traitsIcESaIcEEESaIS5_EE5emptyEv
FNDA:2,_ZNKSt6vectorINSt7__cxx1112basic_stringIcSt11char_traitsIcESaIcEEESaIS5_EE5emptyEv
FN:1007,_ZNKSt6vectorImSaImEE5emptyEv
FNDA:2,_ZNKSt6vectorImSaImEE5emptyEv
FN:1007,_ZNKSt6vectorIPN5boost9unit_test10test_suiteESaIS3_EE5emptyEv
FNDA:12,_ZNKSt6vectorIPN5boost9unit_test10test_suiteESaIS3_EE5emptyEv
FN:1007,_ZNKSt6vectorIN5boost17reference_wrapperIKNS0_7runtime16parameter_cla_idEEESaIS5_EE5emptyEv
FNDA:71,_ZNKSt6vectorIN5boost17reference_wrapperIKNS0_7runtime16parameter_cla_idEEESaIS5_EE5emptyEv
